
8aaaf200-2450-11e4-abe2-0002a5d5c51b.elf:     file format elf64-littleaarch64
8aaaf200-2450-11e4-abe2-0002a5d5c51b.elf
architecture: aarch64, flags 0x00000150:
HAS_SYMS, DYNAMIC, D_PAGED
start address 0x0000000000000320

Program Header:
    LOAD off    0x0000000000001000 vaddr 0x0000000000000000 paddr 0x0000000000000000 align 2**12
         filesz 0x0000000000014008 memsz 0x0000000000014008 flags r-x
    LOAD off    0x0000000000016000 vaddr 0x0000000000015000 paddr 0x0000000000015000 align 2**12
         filesz 0x0000000000000444 memsz 0x000000000000b4c0 flags rw-
 DYNAMIC off    0x0000000000016000 vaddr 0x0000000000015000 paddr 0x0000000000015000 align 2**3
         filesz 0x0000000000000110 memsz 0x0000000000000110 flags rw-
   STACK off    0x0000000000000000 vaddr 0x0000000000000000 paddr 0x0000000000000000 align 2**4
         filesz 0x0000000000000000 memsz 0x0000000000000000 flags rw-

Dynamic Section:
  HASH                 0x0000000000013dd8
  GNU_HASH             0x0000000000013d38
  STRTAB               0x0000000000013dc0
  SYMTAB               0x0000000000013d60
  STRSZ                0x0000000000000012
  SYMENT               0x0000000000000018
  DEBUG                0x0000000000000000
  RELA                 0x0000000000013df8
  RELASZ               0x0000000000000348
  RELAENT              0x0000000000000018
  FLAGS_1              0x0000000008000000
  RELACOUNT            0x0000000000000016
private flags = 0:

Sections:
Idx Name          Size      VMA               LMA               File off  Algn
  0 .ta_head      00000020  0000000000000000  0000000000000000  00001000  2**3
                  CONTENTS, ALLOC, LOAD, READONLY, DATA
  1 .text         00010e7c  0000000000000020  0000000000000020  00001020  2**3
                  CONTENTS, ALLOC, LOAD, READONLY, CODE
  2 .eh_frame     00001c68  0000000000010ea0  0000000000010ea0  00011ea0  2**3
                  CONTENTS, ALLOC, LOAD, READONLY, DATA
  3 .rodata       0000122f  0000000000012b08  0000000000012b08  00013b08  2**3
                  CONTENTS, ALLOC, LOAD, READONLY, DATA
  4 .gnu.hash     00000024  0000000000013d38  0000000000013d38  00014d38  2**3
                  CONTENTS, ALLOC, LOAD, READONLY, DATA
  5 .dynsym       00000060  0000000000013d60  0000000000013d60  00014d60  2**3
                  CONTENTS, ALLOC, LOAD, READONLY, DATA
  6 .dynstr       00000012  0000000000013dc0  0000000000013dc0  00014dc0  2**0
                  CONTENTS, ALLOC, LOAD, READONLY, DATA
  7 .hash         0000001c  0000000000013dd8  0000000000013dd8  00014dd8  2**3
                  CONTENTS, ALLOC, LOAD, READONLY, DATA
  8 .rela.dyn     00000210  0000000000013df8  0000000000013df8  00014df8  2**3
                  CONTENTS, ALLOC, LOAD, READONLY, DATA
  9 .dynamic      00000110  0000000000015000  0000000000015000  00016000  2**3
                  CONTENTS, ALLOC, LOAD, DATA
 10 .got          00000088  0000000000015110  0000000000015110  00016110  2**3
                  CONTENTS, ALLOC, LOAD, DATA
 11 .rela.got     00000138  0000000000015198  0000000000015198  00016198  2**3
                  CONTENTS, ALLOC, LOAD, READONLY, DATA
 12 .data         00000174  00000000000152d0  00000000000152d0  000162d0  2**3
                  CONTENTS, ALLOC, LOAD, DATA
 13 .bss          0000b078  0000000000015448  0000000000015448  00016444  2**3
                  ALLOC
 14 .debug_info   000098f2  0000000000000000  0000000000000000  00016444  2**0
                  CONTENTS, READONLY, DEBUGGING
 15 .debug_abbrev 00001faa  0000000000000000  0000000000000000  0001fd36  2**0
                  CONTENTS, READONLY, DEBUGGING
 16 .debug_aranges 000007d0  0000000000000000  0000000000000000  00021ce0  2**4
                  CONTENTS, READONLY, DEBUGGING
 17 .debug_macro  000101b2  0000000000000000  0000000000000000  000224b0  2**0
                  CONTENTS, READONLY, DEBUGGING
 18 .debug_line   0000755f  0000000000000000  0000000000000000  00032662  2**0
                  CONTENTS, READONLY, DEBUGGING
 19 .debug_str    000122a4  0000000000000000  0000000000000000  00039bc1  2**0
                  CONTENTS, READONLY, DEBUGGING
 20 .comment      000000b3  0000000000000000  0000000000000000  0004be65  2**0
                  CONTENTS, READONLY
 21 .debug_ranges 000003e0  0000000000000000  0000000000000000  0004bf20  2**4
                  CONTENTS, READONLY, DEBUGGING
 22 .debug_loc    000005dc  0000000000000000  0000000000000000  0004c300  2**0
                  CONTENTS, READONLY, DEBUGGING
SYMBOL TABLE:
0000000000000000 l    d  .ta_head	0000000000000000 .ta_head
0000000000000020 l    d  .text	0000000000000000 .text
0000000000010ea0 l    d  .eh_frame	0000000000000000 .eh_frame
0000000000012b08 l    d  .rodata	0000000000000000 .rodata
0000000000013d38 l    d  .gnu.hash	0000000000000000 .gnu.hash
0000000000013d60 l    d  .dynsym	0000000000000000 .dynsym
0000000000013dc0 l    d  .dynstr	0000000000000000 .dynstr
0000000000013dd8 l    d  .hash	0000000000000000 .hash
0000000000013df8 l    d  .rela.dyn	0000000000000000 .rela.dyn
0000000000015000 l    d  .dynamic	0000000000000000 .dynamic
0000000000015110 l    d  .got	0000000000000000 .got
0000000000015198 l    d  .rela.got	0000000000000000 .rela.got
00000000000152d0 l    d  .data	0000000000000000 .data
0000000000015448 l    d  .bss	0000000000000000 .bss
0000000000000000 l    d  .debug_info	0000000000000000 .debug_info
0000000000000000 l    d  .debug_abbrev	0000000000000000 .debug_abbrev
0000000000000000 l    d  .debug_aranges	0000000000000000 .debug_aranges
0000000000000000 l    d  .debug_macro	0000000000000000 .debug_macro
0000000000000000 l    d  .debug_line	0000000000000000 .debug_line
0000000000000000 l    d  .debug_str	0000000000000000 .debug_str
0000000000000000 l    d  .comment	0000000000000000 .comment
0000000000000000 l    d  .debug_ranges	0000000000000000 .debug_ranges
0000000000000000 l    d  .debug_loc	0000000000000000 .debug_loc
0000000000000000 l    df *ABS*	0000000000000000 user_ta_header.c
0000000000012b18 l     O .rodata	0000000000000001 __compound_literal.0
0000000000012b19 l     O .rodata	0000000000000001 __compound_literal.1
0000000000012b1a l     O .rodata	0000000000000001 __compound_literal.2
0000000000012b1c l     O .rodata	0000000000000004 __compound_literal.3
0000000000012b20 l     O .rodata	0000000000000004 __compound_literal.4
0000000000012b24 l     O .rodata	0000000000000004 __compound_literal.5
0000000000000000 l    df *ABS*	0000000000000000 memcpy.c
0000000000000000 l    df *ABS*	0000000000000000 hello_world_ta.c
0000000000000170 l     F .text	000000000000004c inc_value
00000000000001bc l     F .text	000000000000004c dec_value
0000000000000208 l     F .text	000000000000009c convert
0000000000000000 l    df *ABS*	0000000000000000 utee_syscalls_a64.o
0000000000000000 l    df *ABS*	0000000000000000 user_ta_entry.c
000000000000060c l     F .text	0000000000000008 __utee_gprof_init
0000000000000614 l     F .text	0000000000000008 __utee_gprof_fini
00000000000153a8 l     O .data	0000000000000010 ta_sessions
00000000000204b8 l     O .bss	0000000000000001 init_done
0000000000000814 l     F .text	0000000000000044 init_instance
0000000000000858 l     F .text	0000000000000020 uninit_instance
0000000000000878 l     F .text	0000000000000064 ta_header_save_params
00000000000008dc l     F .text	000000000000005c ta_header_get_session
0000000000000938 l     F .text	00000000000000fc ta_header_add_session
0000000000000a34 l     F .text	0000000000000130 ta_header_remove_session
0000000000000b64 l     F .text	0000000000000188 to_utee_params
0000000000000cec l     F .text	000000000000013c from_utee_params
0000000000000e28 l     F .text	00000000000000c8 entry_open_session
0000000000000ef0 l     F .text	000000000000004c entry_close_session
0000000000000f3c l     F .text	00000000000000a0 entry_invoke_command
0000000000000000 l    df *ABS*	0000000000000000 tee_api.c
000000000001d4a0 l     O .bss	0000000000000008 tee_api_instance_data
0000000000001084 l     F .text	00000000000003d0 copy_param
0000000000001454 l     F .text	0000000000000198 update_out_param
0000000000012c98 l     O .rodata	000000000000000b __func__.4733
0000000000000000 l    df *ABS*	0000000000000000 tee_api_arith_mpi.c
0000000000001d94 l     F .text	000000000000003c api_panic
0000000000001dd0 l     F .text	000000000000003c mpi_panic
000000000001d4a8 l     O .bss	0000000000003000 data.4724
0000000000012d78 l     O .rodata	0000000000000012 __func__.4725
0000000000001e70 l     F .text	00000000000000dc copy_mpi_to_bigint
0000000000001f4c l     F .text	00000000000000fc get_mpi
0000000000012d90 l     O .rodata	0000000000000008 __func__.4758
0000000000012d98 l     O .rodata	000000000000000f __func__.4764
0000000000012da8 l     O .rodata	000000000000001f __func__.4782
0000000000012dc8 l     O .rodata	0000000000000019 __func__.4789
0000000000012de8 l     O .rodata	0000000000000015 __func__.4820
00000000000026b4 l     F .text	000000000000014c bigint_binary
0000000000012e00 l     O .rodata	000000000000000e __func__.4855
0000000000002800 l     F .text	00000000000001d0 bigint_binary_mod
0000000000012e10 l     O .rodata	0000000000000012 __func__.4867
0000000000012e28 l     O .rodata	000000000000000e __func__.4895
0000000000012e38 l     O .rodata	000000000000000e __func__.4924
0000000000012e48 l     O .rodata	000000000000000e __func__.4932
0000000000012e58 l     O .rodata	0000000000000011 __func__.4961
0000000000012e70 l     O .rodata	0000000000000018 __func__.4978
000000000000316c l     F .text	000000000000002c mpi_is_odd
0000000000003198 l     F .text	000000000000003c mpi_is_even
00000000000031d4 l     F .text	00000000000007f0 mpi_egcd
0000000000012e88 l     O .rodata	0000000000000009 __func__.5001
0000000000012e98 l     O .rodata	000000000000001d __func__.5058
0000000000003ccc l     F .text	000000000000003c rng_read
0000000000012eb8 l     O .rodata	0000000000000019 __func__.5111
0000000000012ed8 l     O .rodata	0000000000000015 __func__.5126
0000000000000000 l    df *ABS*	0000000000000000 tee_api_panic.c
0000000000000000 l    df *ABS*	0000000000000000 tee_system_pta.c
0000000000004004 l     F .text	0000000000000024 reg_pair_to_64
0000000000004028 l     F .text	000000000000003c reg_pair_from_64
0000000000004064 l     F .text	0000000000000090 invoke_system_pta
00000000000204a8 l     O .bss	0000000000000008 sess.4141
0000000000012f20 l     O .rodata	0000000000000010 uuid.4142
0000000000012f30 l     O .rodata	000000000000000a __func__.4162
0000000000000000 l    df *ABS*	0000000000000000 trace_ext.c
0000000000000000 l    df *ABS*	0000000000000000 bignum.c
0000000000004420 l     F .text	0000000000000030 mbedtls_mpi_zeroize
0000000000004450 l     F .text	0000000000000040 mpi_init
00000000000051a8 l     F .text	0000000000000064 mbedtls_clz
00000000000052ec l     F .text	00000000000000c8 mpi_get_digit
00000000000056fc l     F .text	0000000000000154 mpi_write_hlp
0000000000005b44 l     F .text	0000000000000070 mpi_uint_bigendian_to_host_c
0000000000005bb4 l     F .text	000000000000001c mpi_uint_bigendian_to_host
0000000000005bd0 l     F .text	00000000000000ac mpi_bigendian_to_host
00000000000069dc l     F .text	0000000000000068 ct_lt_mpi_uint
0000000000006f20 l     F .text	0000000000000130 mpi_sub_hlp
00000000000074a4 l     F .text	00000000000013f8 mpi_mul_hlp
0000000000008b3c l     F .text	00000000000000d0 mbedtls_int_div_int
0000000000012f60 l     O .rodata	00000000000002a0 small_prime
000000000000aea0 l     F .text	00000000000000e0 mpi_check_small_factors
000000000000af80 l     F .text	000000000000035c mpi_miller_rabin
0000000000013200 l     O .rodata	0000000000000024 gcd_pairs
0000000000000000 l    df *ABS*	0000000000000000 platform_util.c
00000000000153b8 l     O .data	0000000000000008 memset_func
0000000000000000 l    df *ABS*	0000000000000000 bget_malloc.c
000000000000bed8 l     F .text	0000000000000018 tag_asan_free
000000000000bef0 l     F .text	0000000000000018 tag_asan_alloced
000000000000bf08 l     F .text	000000000000002c memset_unchecked
000000000000bf34 l     F .text	000000000000002c memcpy_unchecked
00000000000139c8 l     O .rodata	0000000000000005 __func__.3641
00000000000139d0 l     O .rodata	0000000000000006 __func__.3656
00000000000139d8 l     O .rodata	0000000000000006 __func__.3665
00000000000139e0 l     O .rodata	0000000000000005 __func__.3674
00000000000139e8 l     O .rodata	0000000000000006 __func__.3683
00000000000139f0 l     O .rodata	0000000000000007 __func__.3693
000000000000cc0c l     F .text	0000000000000014 malloc_lock
000000000000cc20 l     F .text	0000000000000018 malloc_unlock
00000000000153c0 l     O .data	0000000000000080 malloc_ctx
000000000000cc38 l     F .text	0000000000000018 print_oom
000000000000cc50 l     F .text	00000000000000b8 raw_malloc_return_hook
000000000000cd08 l     F .text	0000000000000050 gen_malloc_reset_stats
000000000000cd78 l     F .text	0000000000000060 gen_malloc_get_stats
000000000000ce00 l     F .text	0000000000000014 raw_malloc_validate_pools
000000000000ce14 l     F .text	0000000000000034 bpool_foreach_iterator_init
000000000000ce48 l     F .text	0000000000000130 bpool_foreach_pool
00000000000139f8 l     O .rodata	0000000000000013 __func__.3755
000000000000cf78 l     F .text	00000000000000c0 bpool_foreach
000000000000d038 l     F .text	00000000000000fc raw_malloc
000000000000d134 l     F .text	000000000000004c raw_free
000000000000d180 l     F .text	0000000000000174 raw_calloc
000000000000d2f4 l     F .text	0000000000000108 raw_realloc
000000000000d3fc l     F .text	0000000000000070 bget_buf_size
0000000000013a10 l     O .rodata	000000000000000e __func__.3808
000000000000d4c0 l     F .text	0000000000000050 free_helper
000000000000d56c l     F .text	0000000000000034 realloc_unlocked
000000000000d5f4 l     F .text	0000000000000030 get_payload_start_size
000000000000d66c l     F .text	00000000000001f4 gen_malloc_add_pool
0000000000013a20 l     O .rodata	0000000000000014 __func__.3857
000000000000d860 l     F .text	00000000000000f8 gen_malloc_buffer_is_within_alloced
000000000000d958 l     F .text	0000000000000120 gen_malloc_buffer_overlaps_heap
0000000000000000 l    df *ABS*	0000000000000000 snprintf.c
0000000000000000 l    df *ABS*	0000000000000000 memmove.c
0000000000000000 l    df *ABS*	0000000000000000 memset.c
0000000000000000 l    df *ABS*	0000000000000000 strlen.c
0000000000000000 l    df *ABS*	0000000000000000 snprintk.c
0000000000013a38 l     O .rodata	0000000000000011 hexdigits
0000000000013a50 l     O .rodata	0000000000000011 HEXDIGITS
000000000000e3ac l     F .text	0000000000001eac kprintf
000000000000e2c8 l     F .text	00000000000000e4 uuid2str
0000000000000000 l    df *ABS*	0000000000000000 trace.c
00000000000102b8 l     F .text	0000000000000064 trace_level_to_string
0000000000013c60 l     O .rodata	0000000000000005 lvl_strs.3494
000000000001031c l     F .text	0000000000000074 print_thread_id
0000000000010390 l     F .text	0000000000000018 print_core_id
0000000000000000 l    df *ABS*	0000000000000000 mempool.c
00000000000107c4 l     F .text	0000000000000014 get_pool
00000000000107d8 l     F .text	0000000000000014 put_pool
0000000000013ce8 l     O .rodata	0000000000000013 __func__.3549
0000000000013d00 l     O .rodata	000000000000000e __func__.3558
0000000000000000 l    df *ABS*	0000000000000000 consttime_memcmp.c
0000000000000000 l    df *ABS*	0000000000000000 memchr.c
0000000000000000 l    df *ABS*	0000000000000000 assert.c
0000000000000000 l    df *ABS*	0000000000000000 
0000000000015000 l     O *ABS*	0000000000000000 _DYNAMIC
0000000000015128 l     O *ABS*	0000000000000000 _GLOBAL_OFFSET_TABLE_
00000000000043e0 g     F .text	0000000000000040 putchar
0000000000003de0 g     F .text	0000000000000034 TEE_BigIntConvertToFMM
0000000000002f28 g     F .text	0000000000000034 TEE_BigIntSquareMod
000000000000244c g     F .text	00000000000001e8 TEE_BigIntShiftRight
0000000000000564 g     F .text	000000000000000c utee_storage_obj_create
00000000000045a4 g     F .text	0000000000000174 mbedtls_mpi_grow
000000000000036c g     F .text	000000000000000c utee_return
0000000000001cd4 g     F .text	0000000000000028 TEE_Realloc
00000000000042b8 g     F .text	00000000000000f0 printf
0000000000000378 g     F .text	000000000000000c utee_log
0000000000001758 g     F .text	000000000000015c TEE_InvokeTACommand
00000000000044b4 g     F .text	0000000000000040 mbedtls_mpi_init_mempool
000000000000602c g     F .text	0000000000000160 mbedtls_mpi_write_binary
000000000000e18c g     F .text	0000000000000064 vsnprintk
0000000000007438 g     F .text	000000000000006c mbedtls_mpi_sub_int
000000000000dc28 g     F .text	000000000000020c memmove
000000000000db08 g     F .text	00000000000000bc snprintf
000000000000240c g     F .text	0000000000000040 TEE_BigIntCmpS32
0000000000004718 g     F .text	00000000000001f8 mbedtls_mpi_shrink
00000000000029d0 g     F .text	0000000000000038 TEE_BigIntAdd
000000000000039c g     F .text	000000000000000c utee_get_property_name_to_index
0000000000012b10 g     O .rodata	0000000000000008 ta_heap_size
0000000000000420 g     F .text	000000000000000c utee_cryp_state_alloc
0000000000000528 g     F .text	000000000000000c utee_authenc_enc_final
00000000000053b4 g     F .text	0000000000000348 mbedtls_mpi_read_string
0000000000002a40 g     F .text	00000000000000cc TEE_BigIntNeg
0000000000000020 g       .text	0000000000000000 __text_start
00000000000063e4 g     F .text	0000000000000220 mbedtls_mpi_shift_r
000000000000dad8 g     F .text	0000000000000030 malloc_buffer_overlaps_heap
0000000000002ea8 g     F .text	0000000000000040 TEE_BigIntSubMod
000000000000b3e8 g     F .text	00000000000004a4 mbedtls_mpi_gen_prime
0000000000004f6c g     F .text	0000000000000060 mbedtls_mpi_get_bit
0000000000005db4 g     F .text	0000000000000128 mbedtls_mpi_read_binary
00000000000103a8 g     F .text	00000000000000ac trace_printf
00000000000097e0 g     F .text	00000000000001f8 mbedtls_mpi_montmul
0000000000000020 g     F .text	00000000000000f4 memcpy
0000000000000438 g     F .text	000000000000000c utee_cryp_state_free
0000000000003e14 g     F .text	00000000000000ac TEE_BigIntConvertFromFMM
0000000000003fe4 g     F .text	0000000000000020 TEE_Panic
00000000000043a8 g     F .text	0000000000000038 puts
0000000000003ec0 g     F .text	0000000000000124 TEE_BigIntComputeFMM
000000000000cdd8 g     F .text	0000000000000028 malloc_get_stats
0000000000000480 g     F .text	000000000000000c utee_cipher_final
0000000000001c1c g     F .text	000000000000003c TEE_GetREETime
00000000000152d0 g     O .data	00000000000000d8 ta_props
000000000000d46c g     F .text	0000000000000054 malloc
00000000000004bc g     F .text	000000000000000c utee_cryp_obj_close
000000000000dbc4 g     F .text	0000000000000064 vsnprintf
0000000000015440 g     O .data	0000000000000004 trace_level
00000000000023b8 g     F .text	0000000000000054 TEE_BigIntCmp
0000000000012c78 g     O .rodata	0000000000000008 ta_num_props
000000000000c3e0 g     F .text	000000000000012c bgetr
000000000000051c g     F .text	000000000000000c utee_authenc_update_payload
0000000000010aa0 g     F .text	00000000000000dc mempool_free
0000000000002178 g     F .text	00000000000000a8 TEE_BigIntConvertToOctetString
0000000000000600 g     F .text	000000000000000c utee_cache_operation
000000000000520c g     F .text	00000000000000bc mbedtls_mpi_bitlen
0000000000000504 g     F .text	000000000000000c utee_authenc_init
0000000000002634 g     F .text	0000000000000048 TEE_BigIntGetBit
0000000000012b08 g     O .rodata	0000000000000003 trace_ext_prefix
000000000000c308 g     F .text	00000000000000d8 bgetz
00000000000019f8 g     F .text	0000000000000010 TEE_GetInstanceData
0000000000001ad8 g     F .text	0000000000000048 TEE_Wait
00000000000005d0 g     F .text	000000000000000c utee_storage_obj_write
000000000000889c g     F .text	0000000000000250 mbedtls_mpi_mul_mpi
0000000000001d44 g     F .text	0000000000000028 TEE_CacheFlush
0000000000010454 g     F .text	000000000000034c trace_vprintf
000000000000011c g     F .text	0000000000000008 TA_DestroyEntryPoint
0000000000004490 g     F .text	0000000000000024 mbedtls_mpi_init
0000000000005108 g     F .text	00000000000000a0 mbedtls_mpi_lsb
0000000000010e2c g     F .text	000000000000005c _assert_log
0000000000003dcc g     F .text	0000000000000014 TEE_BigIntFMMContextSizeInU32
00000000000041c4 g     F .text	00000000000000c0 tee_unmap
0000000000001e0c g     F .text	0000000000000064 _TEE_MathAPI_Init
0000000000007194 g     F .text	000000000000011c mbedtls_mpi_add_mpi
00000000000005b8 g     F .text	000000000000000c utee_storage_next_enum
0000000000015448 g     O .bss	0000000000008000 ta_heap
0000000000002f5c g     F .text	0000000000000138 TEE_BigIntInvMod
000000000000061c g     F .text	00000000000000f8 __utee_call_elf_init_fn
000000000000015c g     F .text	0000000000000014 TA_CloseSessionEntryPoint
00000000000072b0 g     F .text	000000000000011c mbedtls_mpi_sub_mpi
0000000000010b7c g     F .text	00000000000000f8 consttime_memcmp
0000000000000384 g     F .text	000000000000000c __utee_panic
000000000000042c g     F .text	000000000000000c utee_cryp_state_copy
00000000000002a4 g     F .text	000000000000007c TA_InvokeCommandEntryPoint
0000000000000714 g     F .text	0000000000000100 __utee_call_elf_fini_fn
000000000000d648 g     F .text	0000000000000024 free_wipe
0000000000010884 g     F .text	0000000000000174 mempool_alloc
00000000000004b0 g     F .text	000000000000000c utee_cryp_obj_alloc
0000000000000414 g     F .text	000000000000000c utee_set_ta_time
00000000000004a4 g     F .text	000000000000000c utee_cryp_obj_get_attr
00000000000109f8 g     F .text	00000000000000a8 mempool_calloc
000000000000d510 g     F .text	000000000000005c calloc
000000000001d448 g     O .bss	0000000000000010 __init_fini_info
0000000000001c58 g     F .text	000000000000007c TEE_Malloc
00000000000003f0 g     F .text	000000000000000c utee_mask_cancellation
00000000000004c8 g     F .text	000000000000000c utee_cryp_obj_reset
0000000000001970 g     F .text	0000000000000064 TEE_CheckMemoryAccessRights
0000000000004ec8 g     F .text	00000000000000a4 mbedtls_mpi_lset
0000000000000124 g     F .text	0000000000000038 TA_OpenSessionEntryPoint
00000000000005ac g     F .text	000000000000000c utee_storage_start_enum
000000000000057c g     F .text	000000000000000c utee_storage_obj_rename
00000000000204c0 g       .bss	0000000000000000 __ftrace_buf_end
000000000001d458 g     O .bss	0000000000000004 ta_param_types
0000000000009440 g     F .text	0000000000000074 mbedtls_mpi_div_int
000000000000b2dc g     F .text	00000000000000dc mbedtls_mpi_is_prime_ext
0000000000003d08 g     F .text	0000000000000060 TEE_BigIntIsProbablePrime
0000000000008aec g     F .text	0000000000000050 mbedtls_mpi_mul_int
0000000000009a3c g     F .text	0000000000000afc mbedtls_mpi_exp_mod
0000000000004ab8 g     F .text	00000000000001b8 mbedtls_mpi_safe_cond_assign
0000000000000390 g     F .text	000000000000000c utee_get_property
0000000000006a44 g     F .text	00000000000001e4 mbedtls_mpi_lt_mpi_ct
0000000000002048 g     F .text	000000000000009c TEE_BigIntInit
0000000000001a08 g     F .text	0000000000000030 TEE_MemMove
000000000000be94 g     F .text	0000000000000044 mbedtls_platform_zeroize
00000000000020e4 g     F .text	0000000000000094 TEE_BigIntConvertFromOctetString
0000000000006604 g     F .text	00000000000001b8 mbedtls_mpi_cmp_abs
0000000000010c74 g     F .text	00000000000001b8 memchr
00000000000018f0 g     F .text	0000000000000040 TEE_UnmaskCancellation
000000000000b88c g     F .text	0000000000000608 mbedtls_mpi_self_test
0000000000000570 g     F .text	000000000000000c utee_storage_obj_del
00000000000005e8 g     F .text	000000000000000c utee_storage_obj_seek
0000000000006c28 g     F .text	0000000000000064 mbedtls_mpi_cmp_int
0000000000000450 g     F .text	000000000000000c utee_hash_update
0000000000002e04 g     F .text	0000000000000064 TEE_BigIntMod
00000000000095a4 g     F .text	000000000000019c mbedtls_mpi_mod_int
0000000000005c7c g     F .text	0000000000000138 mbedtls_mpi_read_binary_le
00000000000003b4 g     F .text	000000000000000c utee_close_ta_session
0000000000002c3c g     F .text	00000000000001c8 TEE_BigIntDiv
00000000000204c0 g       .bss	0000000000000000 __ftrace_buf_start
0000000000004910 g     F .text	0000000000000158 mbedtls_mpi_copy
000000000000cd58 g     F .text	0000000000000020 malloc_reset_stats
0000000000000474 g     F .text	000000000000000c utee_cipher_update
000000000000d5a0 g     F .text	0000000000000054 realloc
0000000000004a68 g     F .text	0000000000000050 mbedtls_mpi_swap
00000000000107ec g     F .text	0000000000000098 mempool_alloc_pool
000000000000054c g     F .text	000000000000000c utee_asymm_verify
0000000000002b0c g     F .text	0000000000000104 TEE_BigIntMul
000000000000618c g     F .text	0000000000000258 mbedtls_mpi_shift_l
00000000000067bc g     F .text	0000000000000220 mbedtls_mpi_cmp_mpi
0000000000001a68 g     F .text	0000000000000034 TEE_MemFill
000000000000da78 g     F .text	0000000000000030 malloc_add_pool
00000000000102a8 g     F .text	0000000000000010 trace_get_level
0000000000006c8c g     F .text	0000000000000294 mbedtls_mpi_add_abs
00000000000004f8 g     F .text	000000000000000c utee_cryp_random_number_generate
0000000000003dac g     F .text	0000000000000020 TEE_BigIntFMMSizeInU32
0000000000003d68 g     F .text	0000000000000028 TEE_BigIntInitFMM
0000000000000540 g     F .text	000000000000000c utee_asymm_operate
0000000000000fdc g     F .text	00000000000000a8 __utee_entry
0000000000010e9c g       .text	0000000000000000 __text_end
0000000000003094 g     F .text	00000000000000d8 TEE_BigIntRelativePrime
00000000000094b4 g     F .text	00000000000000f0 mbedtls_mpi_mod_mpi
000000000000c998 g     F .text	0000000000000160 bpool
00000000000018b4 g     F .text	000000000000003c TEE_GetCancellationFlag
000000000000a538 g     F .text	0000000000000270 mbedtls_mpi_gcd
0000000000001bc4 g     F .text	0000000000000058 TEE_SetTAPersistentTime
0000000000005edc g     F .text	0000000000000150 mbedtls_mpi_write_binary_le
000000000000de34 g     F .text	00000000000001cc memset
0000000000001b20 g     F .text	00000000000000a4 TEE_GetTAPersistentTime
00000000000107a0 g     F .text	0000000000000024 dhex_dump
0000000000001930 g     F .text	0000000000000040 TEE_MaskCancellation
00000000000005c4 g     F .text	000000000000000c utee_storage_obj_read
00000000000004d4 g     F .text	000000000000000c utee_cryp_obj_populate
0000000000010258 g     F .text	0000000000000050 trace_set_level
000000000000048c g     F .text	000000000000000c utee_cryp_obj_get_info
0000000000000588 g     F .text	000000000000000c utee_storage_alloc_enum
00000000000005a0 g     F .text	000000000000000c utee_storage_reset_enum
00000000000005dc g     F .text	000000000000000c utee_storage_obj_trunc
00000000000022b0 g     F .text	0000000000000108 TEE_BigIntConvertToS32
0000000000002a08 g     F .text	0000000000000038 TEE_BigIntSub
00000000000003cc g     F .text	000000000000000c utee_get_cancellation_flag
0000000000000444 g     F .text	000000000000000c utee_hash_init
0000000000000358 g     F .text	0000000000000008 tahead_get_trace_level
00000000000040f4 g     F .text	00000000000000d0 tee_map_zi
00000000000099d8 g     F .text	0000000000000064 mbedtls_mpi_montred
0000000000002220 g     F .text	0000000000000090 TEE_BigIntConvertFromS32
00000000000073cc g     F .text	000000000000006c mbedtls_mpi_add_int
0000000000000498 g     F .text	000000000000000c utee_cryp_obj_restrict_usage
000000000000daa8 g     F .text	0000000000000030 malloc_buffer_is_within_alloced
00000000000004e0 g     F .text	000000000000000c utee_cryp_obj_copy
0000000000003d90 g     F .text	000000000000001c TEE_BigIntInitFMMContext
00000000000004ec g     F .text	000000000000000c utee_cryp_derive_key
0000000000000534 g     F .text	000000000000000c utee_authenc_dec_final
0000000000002c10 g     F .text	000000000000002c TEE_BigIntSquare
0000000000000114 g     F .text	0000000000000008 TA_CreateEntryPoint
0000000000000320 g     F .text	0000000000000038 __ta_entry
000000000000e0d4 g     F .text	00000000000000b8 snprintk
0000000000009740 g     F .text	00000000000000a0 mbedtls_mpi_montg_init
000000000000267c g     F .text	0000000000000038 TEE_BigIntGetBitCount
0000000000002ee8 g     F .text	0000000000000040 TEE_BigIntMulMod
000000000000a8b8 g     F .text	00000000000005e8 mbedtls_mpi_inv_mod
000000000001d460 g     O .bss	0000000000000040 ta_params
0000000000008c0c g     F .text	0000000000000834 mbedtls_mpi_div_mpi
00000000000052c8 g     F .text	0000000000000024 mbedtls_mpi_size
000000000000bf60 g     F .text	00000000000003a8 bget
0000000000004fcc g     F .text	000000000000013c mbedtls_mpi_set_bit
0000000000001cfc g     F .text	0000000000000020 TEE_Free
000000000000b3b8 g     F .text	0000000000000030 mbedtls_mpi_is_prime
0000000000001d6c g     F .text	0000000000000028 TEE_CacheInvalidate
0000000000000468 g     F .text	000000000000000c utee_cipher_init
0000000000010e88 g     F .text	0000000000000014 _assert_break
0000000000002e68 g     F .text	0000000000000040 TEE_BigIntAddMod
0000000000000594 g     F .text	000000000000000c utee_storage_free_enum
0000000000000510 g     F .text	000000000000000c utee_authenc_update_aad
0000000000001a38 g     F .text	0000000000000030 TEE_MemCompare
000000000000e1f0 g     F .text	00000000000000d8 __vsnprintf
00000000000015ec g     F .text	0000000000000128 TEE_OpenTASession
0000000000000360 g     F .text	000000000000000c utee_panic
0000000000004284 g     F .text	000000000000002c trace_ext_puts
00000000000042b0 g     F .text	0000000000000008 trace_ext_get_thread_id
00000000000044f4 g     F .text	00000000000000b0 mbedtls_mpi_free
0000000000001d1c g     F .text	0000000000000028 TEE_CacheClean
00000000000003a8 g     F .text	000000000000000c utee_open_ta_session
0000000000004c70 g     F .text	0000000000000258 mbedtls_mpi_safe_cond_swap
000000000000045c g     F .text	000000000000000c utee_hash_final
000000000000e000 g     F .text	00000000000000d4 strlen
00000000000039c4 g     F .text	0000000000000308 TEE_BigIntComputeExtendedGcd
0000000000000558 g     F .text	000000000000000c utee_storage_obj_open
00000000000003c0 g     F .text	000000000000000c utee_invoke_ta_command
00000000000003fc g     F .text	000000000000000c utee_wait
0000000000001a9c g     F .text	000000000000003c TEE_GetSystemTime
0000000000000000 g     O .ta_head	0000000000000020 ta_head
000000000000c50c g     F .text	000000000000048c brel
0000000000007050 g     F .text	0000000000000144 mbedtls_mpi_sub_abs
0000000000000408 g     F .text	000000000000000c utee_get_time
000000000000a7a8 g     F .text	0000000000000110 mbedtls_mpi_fill_random
00000000000019d4 g     F .text	0000000000000024 TEE_SetInstanceData
00000000000003e4 g     F .text	000000000000000c utee_unmask_cancellation
00000000000003d8 g     F .text	000000000000000c utee_check_access_rights
0000000000005850 g     F .text	00000000000002f4 mbedtls_mpi_write_string
00000000000005f4 g     F .text	000000000000000c utee_cryp_obj_generate_key
0000000000001714 g     F .text	0000000000000044 TEE_CloseTASession
000000000000d624 g     F .text	0000000000000024 free
000000000000caf8 g     F .text	0000000000000114 bstats
00000000000204b0 g     O .bss	0000000000000008 mbedtls_mpi_mempool



Disassembly of section .text:

0000000000000020 <memcpy>:
memcpy():
/home/scm4818/optee_project/optee_os/lib/libutils/isoc/newlib/memcpy.c:106
      20:	f1007c5f 	cmp	x2, #0x1f
      24:	54000669 	b.ls	f0 <memcpy+0xd0>  // b.plast
/home/scm4818/optee_project/optee_os/lib/libutils/isoc/newlib/memcpy.c:106 (discriminator 1)
      28:	aa000023 	orr	x3, x1, x0
      2c:	f240087f 	tst	x3, #0x7
      30:	54000681 	b.ne	100 <memcpy+0xe0>  // b.any
      34:	d1008047 	sub	x7, x2, #0x20
/home/scm4818/optee_project/optee_os/lib/libutils/isoc/newlib/memcpy.c:108
      38:	aa0103e4 	mov	x4, x1
      3c:	927be8e7 	and	x7, x7, #0xffffffffffffffe0
/home/scm4818/optee_project/optee_os/lib/libutils/isoc/newlib/memcpy.c:107
      40:	aa0003e3 	mov	x3, x0
      44:	910080e7 	add	x7, x7, #0x20
      48:	8b070006 	add	x6, x0, x7
      4c:	d503201f 	nop
/home/scm4818/optee_project/optee_os/lib/libutils/isoc/newlib/memcpy.c:112
      50:	f9400085 	ldr	x5, [x4]
      54:	f9000065 	str	x5, [x3]
/home/scm4818/optee_project/optee_os/lib/libutils/isoc/newlib/memcpy.c:113
      58:	91008084 	add	x4, x4, #0x20
      5c:	91008063 	add	x3, x3, #0x20
      60:	f85e8085 	ldur	x5, [x4, #-24]
      64:	f81e8065 	stur	x5, [x3, #-24]
/home/scm4818/optee_project/optee_os/lib/libutils/isoc/newlib/memcpy.c:114
      68:	f85f0085 	ldur	x5, [x4, #-16]
      6c:	f81f0065 	stur	x5, [x3, #-16]
/home/scm4818/optee_project/optee_os/lib/libutils/isoc/newlib/memcpy.c:111
      70:	eb0300df 	cmp	x6, x3
/home/scm4818/optee_project/optee_os/lib/libutils/isoc/newlib/memcpy.c:115
      74:	f85f8085 	ldur	x5, [x4, #-8]
      78:	f81f8065 	stur	x5, [x3, #-8]
/home/scm4818/optee_project/optee_os/lib/libutils/isoc/newlib/memcpy.c:111
      7c:	54fffea1 	b.ne	50 <memcpy+0x30>  // b.any
      80:	8b070021 	add	x1, x1, x7
/home/scm4818/optee_project/optee_os/lib/libutils/isoc/newlib/memcpy.c:120
      84:	f27d045f 	tst	x2, #0x18
      88:	92401045 	and	x5, x2, #0x1f
      8c:	54000400 	b.eq	10c <memcpy+0xec>  // b.none
      90:	d2800004 	mov	x4, #0x0                   	// #0
/home/scm4818/optee_project/optee_os/lib/libutils/isoc/newlib/memcpy.c:121
      94:	f8646826 	ldr	x6, [x1, x4]
      98:	f8246866 	str	x6, [x3, x4]
/home/scm4818/optee_project/optee_os/lib/libutils/isoc/newlib/memcpy.c:122
      9c:	91002084 	add	x4, x4, #0x8
/home/scm4818/optee_project/optee_os/lib/libutils/isoc/newlib/memcpy.c:120
      a0:	cb0400a6 	sub	x6, x5, x4
      a4:	f1001cdf 	cmp	x6, #0x7
      a8:	54ffff68 	b.hi	94 <memcpy+0x74>  // b.pmore
      ac:	d10020a4 	sub	x4, x5, #0x8
      b0:	92400842 	and	x2, x2, #0x7
      b4:	927df084 	and	x4, x4, #0xfffffffffffffff8
/home/scm4818/optee_project/optee_os/lib/libutils/isoc/newlib/memcpy.c:130
      b8:	d1000445 	sub	x5, x2, #0x1
      bc:	91002084 	add	x4, x4, #0x8
      c0:	8b040063 	add	x3, x3, x4
      c4:	8b040021 	add	x1, x1, x4
      c8:	b4000122 	cbz	x2, ec <memcpy+0xcc>
      cc:	d503201f 	nop
/home/scm4818/optee_project/optee_os/lib/libutils/isoc/newlib/memcpy.c:99
      d0:	d2800002 	mov	x2, #0x0                   	// #0
      d4:	d503201f 	nop
/home/scm4818/optee_project/optee_os/lib/libutils/isoc/newlib/memcpy.c:131
      d8:	38626824 	ldrb	w4, [x1, x2]
/home/scm4818/optee_project/optee_os/lib/libutils/isoc/newlib/memcpy.c:130
      dc:	eb0200bf 	cmp	x5, x2
/home/scm4818/optee_project/optee_os/lib/libutils/isoc/newlib/memcpy.c:131
      e0:	38226864 	strb	w4, [x3, x2]
      e4:	91000442 	add	x2, x2, #0x1
/home/scm4818/optee_project/optee_os/lib/libutils/isoc/newlib/memcpy.c:130
      e8:	54ffff81 	b.ne	d8 <memcpy+0xb8>  // b.any
/home/scm4818/optee_project/optee_os/lib/libutils/isoc/newlib/memcpy.c:135
      ec:	d65f03c0 	ret
/home/scm4818/optee_project/optee_os/lib/libutils/isoc/newlib/memcpy.c:99
      f0:	aa0003e3 	mov	x3, x0
/home/scm4818/optee_project/optee_os/lib/libutils/isoc/newlib/memcpy.c:130
      f4:	d1000445 	sub	x5, x2, #0x1
      f8:	b5fffec2 	cbnz	x2, d0 <memcpy+0xb0>
/home/scm4818/optee_project/optee_os/lib/libutils/isoc/newlib/memcpy.c:135
      fc:	d65f03c0 	ret
/home/scm4818/optee_project/optee_os/lib/libutils/isoc/newlib/memcpy.c:130
     100:	d1000445 	sub	x5, x2, #0x1
/home/scm4818/optee_project/optee_os/lib/libutils/isoc/newlib/memcpy.c:99
     104:	aa0003e3 	mov	x3, x0
     108:	17fffff2 	b	d0 <memcpy+0xb0>
/home/scm4818/optee_project/optee_os/lib/libutils/isoc/newlib/memcpy.c:120
     10c:	aa0503e2 	mov	x2, x5
     110:	17fffff9 	b	f4 <memcpy+0xd4>

0000000000000114 <TA_CreateEntryPoint>:
TA_CreateEntryPoint():
/home/scm4818/optee_project/optee_examples/access_memory/ta/hello_world_ta.c:41
     114:	52800000 	mov	w0, #0x0                   	// #0
/home/scm4818/optee_project/optee_examples/access_memory/ta/hello_world_ta.c:42
     118:	d65f03c0 	ret

000000000000011c <TA_DestroyEntryPoint>:
TA_DestroyEntryPoint():
/home/scm4818/optee_project/optee_examples/access_memory/ta/hello_world_ta.c:51
     11c:	d503201f 	nop
     120:	d65f03c0 	ret

0000000000000124 <TA_OpenSessionEntryPoint>:
TA_OpenSessionEntryPoint():
/home/scm4818/optee_project/optee_examples/access_memory/ta/hello_world_ta.c:62
     124:	d100c3ff 	sub	sp, sp, #0x30
     128:	b9001fe0 	str	w0, [sp, #28]
     12c:	f9000be1 	str	x1, [sp, #16]
     130:	f90007e2 	str	x2, [sp, #8]
/home/scm4818/optee_project/optee_examples/access_memory/ta/hello_world_ta.c:63
     134:	b9002fff 	str	wzr, [sp, #44]
/home/scm4818/optee_project/optee_examples/access_memory/ta/hello_world_ta.c:70
     138:	b9401fe1 	ldr	w1, [sp, #28]
     13c:	b9402fe0 	ldr	w0, [sp, #44]
     140:	6b00003f 	cmp	w1, w0
     144:	54000060 	b.eq	150 <TA_OpenSessionEntryPoint+0x2c>  // b.none
/home/scm4818/optee_project/optee_examples/access_memory/ta/hello_world_ta.c:71
     148:	129fff20 	mov	w0, #0xffff0006            	// #-65530
     14c:	14000002 	b	154 <TA_OpenSessionEntryPoint+0x30>
/home/scm4818/optee_project/optee_examples/access_memory/ta/hello_world_ta.c:84
     150:	52800000 	mov	w0, #0x0                   	// #0
/home/scm4818/optee_project/optee_examples/access_memory/ta/hello_world_ta.c:85
     154:	9100c3ff 	add	sp, sp, #0x30
     158:	d65f03c0 	ret

000000000000015c <TA_CloseSessionEntryPoint>:
TA_CloseSessionEntryPoint():
/home/scm4818/optee_project/optee_examples/access_memory/ta/hello_world_ta.c:92
     15c:	d10043ff 	sub	sp, sp, #0x10
     160:	f90007e0 	str	x0, [sp, #8]
/home/scm4818/optee_project/optee_examples/access_memory/ta/hello_world_ta.c:95
     164:	d503201f 	nop
     168:	910043ff 	add	sp, sp, #0x10
     16c:	d65f03c0 	ret

0000000000000170 <inc_value>:
inc_value():
/home/scm4818/optee_project/optee_examples/access_memory/ta/hello_world_ta.c:99
     170:	d10083ff 	sub	sp, sp, #0x20
     174:	b9000fe0 	str	w0, [sp, #12]
     178:	f90003e1 	str	x1, [sp]
/home/scm4818/optee_project/optee_examples/access_memory/ta/hello_world_ta.c:100
     17c:	52800060 	mov	w0, #0x3                   	// #3
     180:	b9001fe0 	str	w0, [sp, #28]
/home/scm4818/optee_project/optee_examples/access_memory/ta/hello_world_ta.c:107
     184:	b9400fe1 	ldr	w1, [sp, #12]
     188:	b9401fe0 	ldr	w0, [sp, #28]
     18c:	6b00003f 	cmp	w1, w0
     190:	54000060 	b.eq	19c <inc_value+0x2c>  // b.none
/home/scm4818/optee_project/optee_examples/access_memory/ta/hello_world_ta.c:108
     194:	129fff20 	mov	w0, #0xffff0006            	// #-65530
     198:	14000007 	b	1b4 <inc_value+0x44>
/home/scm4818/optee_project/optee_examples/access_memory/ta/hello_world_ta.c:111
     19c:	f94003e0 	ldr	x0, [sp]
     1a0:	b9400000 	ldr	w0, [x0]
     1a4:	11000401 	add	w1, w0, #0x1
     1a8:	f94003e0 	ldr	x0, [sp]
     1ac:	b9000001 	str	w1, [x0]
/home/scm4818/optee_project/optee_examples/access_memory/ta/hello_world_ta.c:114
     1b0:	52800000 	mov	w0, #0x0                   	// #0
/home/scm4818/optee_project/optee_examples/access_memory/ta/hello_world_ta.c:115
     1b4:	910083ff 	add	sp, sp, #0x20
     1b8:	d65f03c0 	ret

00000000000001bc <dec_value>:
dec_value():
/home/scm4818/optee_project/optee_examples/access_memory/ta/hello_world_ta.c:119
     1bc:	d10083ff 	sub	sp, sp, #0x20
     1c0:	b9000fe0 	str	w0, [sp, #12]
     1c4:	f90003e1 	str	x1, [sp]
/home/scm4818/optee_project/optee_examples/access_memory/ta/hello_world_ta.c:120
     1c8:	52800060 	mov	w0, #0x3                   	// #3
     1cc:	b9001fe0 	str	w0, [sp, #28]
/home/scm4818/optee_project/optee_examples/access_memory/ta/hello_world_ta.c:127
     1d0:	b9400fe1 	ldr	w1, [sp, #12]
     1d4:	b9401fe0 	ldr	w0, [sp, #28]
     1d8:	6b00003f 	cmp	w1, w0
     1dc:	54000060 	b.eq	1e8 <dec_value+0x2c>  // b.none
/home/scm4818/optee_project/optee_examples/access_memory/ta/hello_world_ta.c:128
     1e0:	129fff20 	mov	w0, #0xffff0006            	// #-65530
     1e4:	14000007 	b	200 <dec_value+0x44>
/home/scm4818/optee_project/optee_examples/access_memory/ta/hello_world_ta.c:131
     1e8:	f94003e0 	ldr	x0, [sp]
     1ec:	b9400000 	ldr	w0, [x0]
     1f0:	51000401 	sub	w1, w0, #0x1
     1f4:	f94003e0 	ldr	x0, [sp]
     1f8:	b9000001 	str	w1, [x0]
/home/scm4818/optee_project/optee_examples/access_memory/ta/hello_world_ta.c:134
     1fc:	52800000 	mov	w0, #0x0                   	// #0
/home/scm4818/optee_project/optee_examples/access_memory/ta/hello_world_ta.c:135
     200:	910083ff 	add	sp, sp, #0x20
     204:	d65f03c0 	ret

0000000000000208 <convert>:
convert():
/home/scm4818/optee_project/optee_examples/access_memory/ta/hello_world_ta.c:139
     208:	d100c3ff 	sub	sp, sp, #0x30
     20c:	b9000fe0 	str	w0, [sp, #12]
     210:	f90003e1 	str	x1, [sp]
/home/scm4818/optee_project/optee_examples/access_memory/ta/hello_world_ta.c:140
     214:	528000e0 	mov	w0, #0x7                   	// #7
     218:	b9002be0 	str	w0, [sp, #40]
/home/scm4818/optee_project/optee_examples/access_memory/ta/hello_world_ta.c:147
     21c:	b9400fe1 	ldr	w1, [sp, #12]
     220:	b9402be0 	ldr	w0, [sp, #40]
     224:	6b00003f 	cmp	w1, w0
     228:	54000060 	b.eq	234 <convert+0x2c>  // b.none
/home/scm4818/optee_project/optee_examples/access_memory/ta/hello_world_ta.c:148
     22c:	129fff20 	mov	w0, #0xffff0006            	// #-65530
     230:	1400001b 	b	29c <convert+0x94>
/home/scm4818/optee_project/optee_examples/access_memory/ta/hello_world_ta.c:150
     234:	f94003e0 	ldr	x0, [sp]
     238:	f9400000 	ldr	x0, [x0]
     23c:	f90013e0 	str	x0, [sp, #32]
/home/scm4818/optee_project/optee_examples/access_memory/ta/hello_world_ta.c:151
     240:	f94003e0 	ldr	x0, [sp]
     244:	b9400800 	ldr	w0, [x0, #8]
     248:	b9001fe0 	str	w0, [sp, #28]
/home/scm4818/optee_project/optee_examples/access_memory/ta/hello_world_ta.c:154
     24c:	b9002fff 	str	wzr, [sp, #44]
     250:	1400000e 	b	288 <convert+0x80>
/home/scm4818/optee_project/optee_examples/access_memory/ta/hello_world_ta.c:155 (discriminator 3)
     254:	b9402fe0 	ldr	w0, [sp, #44]
     258:	f94013e1 	ldr	x1, [sp, #32]
     25c:	8b000020 	add	x0, x1, x0
     260:	39400001 	ldrb	w1, [x0]
     264:	b9402fe0 	ldr	w0, [sp, #44]
     268:	f94013e2 	ldr	x2, [sp, #32]
     26c:	8b000040 	add	x0, x2, x0
     270:	11000421 	add	w1, w1, #0x1
     274:	12001c21 	and	w1, w1, #0xff
     278:	39000001 	strb	w1, [x0]
/home/scm4818/optee_project/optee_examples/access_memory/ta/hello_world_ta.c:154 (discriminator 3)
     27c:	b9402fe0 	ldr	w0, [sp, #44]
     280:	11000400 	add	w0, w0, #0x1
     284:	b9002fe0 	str	w0, [sp, #44]
/home/scm4818/optee_project/optee_examples/access_memory/ta/hello_world_ta.c:154 (discriminator 1)
     288:	b9402fe1 	ldr	w1, [sp, #44]
     28c:	b9401fe0 	ldr	w0, [sp, #28]
     290:	6b00003f 	cmp	w1, w0
     294:	54fffe03 	b.cc	254 <convert+0x4c>  // b.lo, b.ul, b.last
/home/scm4818/optee_project/optee_examples/access_memory/ta/hello_world_ta.c:161
     298:	52800000 	mov	w0, #0x0                   	// #0
/home/scm4818/optee_project/optee_examples/access_memory/ta/hello_world_ta.c:162
     29c:	9100c3ff 	add	sp, sp, #0x30
     2a0:	d65f03c0 	ret

00000000000002a4 <TA_InvokeCommandEntryPoint>:
TA_InvokeCommandEntryPoint():
/home/scm4818/optee_project/optee_examples/access_memory/ta/hello_world_ta.c:171
     2a4:	a9bd7bfd 	stp	x29, x30, [sp, #-48]!
     2a8:	910003fd 	mov	x29, sp
     2ac:	f90017e0 	str	x0, [sp, #40]
     2b0:	b90027e1 	str	w1, [sp, #36]
     2b4:	b90023e2 	str	w2, [sp, #32]
     2b8:	f9000fe3 	str	x3, [sp, #24]
/home/scm4818/optee_project/optee_examples/access_memory/ta/hello_world_ta.c:174
     2bc:	b94027e0 	ldr	w0, [sp, #36]
     2c0:	7100041f 	cmp	w0, #0x1
     2c4:	54000180 	b.eq	2f4 <TA_InvokeCommandEntryPoint+0x50>  // b.none
     2c8:	b94027e0 	ldr	w0, [sp, #36]
     2cc:	7100001f 	cmp	w0, #0x0
     2d0:	540000a0 	b.eq	2e4 <TA_InvokeCommandEntryPoint+0x40>  // b.none
     2d4:	b94027e0 	ldr	w0, [sp, #36]
     2d8:	7100081f 	cmp	w0, #0x2
     2dc:	54000140 	b.eq	304 <TA_InvokeCommandEntryPoint+0x60>  // b.none
     2e0:	1400000d 	b	314 <TA_InvokeCommandEntryPoint+0x70>
/home/scm4818/optee_project/optee_examples/access_memory/ta/hello_world_ta.c:176
     2e4:	f9400fe1 	ldr	x1, [sp, #24]
     2e8:	b94023e0 	ldr	w0, [sp, #32]
     2ec:	97ffffa1 	bl	170 <inc_value>
     2f0:	1400000a 	b	318 <TA_InvokeCommandEntryPoint+0x74>
/home/scm4818/optee_project/optee_examples/access_memory/ta/hello_world_ta.c:178
     2f4:	f9400fe1 	ldr	x1, [sp, #24]
     2f8:	b94023e0 	ldr	w0, [sp, #32]
     2fc:	97ffffb0 	bl	1bc <dec_value>
     300:	14000006 	b	318 <TA_InvokeCommandEntryPoint+0x74>
/home/scm4818/optee_project/optee_examples/access_memory/ta/hello_world_ta.c:180
     304:	f9400fe1 	ldr	x1, [sp, #24]
     308:	b94023e0 	ldr	w0, [sp, #32]
     30c:	97ffffbf 	bl	208 <convert>
     310:	14000002 	b	318 <TA_InvokeCommandEntryPoint+0x74>
/home/scm4818/optee_project/optee_examples/access_memory/ta/hello_world_ta.c:182
     314:	129fff20 	mov	w0, #0xffff0006            	// #-65530
/home/scm4818/optee_project/optee_examples/access_memory/ta/hello_world_ta.c:184
     318:	a8c37bfd 	ldp	x29, x30, [sp], #48
     31c:	d65f03c0 	ret

0000000000000320 <__ta_entry>:
__ta_entry():
/home/scm4818/optee_project/optee_os/out/arm/export-ta_arm64/src/user_ta_header.c:47
     320:	a9bc7bfd 	stp	x29, x30, [sp, #-64]!
     324:	910003fd 	mov	x29, sp
     328:	f90017e0 	str	x0, [sp, #40]
     32c:	f90013e1 	str	x1, [sp, #32]
     330:	f9000fe2 	str	x2, [sp, #24]
     334:	f9000be3 	str	x3, [sp, #16]
/home/scm4818/optee_project/optee_os/out/arm/export-ta_arm64/src/user_ta_header.c:48
     338:	f9400be3 	ldr	x3, [sp, #16]
     33c:	f9400fe2 	ldr	x2, [sp, #24]
     340:	f94013e1 	ldr	x1, [sp, #32]
     344:	f94017e0 	ldr	x0, [sp, #40]
     348:	94000325 	bl	fdc <__utee_entry>
     34c:	b9003fe0 	str	w0, [sp, #60]
/home/scm4818/optee_project/optee_os/out/arm/export-ta_arm64/src/user_ta_header.c:59
     350:	b9403fe0 	ldr	w0, [sp, #60]
     354:	94000006 	bl	36c <utee_return>

0000000000000358 <tahead_get_trace_level>:
tahead_get_trace_level():
/home/scm4818/optee_project/optee_os/out/arm/export-ta_arm64/src/user_ta_header.c:148
     358:	52800020 	mov	w0, #0x1                   	// #1
/home/scm4818/optee_project/optee_os/out/arm/export-ta_arm64/src/user_ta_header.c:149
     35c:	d65f03c0 	ret

0000000000000360 <utee_panic>:
utee_panic():
/home/scm4818/optee_project/optee_os/lib/libutee/arch/arm/utee_syscalls_a64.S:41
     360:	a9bf7bfd 	stp	x29, x30, [sp, #-16]!
/home/scm4818/optee_project/optee_os/lib/libutee/arch/arm/utee_syscalls_a64.S:42
     364:	910003e1 	mov	x1, sp
/home/scm4818/optee_project/optee_os/lib/libutee/arch/arm/utee_syscalls_a64.S:43
     368:	94000007 	bl	384 <__utee_panic>

000000000000036c <utee_return>:
utee_return():
/home/scm4818/optee_project/optee_os/lib/libutee/arch/arm/utee_syscalls_asm.S:8
     36c:	d2800008 	mov	x8, #0x0                   	// #0
     370:	d4000001 	svc	#0x0
     374:	d65f03c0 	ret

0000000000000378 <utee_log>:
utee_log():
/home/scm4818/optee_project/optee_os/lib/libutee/arch/arm/utee_syscalls_asm.S:10
     378:	d2800028 	mov	x8, #0x1                   	// #1
     37c:	d4000001 	svc	#0x0
     380:	d65f03c0 	ret

0000000000000384 <__utee_panic>:
__utee_panic():
/home/scm4818/optee_project/optee_os/lib/libutee/arch/arm/utee_syscalls_asm.S:12
     384:	d2800048 	mov	x8, #0x2                   	// #2
     388:	d4000001 	svc	#0x0
     38c:	d65f03c0 	ret

0000000000000390 <utee_get_property>:
utee_get_property():
/home/scm4818/optee_project/optee_os/lib/libutee/arch/arm/utee_syscalls_asm.S:14
     390:	d2800068 	mov	x8, #0x3                   	// #3
     394:	d4000001 	svc	#0x0
     398:	d65f03c0 	ret

000000000000039c <utee_get_property_name_to_index>:
utee_get_property_name_to_index():
/home/scm4818/optee_project/optee_os/lib/libutee/arch/arm/utee_syscalls_asm.S:16
     39c:	d2800088 	mov	x8, #0x4                   	// #4
     3a0:	d4000001 	svc	#0x0
     3a4:	d65f03c0 	ret

00000000000003a8 <utee_open_ta_session>:
utee_open_ta_session():
/home/scm4818/optee_project/optee_os/lib/libutee/arch/arm/utee_syscalls_asm.S:19
     3a8:	d28000a8 	mov	x8, #0x5                   	// #5
     3ac:	d4000001 	svc	#0x0
     3b0:	d65f03c0 	ret

00000000000003b4 <utee_close_ta_session>:
utee_close_ta_session():
/home/scm4818/optee_project/optee_os/lib/libutee/arch/arm/utee_syscalls_asm.S:21
     3b4:	d28000c8 	mov	x8, #0x6                   	// #6
     3b8:	d4000001 	svc	#0x0
     3bc:	d65f03c0 	ret

00000000000003c0 <utee_invoke_ta_command>:
utee_invoke_ta_command():
/home/scm4818/optee_project/optee_os/lib/libutee/arch/arm/utee_syscalls_asm.S:23
     3c0:	d28000e8 	mov	x8, #0x7                   	// #7
     3c4:	d4000001 	svc	#0x0
     3c8:	d65f03c0 	ret

00000000000003cc <utee_get_cancellation_flag>:
utee_get_cancellation_flag():
/home/scm4818/optee_project/optee_os/lib/libutee/arch/arm/utee_syscalls_asm.S:25
     3cc:	d2800128 	mov	x8, #0x9                   	// #9
     3d0:	d4000001 	svc	#0x0
     3d4:	d65f03c0 	ret

00000000000003d8 <utee_check_access_rights>:
utee_check_access_rights():
/home/scm4818/optee_project/optee_os/lib/libutee/arch/arm/utee_syscalls_asm.S:28
     3d8:	d2800108 	mov	x8, #0x8                   	// #8
     3dc:	d4000001 	svc	#0x0
     3e0:	d65f03c0 	ret

00000000000003e4 <utee_unmask_cancellation>:
utee_unmask_cancellation():
/home/scm4818/optee_project/optee_os/lib/libutee/arch/arm/utee_syscalls_asm.S:30
     3e4:	d2800148 	mov	x8, #0xa                   	// #10
     3e8:	d4000001 	svc	#0x0
     3ec:	d65f03c0 	ret

00000000000003f0 <utee_mask_cancellation>:
utee_mask_cancellation():
/home/scm4818/optee_project/optee_os/lib/libutee/arch/arm/utee_syscalls_asm.S:32
     3f0:	d2800168 	mov	x8, #0xb                   	// #11
     3f4:	d4000001 	svc	#0x0
     3f8:	d65f03c0 	ret

00000000000003fc <utee_wait>:
utee_wait():
/home/scm4818/optee_project/optee_os/lib/libutee/arch/arm/utee_syscalls_asm.S:34
     3fc:	d2800188 	mov	x8, #0xc                   	// #12
     400:	d4000001 	svc	#0x0
     404:	d65f03c0 	ret

0000000000000408 <utee_get_time>:
utee_get_time():
/home/scm4818/optee_project/optee_os/lib/libutee/arch/arm/utee_syscalls_asm.S:36
     408:	d28001a8 	mov	x8, #0xd                   	// #13
     40c:	d4000001 	svc	#0x0
     410:	d65f03c0 	ret

0000000000000414 <utee_set_ta_time>:
utee_set_ta_time():
/home/scm4818/optee_project/optee_os/lib/libutee/arch/arm/utee_syscalls_asm.S:38
     414:	d28001c8 	mov	x8, #0xe                   	// #14
     418:	d4000001 	svc	#0x0
     41c:	d65f03c0 	ret

0000000000000420 <utee_cryp_state_alloc>:
utee_cryp_state_alloc():
/home/scm4818/optee_project/optee_os/lib/libutee/arch/arm/utee_syscalls_asm.S:40
     420:	d28001e8 	mov	x8, #0xf                   	// #15
     424:	d4000001 	svc	#0x0
     428:	d65f03c0 	ret

000000000000042c <utee_cryp_state_copy>:
utee_cryp_state_copy():
/home/scm4818/optee_project/optee_os/lib/libutee/arch/arm/utee_syscalls_asm.S:42
     42c:	d2800208 	mov	x8, #0x10                  	// #16
     430:	d4000001 	svc	#0x0
     434:	d65f03c0 	ret

0000000000000438 <utee_cryp_state_free>:
utee_cryp_state_free():
/home/scm4818/optee_project/optee_os/lib/libutee/arch/arm/utee_syscalls_asm.S:44
     438:	d2800228 	mov	x8, #0x11                  	// #17
     43c:	d4000001 	svc	#0x0
     440:	d65f03c0 	ret

0000000000000444 <utee_hash_init>:
utee_hash_init():
/home/scm4818/optee_project/optee_os/lib/libutee/arch/arm/utee_syscalls_asm.S:46
     444:	d2800248 	mov	x8, #0x12                  	// #18
     448:	d4000001 	svc	#0x0
     44c:	d65f03c0 	ret

0000000000000450 <utee_hash_update>:
utee_hash_update():
/home/scm4818/optee_project/optee_os/lib/libutee/arch/arm/utee_syscalls_asm.S:48
     450:	d2800268 	mov	x8, #0x13                  	// #19
     454:	d4000001 	svc	#0x0
     458:	d65f03c0 	ret

000000000000045c <utee_hash_final>:
utee_hash_final():
/home/scm4818/optee_project/optee_os/lib/libutee/arch/arm/utee_syscalls_asm.S:50
     45c:	d2800288 	mov	x8, #0x14                  	// #20
     460:	d4000001 	svc	#0x0
     464:	d65f03c0 	ret

0000000000000468 <utee_cipher_init>:
utee_cipher_init():
/home/scm4818/optee_project/optee_os/lib/libutee/arch/arm/utee_syscalls_asm.S:52
     468:	d28002a8 	mov	x8, #0x15                  	// #21
     46c:	d4000001 	svc	#0x0
     470:	d65f03c0 	ret

0000000000000474 <utee_cipher_update>:
utee_cipher_update():
/home/scm4818/optee_project/optee_os/lib/libutee/arch/arm/utee_syscalls_asm.S:54
     474:	d28002c8 	mov	x8, #0x16                  	// #22
     478:	d4000001 	svc	#0x0
     47c:	d65f03c0 	ret

0000000000000480 <utee_cipher_final>:
utee_cipher_final():
/home/scm4818/optee_project/optee_os/lib/libutee/arch/arm/utee_syscalls_asm.S:56
     480:	d28002e8 	mov	x8, #0x17                  	// #23
     484:	d4000001 	svc	#0x0
     488:	d65f03c0 	ret

000000000000048c <utee_cryp_obj_get_info>:
utee_cryp_obj_get_info():
/home/scm4818/optee_project/optee_os/lib/libutee/arch/arm/utee_syscalls_asm.S:58
     48c:	d2800308 	mov	x8, #0x18                  	// #24
     490:	d4000001 	svc	#0x0
     494:	d65f03c0 	ret

0000000000000498 <utee_cryp_obj_restrict_usage>:
utee_cryp_obj_restrict_usage():
/home/scm4818/optee_project/optee_os/lib/libutee/arch/arm/utee_syscalls_asm.S:60
     498:	d2800328 	mov	x8, #0x19                  	// #25
     49c:	d4000001 	svc	#0x0
     4a0:	d65f03c0 	ret

00000000000004a4 <utee_cryp_obj_get_attr>:
utee_cryp_obj_get_attr():
/home/scm4818/optee_project/optee_os/lib/libutee/arch/arm/utee_syscalls_asm.S:63
     4a4:	d2800348 	mov	x8, #0x1a                  	// #26
     4a8:	d4000001 	svc	#0x0
     4ac:	d65f03c0 	ret

00000000000004b0 <utee_cryp_obj_alloc>:
utee_cryp_obj_alloc():
/home/scm4818/optee_project/optee_os/lib/libutee/arch/arm/utee_syscalls_asm.S:65
     4b0:	d2800368 	mov	x8, #0x1b                  	// #27
     4b4:	d4000001 	svc	#0x0
     4b8:	d65f03c0 	ret

00000000000004bc <utee_cryp_obj_close>:
utee_cryp_obj_close():
/home/scm4818/optee_project/optee_os/lib/libutee/arch/arm/utee_syscalls_asm.S:67
     4bc:	d2800388 	mov	x8, #0x1c                  	// #28
     4c0:	d4000001 	svc	#0x0
     4c4:	d65f03c0 	ret

00000000000004c8 <utee_cryp_obj_reset>:
utee_cryp_obj_reset():
/home/scm4818/optee_project/optee_os/lib/libutee/arch/arm/utee_syscalls_asm.S:69
     4c8:	d28003a8 	mov	x8, #0x1d                  	// #29
     4cc:	d4000001 	svc	#0x0
     4d0:	d65f03c0 	ret

00000000000004d4 <utee_cryp_obj_populate>:
utee_cryp_obj_populate():
/home/scm4818/optee_project/optee_os/lib/libutee/arch/arm/utee_syscalls_asm.S:71
     4d4:	d28003c8 	mov	x8, #0x1e                  	// #30
     4d8:	d4000001 	svc	#0x0
     4dc:	d65f03c0 	ret

00000000000004e0 <utee_cryp_obj_copy>:
utee_cryp_obj_copy():
/home/scm4818/optee_project/optee_os/lib/libutee/arch/arm/utee_syscalls_asm.S:73
     4e0:	d28003e8 	mov	x8, #0x1f                  	// #31
     4e4:	d4000001 	svc	#0x0
     4e8:	d65f03c0 	ret

00000000000004ec <utee_cryp_derive_key>:
utee_cryp_derive_key():
/home/scm4818/optee_project/optee_os/lib/libutee/arch/arm/utee_syscalls_asm.S:75
     4ec:	d2800408 	mov	x8, #0x20                  	// #32
     4f0:	d4000001 	svc	#0x0
     4f4:	d65f03c0 	ret

00000000000004f8 <utee_cryp_random_number_generate>:
utee_cryp_random_number_generate():
/home/scm4818/optee_project/optee_os/lib/libutee/arch/arm/utee_syscalls_asm.S:77
     4f8:	d2800428 	mov	x8, #0x21                  	// #33
     4fc:	d4000001 	svc	#0x0
     500:	d65f03c0 	ret

0000000000000504 <utee_authenc_init>:
utee_authenc_init():
/home/scm4818/optee_project/optee_os/lib/libutee/arch/arm/utee_syscalls_asm.S:80
     504:	d2800448 	mov	x8, #0x22                  	// #34
     508:	d4000001 	svc	#0x0
     50c:	d65f03c0 	ret

0000000000000510 <utee_authenc_update_aad>:
utee_authenc_update_aad():
/home/scm4818/optee_project/optee_os/lib/libutee/arch/arm/utee_syscalls_asm.S:82
     510:	d2800468 	mov	x8, #0x23                  	// #35
     514:	d4000001 	svc	#0x0
     518:	d65f03c0 	ret

000000000000051c <utee_authenc_update_payload>:
utee_authenc_update_payload():
/home/scm4818/optee_project/optee_os/lib/libutee/arch/arm/utee_syscalls_asm.S:84
     51c:	d2800488 	mov	x8, #0x24                  	// #36
     520:	d4000001 	svc	#0x0
     524:	d65f03c0 	ret

0000000000000528 <utee_authenc_enc_final>:
utee_authenc_enc_final():
/home/scm4818/optee_project/optee_os/lib/libutee/arch/arm/utee_syscalls_asm.S:87
     528:	d28004a8 	mov	x8, #0x25                  	// #37
     52c:	d4000001 	svc	#0x0
     530:	d65f03c0 	ret

0000000000000534 <utee_authenc_dec_final>:
utee_authenc_dec_final():
/home/scm4818/optee_project/optee_os/lib/libutee/arch/arm/utee_syscalls_asm.S:89
     534:	d28004c8 	mov	x8, #0x26                  	// #38
     538:	d4000001 	svc	#0x0
     53c:	d65f03c0 	ret

0000000000000540 <utee_asymm_operate>:
utee_asymm_operate():
/home/scm4818/optee_project/optee_os/lib/libutee/arch/arm/utee_syscalls_asm.S:91
     540:	d28004e8 	mov	x8, #0x27                  	// #39
     544:	d4000001 	svc	#0x0
     548:	d65f03c0 	ret

000000000000054c <utee_asymm_verify>:
utee_asymm_verify():
/home/scm4818/optee_project/optee_os/lib/libutee/arch/arm/utee_syscalls_asm.S:93
     54c:	d2800508 	mov	x8, #0x28                  	// #40
     550:	d4000001 	svc	#0x0
     554:	d65f03c0 	ret

0000000000000558 <utee_storage_obj_open>:
utee_storage_obj_open():
/home/scm4818/optee_project/optee_os/lib/libutee/arch/arm/utee_syscalls_asm.S:95
     558:	d2800528 	mov	x8, #0x29                  	// #41
     55c:	d4000001 	svc	#0x0
     560:	d65f03c0 	ret

0000000000000564 <utee_storage_obj_create>:
utee_storage_obj_create():
/home/scm4818/optee_project/optee_os/lib/libutee/arch/arm/utee_syscalls_asm.S:97
     564:	d2800548 	mov	x8, #0x2a                  	// #42
     568:	d4000001 	svc	#0x0
     56c:	d65f03c0 	ret

0000000000000570 <utee_storage_obj_del>:
utee_storage_obj_del():
/home/scm4818/optee_project/optee_os/lib/libutee/arch/arm/utee_syscalls_asm.S:99
     570:	d2800568 	mov	x8, #0x2b                  	// #43
     574:	d4000001 	svc	#0x0
     578:	d65f03c0 	ret

000000000000057c <utee_storage_obj_rename>:
utee_storage_obj_rename():
/home/scm4818/optee_project/optee_os/lib/libutee/arch/arm/utee_syscalls_asm.S:101
     57c:	d2800588 	mov	x8, #0x2c                  	// #44
     580:	d4000001 	svc	#0x0
     584:	d65f03c0 	ret

0000000000000588 <utee_storage_alloc_enum>:
utee_storage_alloc_enum():
/home/scm4818/optee_project/optee_os/lib/libutee/arch/arm/utee_syscalls_asm.S:103
     588:	d28005a8 	mov	x8, #0x2d                  	// #45
     58c:	d4000001 	svc	#0x0
     590:	d65f03c0 	ret

0000000000000594 <utee_storage_free_enum>:
utee_storage_free_enum():
/home/scm4818/optee_project/optee_os/lib/libutee/arch/arm/utee_syscalls_asm.S:105
     594:	d28005c8 	mov	x8, #0x2e                  	// #46
     598:	d4000001 	svc	#0x0
     59c:	d65f03c0 	ret

00000000000005a0 <utee_storage_reset_enum>:
utee_storage_reset_enum():
/home/scm4818/optee_project/optee_os/lib/libutee/arch/arm/utee_syscalls_asm.S:107
     5a0:	d28005e8 	mov	x8, #0x2f                  	// #47
     5a4:	d4000001 	svc	#0x0
     5a8:	d65f03c0 	ret

00000000000005ac <utee_storage_start_enum>:
utee_storage_start_enum():
/home/scm4818/optee_project/optee_os/lib/libutee/arch/arm/utee_syscalls_asm.S:109
     5ac:	d2800608 	mov	x8, #0x30                  	// #48
     5b0:	d4000001 	svc	#0x0
     5b4:	d65f03c0 	ret

00000000000005b8 <utee_storage_next_enum>:
utee_storage_next_enum():
/home/scm4818/optee_project/optee_os/lib/libutee/arch/arm/utee_syscalls_asm.S:111
     5b8:	d2800628 	mov	x8, #0x31                  	// #49
     5bc:	d4000001 	svc	#0x0
     5c0:	d65f03c0 	ret

00000000000005c4 <utee_storage_obj_read>:
utee_storage_obj_read():
/home/scm4818/optee_project/optee_os/lib/libutee/arch/arm/utee_syscalls_asm.S:113
     5c4:	d2800648 	mov	x8, #0x32                  	// #50
     5c8:	d4000001 	svc	#0x0
     5cc:	d65f03c0 	ret

00000000000005d0 <utee_storage_obj_write>:
utee_storage_obj_write():
/home/scm4818/optee_project/optee_os/lib/libutee/arch/arm/utee_syscalls_asm.S:115
     5d0:	d2800668 	mov	x8, #0x33                  	// #51
     5d4:	d4000001 	svc	#0x0
     5d8:	d65f03c0 	ret

00000000000005dc <utee_storage_obj_trunc>:
utee_storage_obj_trunc():
/home/scm4818/optee_project/optee_os/lib/libutee/arch/arm/utee_syscalls_asm.S:117
     5dc:	d2800688 	mov	x8, #0x34                  	// #52
     5e0:	d4000001 	svc	#0x0
     5e4:	d65f03c0 	ret

00000000000005e8 <utee_storage_obj_seek>:
utee_storage_obj_seek():
/home/scm4818/optee_project/optee_os/lib/libutee/arch/arm/utee_syscalls_asm.S:119
     5e8:	d28006a8 	mov	x8, #0x35                  	// #53
     5ec:	d4000001 	svc	#0x0
     5f0:	d65f03c0 	ret

00000000000005f4 <utee_cryp_obj_generate_key>:
utee_cryp_obj_generate_key():
/home/scm4818/optee_project/optee_os/lib/libutee/arch/arm/utee_syscalls_asm.S:121
     5f4:	d28006c8 	mov	x8, #0x36                  	// #54
     5f8:	d4000001 	svc	#0x0
     5fc:	d65f03c0 	ret

0000000000000600 <utee_cache_operation>:
utee_cache_operation():
/home/scm4818/optee_project/optee_os/lib/libutee/arch/arm/utee_syscalls_asm.S:124
     600:	d28008c8 	mov	x8, #0x46                  	// #70
     604:	d4000001 	svc	#0x0
     608:	d65f03c0 	ret

000000000000060c <__utee_gprof_init>:
__utee_gprof_init():
/home/scm4818/optee_project/optee_os/lib/libutee/arch/arm/../../tee_api_private.h:23
     60c:	d503201f 	nop
     610:	d65f03c0 	ret

0000000000000614 <__utee_gprof_fini>:
__utee_gprof_fini():
/home/scm4818/optee_project/optee_os/lib/libutee/arch/arm/../../tee_api_private.h:24
     614:	d503201f 	nop
     618:	d65f03c0 	ret

000000000000061c <__utee_call_elf_init_fn>:
__utee_call_elf_init_fn():
/home/scm4818/optee_project/optee_os/lib/libutee/arch/arm/user_ta_entry.c:39
     61c:	a9bd7bfd 	stp	x29, x30, [sp, #-48]!
     620:	910003fd 	mov	x29, sp
/home/scm4818/optee_project/optee_os/lib/libutee/arch/arm/user_ta_entry.c:40
     624:	b00000a0 	adrp	x0, 15000 <_DYNAMIC>
     628:	f940b400 	ldr	x0, [x0, #360]
     62c:	79400800 	ldrh	w0, [x0, #4]
     630:	92403c00 	and	x0, x0, #0xffff
     634:	f9000fe0 	str	x0, [sp, #24]
/home/scm4818/optee_project/optee_os/lib/libutee/arch/arm/user_ta_entry.c:41
     638:	f90017ff 	str	xzr, [sp, #40]
/home/scm4818/optee_project/optee_os/lib/libutee/arch/arm/user_ta_entry.c:42
     63c:	f90013ff 	str	xzr, [sp, #32]
/home/scm4818/optee_project/optee_os/lib/libutee/arch/arm/user_ta_entry.c:44
     640:	d2800020 	mov	x0, #0x1                   	// #1
     644:	f90017e0 	str	x0, [sp, #40]
     648:	1400002c 	b	6f8 <__utee_call_elf_init_fn+0xdc>
/home/scm4818/optee_project/optee_os/lib/libutee/arch/arm/user_ta_entry.c:46
     64c:	b00000a0 	adrp	x0, 15000 <_DYNAMIC>
     650:	f940b400 	ldr	x0, [x0, #360]
     654:	f9400402 	ldr	x2, [x0, #8]
     658:	f9400fe1 	ldr	x1, [sp, #24]
     65c:	f94017e0 	ldr	x0, [sp, #40]
     660:	cb000021 	sub	x1, x1, x0
     664:	aa0103e0 	mov	x0, x1
     668:	d37ff800 	lsl	x0, x0, #1
     66c:	8b010000 	add	x0, x0, x1
     670:	d37df000 	lsl	x0, x0, #3
     674:	8b000040 	add	x0, x2, x0
     678:	f9000be0 	str	x0, [sp, #16]
/home/scm4818/optee_project/optee_os/lib/libutee/arch/arm/user_ta_entry.c:48
     67c:	f9400be0 	ldr	x0, [sp, #16]
     680:	b9400000 	ldr	w0, [x0]
     684:	121f0000 	and	w0, w0, #0x2
     688:	7100001f 	cmp	w0, #0x0
     68c:	54000261 	b.ne	6d8 <__utee_call_elf_init_fn+0xbc>  // b.any
/home/scm4818/optee_project/optee_os/lib/libutee/arch/arm/user_ta_entry.c:49
     690:	f90013ff 	str	xzr, [sp, #32]
     694:	1400000b 	b	6c0 <__utee_call_elf_init_fn+0xa4>
/home/scm4818/optee_project/optee_os/lib/libutee/arch/arm/user_ta_entry.c:50 (discriminator 3)
     698:	f9400be0 	ldr	x0, [sp, #16]
     69c:	f9400401 	ldr	x1, [x0, #8]
     6a0:	f94013e0 	ldr	x0, [sp, #32]
     6a4:	d37df000 	lsl	x0, x0, #3
     6a8:	8b000020 	add	x0, x1, x0
     6ac:	f9400000 	ldr	x0, [x0]
     6b0:	d63f0000 	blr	x0
/home/scm4818/optee_project/optee_os/lib/libutee/arch/arm/user_ta_entry.c:49 (discriminator 3)
     6b4:	f94013e0 	ldr	x0, [sp, #32]
     6b8:	91000400 	add	x0, x0, #0x1
     6bc:	f90013e0 	str	x0, [sp, #32]
/home/scm4818/optee_project/optee_os/lib/libutee/arch/arm/user_ta_entry.c:49 (discriminator 1)
     6c0:	f9400be0 	ldr	x0, [sp, #16]
     6c4:	79400800 	ldrh	w0, [x0, #4]
     6c8:	92403c00 	and	x0, x0, #0xffff
     6cc:	f94013e1 	ldr	x1, [sp, #32]
     6d0:	eb00003f 	cmp	x1, x0
     6d4:	54fffe23 	b.cc	698 <__utee_call_elf_init_fn+0x7c>  // b.lo, b.ul, b.last
/home/scm4818/optee_project/optee_os/lib/libutee/arch/arm/user_ta_entry.c:52 (discriminator 2)
     6d8:	f9400be0 	ldr	x0, [sp, #16]
     6dc:	b9400000 	ldr	w0, [x0]
     6e0:	321f0001 	orr	w1, w0, #0x2
     6e4:	f9400be0 	ldr	x0, [sp, #16]
     6e8:	b9000001 	str	w1, [x0]
/home/scm4818/optee_project/optee_os/lib/libutee/arch/arm/user_ta_entry.c:44 (discriminator 2)
     6ec:	f94017e0 	ldr	x0, [sp, #40]
     6f0:	91000400 	add	x0, x0, #0x1
     6f4:	f90017e0 	str	x0, [sp, #40]
/home/scm4818/optee_project/optee_os/lib/libutee/arch/arm/user_ta_entry.c:44 (discriminator 1)
     6f8:	f94017e1 	ldr	x1, [sp, #40]
     6fc:	f9400fe0 	ldr	x0, [sp, #24]
     700:	eb00003f 	cmp	x1, x0
     704:	54fffa49 	b.ls	64c <__utee_call_elf_init_fn+0x30>  // b.plast
/home/scm4818/optee_project/optee_os/lib/libutee/arch/arm/user_ta_entry.c:54
     708:	d503201f 	nop
     70c:	a8c37bfd 	ldp	x29, x30, [sp], #48
     710:	d65f03c0 	ret

0000000000000714 <__utee_call_elf_fini_fn>:
__utee_call_elf_fini_fn():
/home/scm4818/optee_project/optee_os/lib/libutee/arch/arm/user_ta_entry.c:57
     714:	a9bd7bfd 	stp	x29, x30, [sp, #-48]!
     718:	910003fd 	mov	x29, sp
/home/scm4818/optee_project/optee_os/lib/libutee/arch/arm/user_ta_entry.c:58
     71c:	b00000a0 	adrp	x0, 15000 <_DYNAMIC>
     720:	f940b400 	ldr	x0, [x0, #360]
     724:	79400800 	ldrh	w0, [x0, #4]
     728:	92403c00 	and	x0, x0, #0xffff
     72c:	f9000fe0 	str	x0, [sp, #24]
/home/scm4818/optee_project/optee_os/lib/libutee/arch/arm/user_ta_entry.c:59
     730:	f90017ff 	str	xzr, [sp, #40]
/home/scm4818/optee_project/optee_os/lib/libutee/arch/arm/user_ta_entry.c:60
     734:	f90013ff 	str	xzr, [sp, #32]
/home/scm4818/optee_project/optee_os/lib/libutee/arch/arm/user_ta_entry.c:62
     738:	f90017ff 	str	xzr, [sp, #40]
     73c:	1400002f 	b	7f8 <__utee_call_elf_fini_fn+0xe4>
/home/scm4818/optee_project/optee_os/lib/libutee/arch/arm/user_ta_entry.c:63
     740:	b00000a0 	adrp	x0, 15000 <_DYNAMIC>
     744:	f940b400 	ldr	x0, [x0, #360]
     748:	f9400402 	ldr	x2, [x0, #8]
     74c:	f94017e1 	ldr	x1, [sp, #40]
     750:	aa0103e0 	mov	x0, x1
     754:	d37ff800 	lsl	x0, x0, #1
     758:	8b010000 	add	x0, x0, x1
     75c:	d37df000 	lsl	x0, x0, #3
     760:	8b000040 	add	x0, x2, x0
     764:	f9000be0 	str	x0, [sp, #16]
/home/scm4818/optee_project/optee_os/lib/libutee/arch/arm/user_ta_entry.c:65
     768:	f9400be0 	ldr	x0, [sp, #16]
     76c:	b9400000 	ldr	w0, [x0]
     770:	121e0000 	and	w0, w0, #0x4
     774:	7100001f 	cmp	w0, #0x0
     778:	54000301 	b.ne	7d8 <__utee_call_elf_fini_fn+0xc4>  // b.any
/home/scm4818/optee_project/optee_os/lib/libutee/arch/arm/user_ta_entry.c:66
     77c:	d2800020 	mov	x0, #0x1                   	// #1
     780:	f90013e0 	str	x0, [sp, #32]
     784:	1400000f 	b	7c0 <__utee_call_elf_fini_fn+0xac>
/home/scm4818/optee_project/optee_os/lib/libutee/arch/arm/user_ta_entry.c:67 (discriminator 3)
     788:	f9400be0 	ldr	x0, [sp, #16]
     78c:	f9400801 	ldr	x1, [x0, #16]
     790:	f9400be0 	ldr	x0, [sp, #16]
     794:	79400c00 	ldrh	w0, [x0, #6]
     798:	92403c02 	and	x2, x0, #0xffff
     79c:	f94013e0 	ldr	x0, [sp, #32]
     7a0:	cb000040 	sub	x0, x2, x0
     7a4:	d37df000 	lsl	x0, x0, #3
     7a8:	8b000020 	add	x0, x1, x0
     7ac:	f9400000 	ldr	x0, [x0]
     7b0:	d63f0000 	blr	x0
/home/scm4818/optee_project/optee_os/lib/libutee/arch/arm/user_ta_entry.c:66 (discriminator 3)
     7b4:	f94013e0 	ldr	x0, [sp, #32]
     7b8:	91000400 	add	x0, x0, #0x1
     7bc:	f90013e0 	str	x0, [sp, #32]
/home/scm4818/optee_project/optee_os/lib/libutee/arch/arm/user_ta_entry.c:66 (discriminator 1)
     7c0:	f9400be0 	ldr	x0, [sp, #16]
     7c4:	79400c00 	ldrh	w0, [x0, #6]
     7c8:	92403c00 	and	x0, x0, #0xffff
     7cc:	f94013e1 	ldr	x1, [sp, #32]
     7d0:	eb00003f 	cmp	x1, x0
     7d4:	54fffda9 	b.ls	788 <__utee_call_elf_fini_fn+0x74>  // b.plast
/home/scm4818/optee_project/optee_os/lib/libutee/arch/arm/user_ta_entry.c:69 (discriminator 2)
     7d8:	f9400be0 	ldr	x0, [sp, #16]
     7dc:	b9400000 	ldr	w0, [x0]
     7e0:	321e0001 	orr	w1, w0, #0x4
     7e4:	f9400be0 	ldr	x0, [sp, #16]
     7e8:	b9000001 	str	w1, [x0]
/home/scm4818/optee_project/optee_os/lib/libutee/arch/arm/user_ta_entry.c:62 (discriminator 2)
     7ec:	f94017e0 	ldr	x0, [sp, #40]
     7f0:	91000400 	add	x0, x0, #0x1
     7f4:	f90017e0 	str	x0, [sp, #40]
/home/scm4818/optee_project/optee_os/lib/libutee/arch/arm/user_ta_entry.c:62 (discriminator 1)
     7f8:	f94017e1 	ldr	x1, [sp, #40]
     7fc:	f9400fe0 	ldr	x0, [sp, #24]
     800:	eb00003f 	cmp	x1, x0
     804:	54fff9e3 	b.cc	740 <__utee_call_elf_fini_fn+0x2c>  // b.lo, b.ul, b.last
/home/scm4818/optee_project/optee_os/lib/libutee/arch/arm/user_ta_entry.c:71
     808:	d503201f 	nop
     80c:	a8c37bfd 	ldp	x29, x30, [sp], #48
     810:	d65f03c0 	ret

0000000000000814 <init_instance>:
init_instance():
/home/scm4818/optee_project/optee_os/lib/libutee/arch/arm/user_ta_entry.c:74
     814:	a9bf7bfd 	stp	x29, x30, [sp, #-16]!
     818:	910003fd 	mov	x29, sp
/home/scm4818/optee_project/optee_os/lib/libutee/arch/arm/user_ta_entry.c:75
     81c:	97fffecf 	bl	358 <tahead_get_trace_level>
     820:	94003e8e 	bl	10258 <trace_set_level>
/home/scm4818/optee_project/optee_os/lib/libutee/arch/arm/user_ta_entry.c:76
     824:	97ffff7a 	bl	60c <__utee_gprof_init>
/home/scm4818/optee_project/optee_os/lib/libutee/arch/arm/user_ta_entry.c:77
     828:	b00000a0 	adrp	x0, 15000 <_DYNAMIC>
     82c:	f9409800 	ldr	x0, [x0, #304]
     830:	f9400000 	ldr	x0, [x0]
     834:	aa0003e1 	mov	x1, x0
     838:	b00000a0 	adrp	x0, 15000 <_DYNAMIC>
     83c:	f940ac00 	ldr	x0, [x0, #344]
     840:	9400348e 	bl	da78 <malloc_add_pool>
/home/scm4818/optee_project/optee_os/lib/libutee/arch/arm/user_ta_entry.c:78
     844:	94000572 	bl	1e0c <_TEE_MathAPI_Init>
/home/scm4818/optee_project/optee_os/lib/libutee/arch/arm/user_ta_entry.c:79
     848:	97ffff75 	bl	61c <__utee_call_elf_init_fn>
/home/scm4818/optee_project/optee_os/lib/libutee/arch/arm/user_ta_entry.c:80
     84c:	97fffe32 	bl	114 <TA_CreateEntryPoint>
/home/scm4818/optee_project/optee_os/lib/libutee/arch/arm/user_ta_entry.c:81
     850:	a8c17bfd 	ldp	x29, x30, [sp], #16
     854:	d65f03c0 	ret

0000000000000858 <uninit_instance>:
uninit_instance():
/home/scm4818/optee_project/optee_os/lib/libutee/arch/arm/user_ta_entry.c:84
     858:	a9bf7bfd 	stp	x29, x30, [sp, #-16]!
     85c:	910003fd 	mov	x29, sp
/home/scm4818/optee_project/optee_os/lib/libutee/arch/arm/user_ta_entry.c:85
     860:	97ffff6d 	bl	614 <__utee_gprof_fini>
/home/scm4818/optee_project/optee_os/lib/libutee/arch/arm/user_ta_entry.c:86
     864:	97fffe2e 	bl	11c <TA_DestroyEntryPoint>
/home/scm4818/optee_project/optee_os/lib/libutee/arch/arm/user_ta_entry.c:87
     868:	97ffffab 	bl	714 <__utee_call_elf_fini_fn>
/home/scm4818/optee_project/optee_os/lib/libutee/arch/arm/user_ta_entry.c:88
     86c:	d503201f 	nop
     870:	a8c17bfd 	ldp	x29, x30, [sp], #16
     874:	d65f03c0 	ret

0000000000000878 <ta_header_save_params>:
ta_header_save_params():
/home/scm4818/optee_project/optee_os/lib/libutee/arch/arm/user_ta_entry.c:92
     878:	a9be7bfd 	stp	x29, x30, [sp, #-32]!
     87c:	910003fd 	mov	x29, sp
     880:	b9001fe0 	str	w0, [sp, #28]
     884:	f9000be1 	str	x1, [sp, #16]
/home/scm4818/optee_project/optee_os/lib/libutee/arch/arm/user_ta_entry.c:93
     888:	b00000a0 	adrp	x0, 15000 <_DYNAMIC>
     88c:	f940b800 	ldr	x0, [x0, #368]
     890:	b9401fe1 	ldr	w1, [sp, #28]
     894:	b9000001 	str	w1, [x0]
/home/scm4818/optee_project/optee_os/lib/libutee/arch/arm/user_ta_entry.c:95
     898:	f9400be0 	ldr	x0, [sp, #16]
     89c:	f100001f 	cmp	x0, #0x0
     8a0:	540000e0 	b.eq	8bc <ta_header_save_params+0x44>  // b.none
/home/scm4818/optee_project/optee_os/lib/libutee/arch/arm/user_ta_entry.c:96
     8a4:	d2800802 	mov	x2, #0x40                  	// #64
     8a8:	f9400be1 	ldr	x1, [sp, #16]
     8ac:	b00000a0 	adrp	x0, 15000 <_DYNAMIC>
     8b0:	f940c000 	ldr	x0, [x0, #384]
     8b4:	97fffddb 	bl	20 <memcpy>
/home/scm4818/optee_project/optee_os/lib/libutee/arch/arm/user_ta_entry.c:99
     8b8:	14000006 	b	8d0 <ta_header_save_params+0x58>
/home/scm4818/optee_project/optee_os/lib/libutee/arch/arm/user_ta_entry.c:98
     8bc:	d2800802 	mov	x2, #0x40                  	// #64
     8c0:	52800001 	mov	w1, #0x0                   	// #0
     8c4:	b00000a0 	adrp	x0, 15000 <_DYNAMIC>
     8c8:	f940c000 	ldr	x0, [x0, #384]
     8cc:	9400355a 	bl	de34 <memset>
/home/scm4818/optee_project/optee_os/lib/libutee/arch/arm/user_ta_entry.c:99
     8d0:	d503201f 	nop
     8d4:	a8c27bfd 	ldp	x29, x30, [sp], #32
     8d8:	d65f03c0 	ret

00000000000008dc <ta_header_get_session>:
ta_header_get_session():
/home/scm4818/optee_project/optee_os/lib/libutee/arch/arm/user_ta_entry.c:102
     8dc:	d10083ff 	sub	sp, sp, #0x20
     8e0:	b9000fe0 	str	w0, [sp, #12]
/home/scm4818/optee_project/optee_os/lib/libutee/arch/arm/user_ta_entry.c:105
     8e4:	b00000a0 	adrp	x0, 15000 <_DYNAMIC>
     8e8:	910ea000 	add	x0, x0, #0x3a8
     8ec:	f9400000 	ldr	x0, [x0]
     8f0:	f9000fe0 	str	x0, [sp, #24]
     8f4:	1400000b 	b	920 <ta_header_get_session+0x44>
/home/scm4818/optee_project/optee_os/lib/libutee/arch/arm/user_ta_entry.c:106
     8f8:	f9400fe0 	ldr	x0, [sp, #24]
     8fc:	b9400000 	ldr	w0, [x0]
     900:	b9400fe1 	ldr	w1, [sp, #12]
     904:	6b00003f 	cmp	w1, w0
     908:	54000061 	b.ne	914 <ta_header_get_session+0x38>  // b.any
/home/scm4818/optee_project/optee_os/lib/libutee/arch/arm/user_ta_entry.c:107
     90c:	f9400fe0 	ldr	x0, [sp, #24]
     910:	14000008 	b	930 <ta_header_get_session+0x54>
/home/scm4818/optee_project/optee_os/lib/libutee/arch/arm/user_ta_entry.c:105 (discriminator 2)
     914:	f9400fe0 	ldr	x0, [sp, #24]
     918:	f9400800 	ldr	x0, [x0, #16]
     91c:	f9000fe0 	str	x0, [sp, #24]
/home/scm4818/optee_project/optee_os/lib/libutee/arch/arm/user_ta_entry.c:105 (discriminator 1)
     920:	f9400fe0 	ldr	x0, [sp, #24]
     924:	f100001f 	cmp	x0, #0x0
     928:	54fffe81 	b.ne	8f8 <ta_header_get_session+0x1c>  // b.any
/home/scm4818/optee_project/optee_os/lib/libutee/arch/arm/user_ta_entry.c:109
     92c:	d2800000 	mov	x0, #0x0                   	// #0
/home/scm4818/optee_project/optee_os/lib/libutee/arch/arm/user_ta_entry.c:110
     930:	910083ff 	add	sp, sp, #0x20
     934:	d65f03c0 	ret

0000000000000938 <ta_header_add_session>:
ta_header_add_session():
/home/scm4818/optee_project/optee_os/lib/libutee/arch/arm/user_ta_entry.c:113
     938:	a9bd7bfd 	stp	x29, x30, [sp, #-48]!
     93c:	910003fd 	mov	x29, sp
     940:	b9001fe0 	str	w0, [sp, #28]
/home/scm4818/optee_project/optee_os/lib/libutee/arch/arm/user_ta_entry.c:114
     944:	b9401fe0 	ldr	w0, [sp, #28]
     948:	97ffffe5 	bl	8dc <ta_header_get_session>
     94c:	f90017e0 	str	x0, [sp, #40]
/home/scm4818/optee_project/optee_os/lib/libutee/arch/arm/user_ta_entry.c:117
     950:	f94017e0 	ldr	x0, [sp, #40]
     954:	f100001f 	cmp	x0, #0x0
     958:	54000060 	b.eq	964 <ta_header_add_session+0x2c>  // b.none
/home/scm4818/optee_project/optee_os/lib/libutee/arch/arm/user_ta_entry.c:118
     95c:	52800000 	mov	w0, #0x0                   	// #0
     960:	14000033 	b	a2c <ta_header_add_session+0xf4>
/home/scm4818/optee_project/optee_os/lib/libutee/arch/arm/user_ta_entry.c:120
     964:	90000100 	adrp	x0, 20000 <data.4724+0x2b58>
     968:	9112e000 	add	x0, x0, #0x4b8
     96c:	39400000 	ldrb	w0, [x0]
     970:	52000000 	eor	w0, w0, #0x1
     974:	12001c00 	and	w0, w0, #0xff
     978:	7100001f 	cmp	w0, #0x0
     97c:	54000180 	b.eq	9ac <ta_header_add_session+0x74>  // b.none
/home/scm4818/optee_project/optee_os/lib/libutee/arch/arm/user_ta_entry.c:121
     980:	90000100 	adrp	x0, 20000 <data.4724+0x2b58>
     984:	9112e000 	add	x0, x0, #0x4b8
     988:	52800021 	mov	w1, #0x1                   	// #1
     98c:	39000001 	strb	w1, [x0]
/home/scm4818/optee_project/optee_os/lib/libutee/arch/arm/user_ta_entry.c:122
     990:	97ffffa1 	bl	814 <init_instance>
     994:	b90027e0 	str	w0, [sp, #36]
/home/scm4818/optee_project/optee_os/lib/libutee/arch/arm/user_ta_entry.c:123
     998:	b94027e0 	ldr	w0, [sp, #36]
     99c:	7100001f 	cmp	w0, #0x0
     9a0:	54000060 	b.eq	9ac <ta_header_add_session+0x74>  // b.none
/home/scm4818/optee_project/optee_os/lib/libutee/arch/arm/user_ta_entry.c:124
     9a4:	b94027e0 	ldr	w0, [sp, #36]
     9a8:	14000021 	b	a2c <ta_header_add_session+0xf4>
/home/scm4818/optee_project/optee_os/lib/libutee/arch/arm/user_ta_entry.c:127
     9ac:	52b00001 	mov	w1, #0x80000000            	// #-2147483648
     9b0:	52800400 	mov	w0, #0x20                  	// #32
     9b4:	940004a9 	bl	1c58 <TEE_Malloc>
     9b8:	f90017e0 	str	x0, [sp, #40]
/home/scm4818/optee_project/optee_os/lib/libutee/arch/arm/user_ta_entry.c:129
     9bc:	f94017e0 	ldr	x0, [sp, #40]
     9c0:	f100001f 	cmp	x0, #0x0
     9c4:	54000061 	b.ne	9d0 <ta_header_add_session+0x98>  // b.any
/home/scm4818/optee_project/optee_os/lib/libutee/arch/arm/user_ta_entry.c:130
     9c8:	129ffe60 	mov	w0, #0xffff000c            	// #-65524
     9cc:	14000018 	b	a2c <ta_header_add_session+0xf4>
/home/scm4818/optee_project/optee_os/lib/libutee/arch/arm/user_ta_entry.c:131
     9d0:	f94017e0 	ldr	x0, [sp, #40]
     9d4:	b9401fe1 	ldr	w1, [sp, #28]
     9d8:	b9000001 	str	w1, [x0]
/home/scm4818/optee_project/optee_os/lib/libutee/arch/arm/user_ta_entry.c:132
     9dc:	f94017e0 	ldr	x0, [sp, #40]
     9e0:	f900041f 	str	xzr, [x0, #8]
/home/scm4818/optee_project/optee_os/lib/libutee/arch/arm/user_ta_entry.c:133
     9e4:	f94017e0 	ldr	x0, [sp, #40]
     9e8:	f900081f 	str	xzr, [x0, #16]
     9ec:	b00000a0 	adrp	x0, 15000 <_DYNAMIC>
     9f0:	910ea000 	add	x0, x0, #0x3a8
     9f4:	f9400401 	ldr	x1, [x0, #8]
     9f8:	f94017e0 	ldr	x0, [sp, #40]
     9fc:	f9000c01 	str	x1, [x0, #24]
     a00:	b00000a0 	adrp	x0, 15000 <_DYNAMIC>
     a04:	910ea000 	add	x0, x0, #0x3a8
     a08:	f9400400 	ldr	x0, [x0, #8]
     a0c:	f94017e1 	ldr	x1, [sp, #40]
     a10:	f9000001 	str	x1, [x0]
     a14:	f94017e0 	ldr	x0, [sp, #40]
     a18:	91004001 	add	x1, x0, #0x10
     a1c:	b00000a0 	adrp	x0, 15000 <_DYNAMIC>
     a20:	910ea000 	add	x0, x0, #0x3a8
     a24:	f9000401 	str	x1, [x0, #8]
/home/scm4818/optee_project/optee_os/lib/libutee/arch/arm/user_ta_entry.c:135
     a28:	52800000 	mov	w0, #0x0                   	// #0
/home/scm4818/optee_project/optee_os/lib/libutee/arch/arm/user_ta_entry.c:136
     a2c:	a8c37bfd 	ldp	x29, x30, [sp], #48
     a30:	d65f03c0 	ret

0000000000000a34 <ta_header_remove_session>:
ta_header_remove_session():
/home/scm4818/optee_project/optee_os/lib/libutee/arch/arm/user_ta_entry.c:139
     a34:	a9bd7bfd 	stp	x29, x30, [sp, #-48]!
     a38:	910003fd 	mov	x29, sp
     a3c:	b9001fe0 	str	w0, [sp, #28]
/home/scm4818/optee_project/optee_os/lib/libutee/arch/arm/user_ta_entry.c:143
     a40:	b00000a0 	adrp	x0, 15000 <_DYNAMIC>
     a44:	910ea000 	add	x0, x0, #0x3a8
     a48:	f9400000 	ldr	x0, [x0]
     a4c:	f90017e0 	str	x0, [sp, #40]
     a50:	1400003e 	b	b48 <ta_header_remove_session+0x114>
/home/scm4818/optee_project/optee_os/lib/libutee/arch/arm/user_ta_entry.c:144
     a54:	f94017e0 	ldr	x0, [sp, #40]
     a58:	b9400000 	ldr	w0, [x0]
     a5c:	b9401fe1 	ldr	w1, [sp, #28]
     a60:	6b00003f 	cmp	w1, w0
     a64:	540006c1 	b.ne	b3c <ta_header_remove_session+0x108>  // b.any
/home/scm4818/optee_project/optee_os/lib/libutee/arch/arm/user_ta_entry.c:145
     a68:	f94017e0 	ldr	x0, [sp, #40]
     a6c:	f9400800 	ldr	x0, [x0, #16]
     a70:	f100001f 	cmp	x0, #0x0
     a74:	540000e0 	b.eq	a90 <ta_header_remove_session+0x5c>  // b.none
/home/scm4818/optee_project/optee_os/lib/libutee/arch/arm/user_ta_entry.c:145 (discriminator 1)
     a78:	f94017e0 	ldr	x0, [sp, #40]
     a7c:	f9400800 	ldr	x0, [x0, #16]
     a80:	f94017e1 	ldr	x1, [sp, #40]
     a84:	f9400c21 	ldr	x1, [x1, #24]
     a88:	f9000c01 	str	x1, [x0, #24]
     a8c:	14000006 	b	aa4 <ta_header_remove_session+0x70>
/home/scm4818/optee_project/optee_os/lib/libutee/arch/arm/user_ta_entry.c:145 (discriminator 2)
     a90:	f94017e0 	ldr	x0, [sp, #40]
     a94:	f9400c01 	ldr	x1, [x0, #24]
     a98:	b00000a0 	adrp	x0, 15000 <_DYNAMIC>
     a9c:	910ea000 	add	x0, x0, #0x3a8
     aa0:	f9000401 	str	x1, [x0, #8]
/home/scm4818/optee_project/optee_os/lib/libutee/arch/arm/user_ta_entry.c:145 (discriminator 4)
     aa4:	f94017e0 	ldr	x0, [sp, #40]
     aa8:	f9400c00 	ldr	x0, [x0, #24]
     aac:	f94017e1 	ldr	x1, [sp, #40]
     ab0:	f9400821 	ldr	x1, [x1, #16]
     ab4:	f9000001 	str	x1, [x0]
/home/scm4818/optee_project/optee_os/lib/libutee/arch/arm/user_ta_entry.c:146 (discriminator 4)
     ab8:	f94017e0 	ldr	x0, [sp, #40]
     abc:	94000490 	bl	1cfc <TEE_Free>
/home/scm4818/optee_project/optee_os/lib/libutee/arch/arm/user_ta_entry.c:149 (discriminator 4)
     ac0:	b00000a0 	adrp	x0, 15000 <_DYNAMIC>
     ac4:	f940c400 	ldr	x0, [x0, #392]
     ac8:	b9401400 	ldr	w0, [x0, #20]
     acc:	121e0000 	and	w0, w0, #0x4
     ad0:	7100001f 	cmp	w0, #0x0
     ad4:	54000120 	b.eq	af8 <ta_header_remove_session+0xc4>  // b.none
/home/scm4818/optee_project/optee_os/lib/libutee/arch/arm/user_ta_entry.c:150 (discriminator 1)
     ad8:	b00000a0 	adrp	x0, 15000 <_DYNAMIC>
     adc:	f940c400 	ldr	x0, [x0, #392]
     ae0:	b9401400 	ldr	w0, [x0, #20]
     ae4:	121c0000 	and	w0, w0, #0x10
/home/scm4818/optee_project/optee_os/lib/libutee/arch/arm/user_ta_entry.c:149 (discriminator 1)
     ae8:	7100001f 	cmp	w0, #0x0
     aec:	54000060 	b.eq	af8 <ta_header_remove_session+0xc4>  // b.none
/home/scm4818/optee_project/optee_os/lib/libutee/arch/arm/user_ta_entry.c:149 (discriminator 3)
     af0:	52800020 	mov	w0, #0x1                   	// #1
     af4:	14000002 	b	afc <ta_header_remove_session+0xc8>
/home/scm4818/optee_project/optee_os/lib/libutee/arch/arm/user_ta_entry.c:149 (discriminator 4)
     af8:	52800000 	mov	w0, #0x0                   	// #0
/home/scm4818/optee_project/optee_os/lib/libutee/arch/arm/user_ta_entry.c:148
     afc:	39009fe0 	strb	w0, [sp, #39]
     b00:	39409fe0 	ldrb	w0, [sp, #39]
     b04:	12000000 	and	w0, w0, #0x1
     b08:	39009fe0 	strb	w0, [sp, #39]
/home/scm4818/optee_project/optee_os/lib/libutee/arch/arm/user_ta_entry.c:151
     b0c:	b00000a0 	adrp	x0, 15000 <_DYNAMIC>
     b10:	910ea000 	add	x0, x0, #0x3a8
     b14:	f9400000 	ldr	x0, [x0]
     b18:	f100001f 	cmp	x0, #0x0
     b1c:	540001e1 	b.ne	b58 <ta_header_remove_session+0x124>  // b.any
/home/scm4818/optee_project/optee_os/lib/libutee/arch/arm/user_ta_entry.c:151 (discriminator 1)
     b20:	39409fe0 	ldrb	w0, [sp, #39]
     b24:	52000000 	eor	w0, w0, #0x1
     b28:	12001c00 	and	w0, w0, #0xff
     b2c:	7100001f 	cmp	w0, #0x0
     b30:	54000140 	b.eq	b58 <ta_header_remove_session+0x124>  // b.none
/home/scm4818/optee_project/optee_os/lib/libutee/arch/arm/user_ta_entry.c:152
     b34:	97ffff49 	bl	858 <uninit_instance>
/home/scm4818/optee_project/optee_os/lib/libutee/arch/arm/user_ta_entry.c:154
     b38:	14000008 	b	b58 <ta_header_remove_session+0x124>
/home/scm4818/optee_project/optee_os/lib/libutee/arch/arm/user_ta_entry.c:143 (discriminator 2)
     b3c:	f94017e0 	ldr	x0, [sp, #40]
     b40:	f9400800 	ldr	x0, [x0, #16]
     b44:	f90017e0 	str	x0, [sp, #40]
/home/scm4818/optee_project/optee_os/lib/libutee/arch/arm/user_ta_entry.c:143 (discriminator 1)
     b48:	f94017e0 	ldr	x0, [sp, #40]
     b4c:	f100001f 	cmp	x0, #0x0
     b50:	54fff821 	b.ne	a54 <ta_header_remove_session+0x20>  // b.any
     b54:	14000002 	b	b5c <ta_header_remove_session+0x128>
/home/scm4818/optee_project/optee_os/lib/libutee/arch/arm/user_ta_entry.c:154
     b58:	d503201f 	nop
/home/scm4818/optee_project/optee_os/lib/libutee/arch/arm/user_ta_entry.c:157
     b5c:	a8c37bfd 	ldp	x29, x30, [sp], #48
     b60:	d65f03c0 	ret

0000000000000b64 <to_utee_params>:
to_utee_params():
/home/scm4818/optee_project/optee_os/lib/libutee/arch/arm/user_ta_entry.c:161
     b64:	d100c3ff 	sub	sp, sp, #0x30
     b68:	f9000fe0 	str	x0, [sp, #24]
     b6c:	b90017e1 	str	w1, [sp, #20]
     b70:	f90007e2 	str	x2, [sp, #8]
/home/scm4818/optee_project/optee_os/lib/libutee/arch/arm/user_ta_entry.c:162
     b74:	f90017ff 	str	xzr, [sp, #40]
/home/scm4818/optee_project/optee_os/lib/libutee/arch/arm/user_ta_entry.c:164
     b78:	b94017e1 	ldr	w1, [sp, #20]
     b7c:	f9400fe0 	ldr	x0, [sp, #24]
     b80:	f9000001 	str	x1, [x0]
/home/scm4818/optee_project/optee_os/lib/libutee/arch/arm/user_ta_entry.c:165
     b84:	f90017ff 	str	xzr, [sp, #40]
     b88:	14000053 	b	cd4 <to_utee_params+0x170>
/home/scm4818/optee_project/optee_os/lib/libutee/arch/arm/user_ta_entry.c:166
     b8c:	f94017e0 	ldr	x0, [sp, #40]
     b90:	531e7400 	lsl	w0, w0, #2
     b94:	b94017e1 	ldr	w1, [sp, #20]
     b98:	1ac02420 	lsr	w0, w1, w0
     b9c:	12000c00 	and	w0, w0, #0xf
     ba0:	7100001f 	cmp	w0, #0x0
     ba4:	54000760 	b.eq	c90 <to_utee_params+0x12c>  // b.none
     ba8:	71000c1f 	cmp	w0, #0x3
     bac:	540000a9 	b.ls	bc0 <to_utee_params+0x5c>  // b.plast
     bb0:	51001400 	sub	w0, w0, #0x5
     bb4:	7100081f 	cmp	w0, #0x2
     bb8:	540006c8 	b.hi	c90 <to_utee_params+0x12c>  // b.pmore
     bbc:	1400001b 	b	c28 <to_utee_params+0xc4>
/home/scm4818/optee_project/optee_os/lib/libutee/arch/arm/user_ta_entry.c:170
     bc0:	f94017e0 	ldr	x0, [sp, #40]
     bc4:	d37cec00 	lsl	x0, x0, #4
     bc8:	f94007e1 	ldr	x1, [sp, #8]
     bcc:	8b000020 	add	x0, x1, x0
     bd0:	b9400001 	ldr	w1, [x0]
     bd4:	f94017e0 	ldr	x0, [sp, #40]
     bd8:	d37ff800 	lsl	x0, x0, #1
     bdc:	2a0103e1 	mov	w1, w1
     be0:	f9400fe2 	ldr	x2, [sp, #24]
     be4:	d37df000 	lsl	x0, x0, #3
     be8:	8b000040 	add	x0, x2, x0
     bec:	f9000401 	str	x1, [x0, #8]
/home/scm4818/optee_project/optee_os/lib/libutee/arch/arm/user_ta_entry.c:171
     bf0:	f94017e0 	ldr	x0, [sp, #40]
     bf4:	d37cec00 	lsl	x0, x0, #4
     bf8:	f94007e1 	ldr	x1, [sp, #8]
     bfc:	8b000020 	add	x0, x1, x0
     c00:	b9400401 	ldr	w1, [x0, #4]
     c04:	f94017e0 	ldr	x0, [sp, #40]
     c08:	d37ff800 	lsl	x0, x0, #1
     c0c:	91000400 	add	x0, x0, #0x1
     c10:	2a0103e1 	mov	w1, w1
     c14:	f9400fe2 	ldr	x2, [sp, #24]
     c18:	d37df000 	lsl	x0, x0, #3
     c1c:	8b000040 	add	x0, x2, x0
     c20:	f9000401 	str	x1, [x0, #8]
/home/scm4818/optee_project/optee_os/lib/libutee/arch/arm/user_ta_entry.c:172
     c24:	14000029 	b	cc8 <to_utee_params+0x164>
/home/scm4818/optee_project/optee_os/lib/libutee/arch/arm/user_ta_entry.c:176
     c28:	f94017e0 	ldr	x0, [sp, #40]
     c2c:	d37cec00 	lsl	x0, x0, #4
     c30:	f94007e1 	ldr	x1, [sp, #8]
     c34:	8b000020 	add	x0, x1, x0
     c38:	f9400001 	ldr	x1, [x0]
     c3c:	f94017e0 	ldr	x0, [sp, #40]
     c40:	d37ff800 	lsl	x0, x0, #1
     c44:	aa0103e2 	mov	x2, x1
     c48:	f9400fe1 	ldr	x1, [sp, #24]
     c4c:	d37df000 	lsl	x0, x0, #3
     c50:	8b000020 	add	x0, x1, x0
     c54:	f9000402 	str	x2, [x0, #8]
/home/scm4818/optee_project/optee_os/lib/libutee/arch/arm/user_ta_entry.c:177
     c58:	f94017e0 	ldr	x0, [sp, #40]
     c5c:	d37cec00 	lsl	x0, x0, #4
     c60:	f94007e1 	ldr	x1, [sp, #8]
     c64:	8b000020 	add	x0, x1, x0
     c68:	b9400801 	ldr	w1, [x0, #8]
     c6c:	f94017e0 	ldr	x0, [sp, #40]
     c70:	d37ff800 	lsl	x0, x0, #1
     c74:	91000400 	add	x0, x0, #0x1
     c78:	2a0103e1 	mov	w1, w1
     c7c:	f9400fe2 	ldr	x2, [sp, #24]
     c80:	d37df000 	lsl	x0, x0, #3
     c84:	8b000040 	add	x0, x2, x0
     c88:	f9000401 	str	x1, [x0, #8]
/home/scm4818/optee_project/optee_os/lib/libutee/arch/arm/user_ta_entry.c:178
     c8c:	1400000f 	b	cc8 <to_utee_params+0x164>
/home/scm4818/optee_project/optee_os/lib/libutee/arch/arm/user_ta_entry.c:180
     c90:	f94017e0 	ldr	x0, [sp, #40]
     c94:	d37ff800 	lsl	x0, x0, #1
     c98:	f9400fe1 	ldr	x1, [sp, #24]
     c9c:	d37df000 	lsl	x0, x0, #3
     ca0:	8b000020 	add	x0, x1, x0
     ca4:	f900041f 	str	xzr, [x0, #8]
/home/scm4818/optee_project/optee_os/lib/libutee/arch/arm/user_ta_entry.c:181
     ca8:	f94017e0 	ldr	x0, [sp, #40]
     cac:	d37ff800 	lsl	x0, x0, #1
     cb0:	91000400 	add	x0, x0, #0x1
     cb4:	f9400fe1 	ldr	x1, [sp, #24]
     cb8:	d37df000 	lsl	x0, x0, #3
     cbc:	8b000020 	add	x0, x1, x0
     cc0:	f900041f 	str	xzr, [x0, #8]
/home/scm4818/optee_project/optee_os/lib/libutee/arch/arm/user_ta_entry.c:182
     cc4:	d503201f 	nop
/home/scm4818/optee_project/optee_os/lib/libutee/arch/arm/user_ta_entry.c:165 (discriminator 2)
     cc8:	f94017e0 	ldr	x0, [sp, #40]
     ccc:	91000400 	add	x0, x0, #0x1
     cd0:	f90017e0 	str	x0, [sp, #40]
/home/scm4818/optee_project/optee_os/lib/libutee/arch/arm/user_ta_entry.c:165 (discriminator 1)
     cd4:	f94017e0 	ldr	x0, [sp, #40]
     cd8:	f1000c1f 	cmp	x0, #0x3
     cdc:	54fff589 	b.ls	b8c <to_utee_params+0x28>  // b.plast
/home/scm4818/optee_project/optee_os/lib/libutee/arch/arm/user_ta_entry.c:185
     ce0:	d503201f 	nop
     ce4:	9100c3ff 	add	sp, sp, #0x30
     ce8:	d65f03c0 	ret

0000000000000cec <from_utee_params>:
from_utee_params():
/home/scm4818/optee_project/optee_os/lib/libutee/arch/arm/user_ta_entry.c:190
     cec:	d10103ff 	sub	sp, sp, #0x40
     cf0:	f9000fe0 	str	x0, [sp, #24]
     cf4:	f9000be1 	str	x1, [sp, #16]
     cf8:	f90007e2 	str	x2, [sp, #8]
/home/scm4818/optee_project/optee_os/lib/libutee/arch/arm/user_ta_entry.c:192
     cfc:	f94007e0 	ldr	x0, [sp, #8]
     d00:	f9400000 	ldr	x0, [x0]
     d04:	b90037e0 	str	w0, [sp, #52]
/home/scm4818/optee_project/optee_os/lib/libutee/arch/arm/user_ta_entry.c:194
     d08:	f9001fff 	str	xzr, [sp, #56]
     d0c:	1400003b 	b	df8 <from_utee_params+0x10c>
/home/scm4818/optee_project/optee_os/lib/libutee/arch/arm/user_ta_entry.c:195
     d10:	f9401fe0 	ldr	x0, [sp, #56]
     d14:	d37ff800 	lsl	x0, x0, #1
     d18:	f94007e1 	ldr	x1, [sp, #8]
     d1c:	d37df000 	lsl	x0, x0, #3
     d20:	8b000020 	add	x0, x1, x0
     d24:	f9400400 	ldr	x0, [x0, #8]
     d28:	f90017e0 	str	x0, [sp, #40]
/home/scm4818/optee_project/optee_os/lib/libutee/arch/arm/user_ta_entry.c:196
     d2c:	f9401fe0 	ldr	x0, [sp, #56]
     d30:	d37ff800 	lsl	x0, x0, #1
     d34:	91000400 	add	x0, x0, #0x1
     d38:	f94007e1 	ldr	x1, [sp, #8]
     d3c:	d37df000 	lsl	x0, x0, #3
     d40:	8b000020 	add	x0, x1, x0
     d44:	f9400400 	ldr	x0, [x0, #8]
     d48:	f90013e0 	str	x0, [sp, #32]
/home/scm4818/optee_project/optee_os/lib/libutee/arch/arm/user_ta_entry.c:198
     d4c:	f9401fe0 	ldr	x0, [sp, #56]
     d50:	531e7400 	lsl	w0, w0, #2
     d54:	b94037e1 	ldr	w1, [sp, #52]
     d58:	1ac02420 	lsr	w0, w1, w0
     d5c:	12000c00 	and	w0, w0, #0xf
     d60:	7100001f 	cmp	w0, #0x0
     d64:	54000420 	b.eq	de8 <from_utee_params+0xfc>  // b.none
     d68:	71000c1f 	cmp	w0, #0x3
     d6c:	540000a9 	b.ls	d80 <from_utee_params+0x94>  // b.plast
     d70:	51001400 	sub	w0, w0, #0x5
     d74:	7100081f 	cmp	w0, #0x2
     d78:	54000388 	b.hi	de8 <from_utee_params+0xfc>  // b.pmore
     d7c:	1400000e 	b	db4 <from_utee_params+0xc8>
/home/scm4818/optee_project/optee_os/lib/libutee/arch/arm/user_ta_entry.c:202
     d80:	f9401fe0 	ldr	x0, [sp, #56]
     d84:	d37cec00 	lsl	x0, x0, #4
     d88:	f9400fe1 	ldr	x1, [sp, #24]
     d8c:	8b000020 	add	x0, x1, x0
     d90:	f94017e1 	ldr	x1, [sp, #40]
     d94:	b9000001 	str	w1, [x0]
/home/scm4818/optee_project/optee_os/lib/libutee/arch/arm/user_ta_entry.c:203
     d98:	f9401fe0 	ldr	x0, [sp, #56]
     d9c:	d37cec00 	lsl	x0, x0, #4
     da0:	f9400fe1 	ldr	x1, [sp, #24]
     da4:	8b000020 	add	x0, x1, x0
     da8:	f94013e1 	ldr	x1, [sp, #32]
     dac:	b9000401 	str	w1, [x0, #4]
/home/scm4818/optee_project/optee_os/lib/libutee/arch/arm/user_ta_entry.c:204
     db0:	1400000f 	b	dec <from_utee_params+0x100>
/home/scm4818/optee_project/optee_os/lib/libutee/arch/arm/user_ta_entry.c:208
     db4:	f9401fe0 	ldr	x0, [sp, #56]
     db8:	d37cec00 	lsl	x0, x0, #4
     dbc:	f9400fe1 	ldr	x1, [sp, #24]
     dc0:	8b000020 	add	x0, x1, x0
     dc4:	f94017e1 	ldr	x1, [sp, #40]
     dc8:	f9000001 	str	x1, [x0]
/home/scm4818/optee_project/optee_os/lib/libutee/arch/arm/user_ta_entry.c:209
     dcc:	f9401fe0 	ldr	x0, [sp, #56]
     dd0:	d37cec00 	lsl	x0, x0, #4
     dd4:	f9400fe1 	ldr	x1, [sp, #24]
     dd8:	8b000020 	add	x0, x1, x0
     ddc:	f94013e1 	ldr	x1, [sp, #32]
     de0:	b9000801 	str	w1, [x0, #8]
/home/scm4818/optee_project/optee_os/lib/libutee/arch/arm/user_ta_entry.c:210
     de4:	14000002 	b	dec <from_utee_params+0x100>
/home/scm4818/optee_project/optee_os/lib/libutee/arch/arm/user_ta_entry.c:212
     de8:	d503201f 	nop
/home/scm4818/optee_project/optee_os/lib/libutee/arch/arm/user_ta_entry.c:194 (discriminator 2)
     dec:	f9401fe0 	ldr	x0, [sp, #56]
     df0:	91000400 	add	x0, x0, #0x1
     df4:	f9001fe0 	str	x0, [sp, #56]
/home/scm4818/optee_project/optee_os/lib/libutee/arch/arm/user_ta_entry.c:194 (discriminator 1)
     df8:	f9401fe0 	ldr	x0, [sp, #56]
     dfc:	f1000c1f 	cmp	x0, #0x3
     e00:	54fff889 	b.ls	d10 <from_utee_params+0x24>  // b.plast
/home/scm4818/optee_project/optee_os/lib/libutee/arch/arm/user_ta_entry.c:216
     e04:	f9400be0 	ldr	x0, [sp, #16]
     e08:	f100001f 	cmp	x0, #0x0
     e0c:	54000080 	b.eq	e1c <from_utee_params+0x130>  // b.none
/home/scm4818/optee_project/optee_os/lib/libutee/arch/arm/user_ta_entry.c:217
     e10:	f9400be0 	ldr	x0, [sp, #16]
     e14:	b94037e1 	ldr	w1, [sp, #52]
     e18:	b9000001 	str	w1, [x0]
/home/scm4818/optee_project/optee_os/lib/libutee/arch/arm/user_ta_entry.c:218
     e1c:	d503201f 	nop
     e20:	910103ff 	add	sp, sp, #0x40
     e24:	d65f03c0 	ret

0000000000000e28 <entry_open_session>:
entry_open_session():
/home/scm4818/optee_project/optee_os/lib/libutee/arch/arm/user_ta_entry.c:222
     e28:	a9b87bfd 	stp	x29, x30, [sp, #-128]!
     e2c:	910003fd 	mov	x29, sp
     e30:	f9000fe0 	str	x0, [sp, #24]
     e34:	f9000be1 	str	x1, [sp, #16]
/home/scm4818/optee_project/optee_os/lib/libutee/arch/arm/user_ta_entry.c:228
     e38:	f9400fe0 	ldr	x0, [sp, #24]
     e3c:	97fffebf 	bl	938 <ta_header_add_session>
     e40:	b9007fe0 	str	w0, [sp, #124]
/home/scm4818/optee_project/optee_os/lib/libutee/arch/arm/user_ta_entry.c:229
     e44:	b9407fe0 	ldr	w0, [sp, #124]
     e48:	7100001f 	cmp	w0, #0x0
     e4c:	54000060 	b.eq	e58 <entry_open_session+0x30>  // b.none
/home/scm4818/optee_project/optee_os/lib/libutee/arch/arm/user_ta_entry.c:230
     e50:	b9407fe0 	ldr	w0, [sp, #124]
     e54:	14000025 	b	ee8 <entry_open_session+0xc0>
/home/scm4818/optee_project/optee_os/lib/libutee/arch/arm/user_ta_entry.c:232
     e58:	f9400fe0 	ldr	x0, [sp, #24]
     e5c:	97fffea0 	bl	8dc <ta_header_get_session>
     e60:	f9003be0 	str	x0, [sp, #112]
/home/scm4818/optee_project/optee_os/lib/libutee/arch/arm/user_ta_entry.c:233
     e64:	f9403be0 	ldr	x0, [sp, #112]
     e68:	f100001f 	cmp	x0, #0x0
     e6c:	54000061 	b.ne	e78 <entry_open_session+0x50>  // b.any
/home/scm4818/optee_project/optee_os/lib/libutee/arch/arm/user_ta_entry.c:234
     e70:	129fff00 	mov	w0, #0xffff0007            	// #-65529
     e74:	1400001d 	b	ee8 <entry_open_session+0xc0>
/home/scm4818/optee_project/optee_os/lib/libutee/arch/arm/user_ta_entry.c:236
     e78:	9101b3e1 	add	x1, sp, #0x6c
     e7c:	9100a3e0 	add	x0, sp, #0x28
     e80:	f9400be2 	ldr	x2, [sp, #16]
     e84:	97ffff9a 	bl	cec <from_utee_params>
/home/scm4818/optee_project/optee_os/lib/libutee/arch/arm/user_ta_entry.c:237
     e88:	b9406fe0 	ldr	w0, [sp, #108]
     e8c:	9100a3e1 	add	x1, sp, #0x28
     e90:	97fffe7a 	bl	878 <ta_header_save_params>
/home/scm4818/optee_project/optee_os/lib/libutee/arch/arm/user_ta_entry.c:239
     e94:	b9406fe3 	ldr	w3, [sp, #108]
     e98:	f9403be0 	ldr	x0, [sp, #112]
     e9c:	91002001 	add	x1, x0, #0x8
     ea0:	9100a3e0 	add	x0, sp, #0x28
     ea4:	aa0103e2 	mov	x2, x1
     ea8:	aa0003e1 	mov	x1, x0
     eac:	2a0303e0 	mov	w0, w3
     eb0:	97fffc9d 	bl	124 <TA_OpenSessionEntryPoint>
     eb4:	b9007fe0 	str	w0, [sp, #124]
/home/scm4818/optee_project/optee_os/lib/libutee/arch/arm/user_ta_entry.c:242
     eb8:	b9406fe0 	ldr	w0, [sp, #108]
     ebc:	9100a3e1 	add	x1, sp, #0x28
     ec0:	aa0103e2 	mov	x2, x1
     ec4:	2a0003e1 	mov	w1, w0
     ec8:	f9400be0 	ldr	x0, [sp, #16]
     ecc:	97ffff26 	bl	b64 <to_utee_params>
/home/scm4818/optee_project/optee_os/lib/libutee/arch/arm/user_ta_entry.c:244
     ed0:	b9407fe0 	ldr	w0, [sp, #124]
     ed4:	7100001f 	cmp	w0, #0x0
     ed8:	54000060 	b.eq	ee4 <entry_open_session+0xbc>  // b.none
/home/scm4818/optee_project/optee_os/lib/libutee/arch/arm/user_ta_entry.c:245
     edc:	f9400fe0 	ldr	x0, [sp, #24]
     ee0:	97fffed5 	bl	a34 <ta_header_remove_session>
/home/scm4818/optee_project/optee_os/lib/libutee/arch/arm/user_ta_entry.c:246
     ee4:	b9407fe0 	ldr	w0, [sp, #124]
/home/scm4818/optee_project/optee_os/lib/libutee/arch/arm/user_ta_entry.c:247 (discriminator 1)
     ee8:	a8c87bfd 	ldp	x29, x30, [sp], #128
     eec:	d65f03c0 	ret

0000000000000ef0 <entry_close_session>:
entry_close_session():
/home/scm4818/optee_project/optee_os/lib/libutee/arch/arm/user_ta_entry.c:250
     ef0:	a9bd7bfd 	stp	x29, x30, [sp, #-48]!
     ef4:	910003fd 	mov	x29, sp
     ef8:	f9000fe0 	str	x0, [sp, #24]
/home/scm4818/optee_project/optee_os/lib/libutee/arch/arm/user_ta_entry.c:251
     efc:	f9400fe0 	ldr	x0, [sp, #24]
     f00:	97fffe77 	bl	8dc <ta_header_get_session>
     f04:	f90017e0 	str	x0, [sp, #40]
/home/scm4818/optee_project/optee_os/lib/libutee/arch/arm/user_ta_entry.c:253
     f08:	f94017e0 	ldr	x0, [sp, #40]
     f0c:	f100001f 	cmp	x0, #0x0
     f10:	54000061 	b.ne	f1c <entry_close_session+0x2c>  // b.any
/home/scm4818/optee_project/optee_os/lib/libutee/arch/arm/user_ta_entry.c:254
     f14:	129fff00 	mov	w0, #0xffff0007            	// #-65529
     f18:	14000007 	b	f34 <entry_close_session+0x44>
/home/scm4818/optee_project/optee_os/lib/libutee/arch/arm/user_ta_entry.c:256
     f1c:	f94017e0 	ldr	x0, [sp, #40]
     f20:	f9400400 	ldr	x0, [x0, #8]
     f24:	97fffc8e 	bl	15c <TA_CloseSessionEntryPoint>
/home/scm4818/optee_project/optee_os/lib/libutee/arch/arm/user_ta_entry.c:258
     f28:	f9400fe0 	ldr	x0, [sp, #24]
     f2c:	97fffec2 	bl	a34 <ta_header_remove_session>
/home/scm4818/optee_project/optee_os/lib/libutee/arch/arm/user_ta_entry.c:259
     f30:	52800000 	mov	w0, #0x0                   	// #0
/home/scm4818/optee_project/optee_os/lib/libutee/arch/arm/user_ta_entry.c:260
     f34:	a8c37bfd 	ldp	x29, x30, [sp], #48
     f38:	d65f03c0 	ret

0000000000000f3c <entry_invoke_command>:
entry_invoke_command():
/home/scm4818/optee_project/optee_os/lib/libutee/arch/arm/user_ta_entry.c:264
     f3c:	a9b87bfd 	stp	x29, x30, [sp, #-128]!
     f40:	910003fd 	mov	x29, sp
     f44:	f90017e0 	str	x0, [sp, #40]
     f48:	f90013e1 	str	x1, [sp, #32]
     f4c:	f9000fe2 	str	x2, [sp, #24]
/home/scm4818/optee_project/optee_os/lib/libutee/arch/arm/user_ta_entry.c:268
     f50:	f94017e0 	ldr	x0, [sp, #40]
     f54:	97fffe62 	bl	8dc <ta_header_get_session>
     f58:	f9003fe0 	str	x0, [sp, #120]
/home/scm4818/optee_project/optee_os/lib/libutee/arch/arm/user_ta_entry.c:270
     f5c:	f9403fe0 	ldr	x0, [sp, #120]
     f60:	f100001f 	cmp	x0, #0x0
     f64:	54000061 	b.ne	f70 <entry_invoke_command+0x34>  // b.any
/home/scm4818/optee_project/optee_os/lib/libutee/arch/arm/user_ta_entry.c:271
     f68:	129fff00 	mov	w0, #0xffff0007            	// #-65529
     f6c:	1400001a 	b	fd4 <entry_invoke_command+0x98>
/home/scm4818/optee_project/optee_os/lib/libutee/arch/arm/user_ta_entry.c:273
     f70:	9101c3e1 	add	x1, sp, #0x70
     f74:	9100c3e0 	add	x0, sp, #0x30
     f78:	f94013e2 	ldr	x2, [sp, #32]
     f7c:	97ffff5c 	bl	cec <from_utee_params>
/home/scm4818/optee_project/optee_os/lib/libutee/arch/arm/user_ta_entry.c:274
     f80:	b94073e0 	ldr	w0, [sp, #112]
     f84:	9100c3e1 	add	x1, sp, #0x30
     f88:	97fffe3c 	bl	878 <ta_header_save_params>
/home/scm4818/optee_project/optee_os/lib/libutee/arch/arm/user_ta_entry.c:276
     f8c:	f9403fe0 	ldr	x0, [sp, #120]
     f90:	f9400400 	ldr	x0, [x0, #8]
     f94:	f9400fe1 	ldr	x1, [sp, #24]
     f98:	2a0103e4 	mov	w4, w1
     f9c:	b94073e1 	ldr	w1, [sp, #112]
     fa0:	9100c3e2 	add	x2, sp, #0x30
     fa4:	aa0203e3 	mov	x3, x2
     fa8:	2a0103e2 	mov	w2, w1
     fac:	2a0403e1 	mov	w1, w4
     fb0:	97fffcbd 	bl	2a4 <TA_InvokeCommandEntryPoint>
     fb4:	b90077e0 	str	w0, [sp, #116]
/home/scm4818/optee_project/optee_os/lib/libutee/arch/arm/user_ta_entry.c:279
     fb8:	b94073e0 	ldr	w0, [sp, #112]
     fbc:	9100c3e1 	add	x1, sp, #0x30
     fc0:	aa0103e2 	mov	x2, x1
     fc4:	2a0003e1 	mov	w1, w0
     fc8:	f94013e0 	ldr	x0, [sp, #32]
     fcc:	97fffee6 	bl	b64 <to_utee_params>
/home/scm4818/optee_project/optee_os/lib/libutee/arch/arm/user_ta_entry.c:280
     fd0:	b94077e0 	ldr	w0, [sp, #116]
/home/scm4818/optee_project/optee_os/lib/libutee/arch/arm/user_ta_entry.c:281 (discriminator 1)
     fd4:	a8c87bfd 	ldp	x29, x30, [sp], #128
     fd8:	d65f03c0 	ret

0000000000000fdc <__utee_entry>:
__utee_entry():
/home/scm4818/optee_project/optee_os/lib/libutee/arch/arm/user_ta_entry.c:285
     fdc:	a9bc7bfd 	stp	x29, x30, [sp, #-64]!
     fe0:	910003fd 	mov	x29, sp
     fe4:	f90017e0 	str	x0, [sp, #40]
     fe8:	f90013e1 	str	x1, [sp, #32]
     fec:	f9000fe2 	str	x2, [sp, #24]
     ff0:	f9000be3 	str	x3, [sp, #16]
     ff4:	f94017e0 	ldr	x0, [sp, #40]
     ff8:	f100041f 	cmp	x0, #0x1
     ffc:	540001a0 	b.eq	1030 <__utee_entry+0x54>  // b.none
    1000:	f94017e0 	ldr	x0, [sp, #40]
    1004:	f100001f 	cmp	x0, #0x0
    1008:	540000a0 	b.eq	101c <__utee_entry+0x40>  // b.none
    100c:	f94017e0 	ldr	x0, [sp, #40]
    1010:	f100081f 	cmp	x0, #0x2
    1014:	54000160 	b.eq	1040 <__utee_entry+0x64>  // b.none
    1018:	14000010 	b	1058 <__utee_entry+0x7c>
/home/scm4818/optee_project/optee_os/lib/libutee/arch/arm/user_ta_entry.c:290
    101c:	f9400fe1 	ldr	x1, [sp, #24]
    1020:	f94013e0 	ldr	x0, [sp, #32]
    1024:	97ffff81 	bl	e28 <entry_open_session>
    1028:	b9003fe0 	str	w0, [sp, #60]
/home/scm4818/optee_project/optee_os/lib/libutee/arch/arm/user_ta_entry.c:291
    102c:	14000010 	b	106c <__utee_entry+0x90>
/home/scm4818/optee_project/optee_os/lib/libutee/arch/arm/user_ta_entry.c:293
    1030:	f94013e0 	ldr	x0, [sp, #32]
    1034:	97ffffaf 	bl	ef0 <entry_close_session>
    1038:	b9003fe0 	str	w0, [sp, #60]
/home/scm4818/optee_project/optee_os/lib/libutee/arch/arm/user_ta_entry.c:294
    103c:	1400000c 	b	106c <__utee_entry+0x90>
/home/scm4818/optee_project/optee_os/lib/libutee/arch/arm/user_ta_entry.c:296
    1040:	f9400be2 	ldr	x2, [sp, #16]
    1044:	f9400fe1 	ldr	x1, [sp, #24]
    1048:	f94013e0 	ldr	x0, [sp, #32]
    104c:	97ffffbc 	bl	f3c <entry_invoke_command>
    1050:	b9003fe0 	str	w0, [sp, #60]
/home/scm4818/optee_project/optee_os/lib/libutee/arch/arm/user_ta_entry.c:297
    1054:	14000006 	b	106c <__utee_entry+0x90>
/home/scm4818/optee_project/optee_os/lib/libutee/arch/arm/user_ta_entry.c:299
    1058:	12800000 	mov	w0, #0xffffffff            	// #-1
    105c:	b9003fe0 	str	w0, [sp, #60]
/home/scm4818/optee_project/optee_os/lib/libutee/arch/arm/user_ta_entry.c:300
    1060:	52800000 	mov	w0, #0x0                   	// #0
    1064:	94000be0 	bl	3fe4 <TEE_Panic>
/home/scm4818/optee_project/optee_os/lib/libutee/arch/arm/user_ta_entry.c:301
    1068:	d503201f 	nop
/home/scm4818/optee_project/optee_os/lib/libutee/arch/arm/user_ta_entry.c:303
    106c:	d2800001 	mov	x1, #0x0                   	// #0
    1070:	52800000 	mov	w0, #0x0                   	// #0
    1074:	97fffe01 	bl	878 <ta_header_save_params>
/home/scm4818/optee_project/optee_os/lib/libutee/arch/arm/user_ta_entry.c:305
    1078:	b9403fe0 	ldr	w0, [sp, #60]
/home/scm4818/optee_project/optee_os/lib/libutee/arch/arm/user_ta_entry.c:306
    107c:	a8c47bfd 	ldp	x29, x30, [sp], #64
    1080:	d65f03c0 	ret

0000000000001084 <copy_param>:
copy_param():
/home/scm4818/optee_project/optee_os/lib/libutee/tee_api.c:23
    1084:	a9b87bfd 	stp	x29, x30, [sp, #-128]!
    1088:	910003fd 	mov	x29, sp
    108c:	f9001fe0 	str	x0, [sp, #56]
    1090:	b90037e1 	str	w1, [sp, #52]
    1094:	f90017e2 	str	x2, [sp, #40]
    1098:	f90013e3 	str	x3, [sp, #32]
    109c:	f9000fe4 	str	x4, [sp, #24]
    10a0:	f9000be5 	str	x5, [sp, #16]
/home/scm4818/optee_project/optee_os/lib/libutee/tee_api.c:24
    10a4:	f9003fff 	str	xzr, [sp, #120]
/home/scm4818/optee_project/optee_os/lib/libutee/tee_api.c:25
    10a8:	f9003bff 	str	xzr, [sp, #112]
/home/scm4818/optee_project/optee_os/lib/libutee/tee_api.c:26
    10ac:	f90037ff 	str	xzr, [sp, #104]
/home/scm4818/optee_project/optee_os/lib/libutee/tee_api.c:27
    10b0:	d2800200 	mov	x0, #0x10                  	// #16
    10b4:	f9002fe0 	str	x0, [sp, #88]
/home/scm4818/optee_project/optee_os/lib/libutee/tee_api.c:28
    10b8:	b9004bff 	str	wzr, [sp, #72]
/home/scm4818/optee_project/optee_os/lib/libutee/tee_api.c:29
    10bc:	f90033ff 	str	xzr, [sp, #96]
/home/scm4818/optee_project/optee_os/lib/libutee/tee_api.c:30
    10c0:	f9002bff 	str	xzr, [sp, #80]
/home/scm4818/optee_project/optee_os/lib/libutee/tee_api.c:31
    10c4:	52800020 	mov	w0, #0x1                   	// #1
    10c8:	b9004fe0 	str	w0, [sp, #76]
/home/scm4818/optee_project/optee_os/lib/libutee/tee_api.c:39
    10cc:	f94013e0 	ldr	x0, [sp, #32]
    10d0:	f900001f 	str	xzr, [x0]
/home/scm4818/optee_project/optee_os/lib/libutee/tee_api.c:40
    10d4:	f9400fe0 	ldr	x0, [sp, #24]
    10d8:	f900001f 	str	xzr, [x0]
/home/scm4818/optee_project/optee_os/lib/libutee/tee_api.c:41
    10dc:	f9003fff 	str	xzr, [sp, #120]
    10e0:	1400003d 	b	11d4 <copy_param+0x150>
/home/scm4818/optee_project/optee_os/lib/libutee/tee_api.c:42
    10e4:	f9403fe0 	ldr	x0, [sp, #120]
    10e8:	d37df000 	lsl	x0, x0, #3
    10ec:	f9400be1 	ldr	x1, [sp, #16]
    10f0:	8b000020 	add	x0, x1, x0
    10f4:	f900001f 	str	xzr, [x0]
/home/scm4818/optee_project/optee_os/lib/libutee/tee_api.c:43
    10f8:	f9403fe0 	ldr	x0, [sp, #120]
    10fc:	531e7400 	lsl	w0, w0, #2
    1100:	b94037e1 	ldr	w1, [sp, #52]
    1104:	1ac02420 	lsr	w0, w1, w0
    1108:	12000c00 	and	w0, w0, #0xf
    110c:	51001400 	sub	w0, w0, #0x5
    1110:	7100081f 	cmp	w0, #0x2
    1114:	54000548 	b.hi	11bc <copy_param+0x138>  // b.pmore
/home/scm4818/optee_project/optee_os/lib/libutee/tee_api.c:47
    1118:	f9403fe0 	ldr	x0, [sp, #120]
    111c:	d37cec00 	lsl	x0, x0, #4
    1120:	f94017e1 	ldr	x1, [sp, #40]
    1124:	8b000020 	add	x0, x1, x0
    1128:	f9400000 	ldr	x0, [x0]
    112c:	f90033e0 	str	x0, [sp, #96]
/home/scm4818/optee_project/optee_os/lib/libutee/tee_api.c:48
    1130:	f9403fe0 	ldr	x0, [sp, #120]
    1134:	d37cec00 	lsl	x0, x0, #4
    1138:	f94017e1 	ldr	x1, [sp, #40]
    113c:	8b000020 	add	x0, x1, x0
    1140:	b9400800 	ldr	w0, [x0, #8]
    1144:	2a0003e0 	mov	w0, w0
    1148:	f9002be0 	str	x0, [sp, #80]
/home/scm4818/optee_project/optee_os/lib/libutee/tee_api.c:58
    114c:	f94033e0 	ldr	x0, [sp, #96]
    1150:	f100001f 	cmp	x0, #0x0
    1154:	54000380 	b.eq	11c4 <copy_param+0x140>  // b.none
/home/scm4818/optee_project/optee_os/lib/libutee/tee_api.c:58 (discriminator 1)
    1158:	f9402be0 	ldr	x0, [sp, #80]
    115c:	f100001f 	cmp	x0, #0x0
    1160:	54000320 	b.eq	11c4 <copy_param+0x140>  // b.none
/home/scm4818/optee_project/optee_os/lib/libutee/tee_api.c:59 (discriminator 2)
    1164:	f9402be0 	ldr	x0, [sp, #80]
    1168:	2a0003e2 	mov	w2, w0
    116c:	f94033e1 	ldr	x1, [sp, #96]
    1170:	b9404fe0 	ldr	w0, [sp, #76]
    1174:	940001ff 	bl	1970 <TEE_CheckMemoryAccessRights>
/home/scm4818/optee_project/optee_os/lib/libutee/tee_api.c:58 (discriminator 2)
    1178:	7100001f 	cmp	w0, #0x0
    117c:	54000241 	b.ne	11c4 <copy_param+0x140>  // b.any
/home/scm4818/optee_project/optee_os/lib/libutee/tee_api.c:60
    1180:	f9403fe0 	ldr	x0, [sp, #120]
    1184:	910123e1 	add	x1, sp, #0x48
    1188:	52800022 	mov	w2, #0x1                   	// #1
    118c:	38206822 	strb	w2, [x1, x0]
/home/scm4818/optee_project/optee_os/lib/libutee/tee_api.c:61
    1190:	f9402fe1 	ldr	x1, [sp, #88]
    1194:	f9402be0 	ldr	x0, [sp, #80]
    1198:	8b000020 	add	x0, x1, x0
    119c:	d1000401 	sub	x1, x0, #0x1
    11a0:	f9402fe0 	ldr	x0, [sp, #88]
    11a4:	cb0003e0 	neg	x0, x0
    11a8:	8a000020 	and	x0, x1, x0
    11ac:	f94037e1 	ldr	x1, [sp, #104]
    11b0:	8b000020 	add	x0, x1, x0
    11b4:	f90037e0 	str	x0, [sp, #104]
/home/scm4818/optee_project/optee_os/lib/libutee/tee_api.c:63
    11b8:	14000003 	b	11c4 <copy_param+0x140>
/home/scm4818/optee_project/optee_os/lib/libutee/tee_api.c:65
    11bc:	d503201f 	nop
    11c0:	14000002 	b	11c8 <copy_param+0x144>
/home/scm4818/optee_project/optee_os/lib/libutee/tee_api.c:63
    11c4:	d503201f 	nop
/home/scm4818/optee_project/optee_os/lib/libutee/tee_api.c:41 (discriminator 2)
    11c8:	f9403fe0 	ldr	x0, [sp, #120]
    11cc:	91000400 	add	x0, x0, #0x1
    11d0:	f9003fe0 	str	x0, [sp, #120]
/home/scm4818/optee_project/optee_os/lib/libutee/tee_api.c:41 (discriminator 1)
    11d4:	f9403fe0 	ldr	x0, [sp, #120]
    11d8:	f1000c1f 	cmp	x0, #0x3
    11dc:	54fff849 	b.ls	10e4 <copy_param+0x60>  // b.plast
/home/scm4818/optee_project/optee_os/lib/libutee/tee_api.c:69
    11e0:	f94037e0 	ldr	x0, [sp, #104]
    11e4:	f100001f 	cmp	x0, #0x0
    11e8:	54000200 	b.eq	1228 <copy_param+0x1a4>  // b.none
/home/scm4818/optee_project/optee_os/lib/libutee/tee_api.c:70
    11ec:	52800081 	mov	w1, #0x4                   	// #4
    11f0:	f94037e0 	ldr	x0, [sp, #104]
    11f4:	94000bc0 	bl	40f4 <tee_map_zi>
    11f8:	f9003be0 	str	x0, [sp, #112]
/home/scm4818/optee_project/optee_os/lib/libutee/tee_api.c:71
    11fc:	f9403be0 	ldr	x0, [sp, #112]
    1200:	f100001f 	cmp	x0, #0x0
    1204:	54000061 	b.ne	1210 <copy_param+0x18c>  // b.any
/home/scm4818/optee_project/optee_os/lib/libutee/tee_api.c:72
    1208:	129ffe60 	mov	w0, #0xffff000c            	// #-65524
    120c:	14000090 	b	144c <copy_param+0x3c8>
/home/scm4818/optee_project/optee_os/lib/libutee/tee_api.c:73
    1210:	f94013e0 	ldr	x0, [sp, #32]
    1214:	f9403be1 	ldr	x1, [sp, #112]
    1218:	f9000001 	str	x1, [x0]
/home/scm4818/optee_project/optee_os/lib/libutee/tee_api.c:74
    121c:	f9400fe0 	ldr	x0, [sp, #24]
    1220:	f94037e1 	ldr	x1, [sp, #104]
    1224:	f9000001 	str	x1, [x0]
/home/scm4818/optee_project/optee_os/lib/libutee/tee_api.c:77
    1228:	b94037e1 	ldr	w1, [sp, #52]
    122c:	f9401fe0 	ldr	x0, [sp, #56]
    1230:	f9000001 	str	x1, [x0]
/home/scm4818/optee_project/optee_os/lib/libutee/tee_api.c:78
    1234:	f9003fff 	str	xzr, [sp, #120]
    1238:	14000081 	b	143c <copy_param+0x3b8>
/home/scm4818/optee_project/optee_os/lib/libutee/tee_api.c:79
    123c:	f9403fe0 	ldr	x0, [sp, #120]
    1240:	531e7400 	lsl	w0, w0, #2
    1244:	b94037e1 	ldr	w1, [sp, #52]
    1248:	1ac02420 	lsr	w0, w1, w0
    124c:	12000c00 	and	w0, w0, #0xf
    1250:	71000c1f 	cmp	w0, #0x3
    1254:	54000140 	b.eq	127c <copy_param+0x1f8>  // b.none
    1258:	71000c1f 	cmp	w0, #0x3
    125c:	54000088 	b.hi	126c <copy_param+0x1e8>  // b.pmore
    1260:	7100041f 	cmp	w0, #0x1
    1264:	540000c0 	b.eq	127c <copy_param+0x1f8>  // b.none
    1268:	14000064 	b	13f8 <copy_param+0x374>
    126c:	51001400 	sub	w0, w0, #0x5
    1270:	7100081f 	cmp	w0, #0x2
    1274:	54000c28 	b.hi	13f8 <copy_param+0x374>  // b.pmore
    1278:	1400001b 	b	12e4 <copy_param+0x260>
/home/scm4818/optee_project/optee_os/lib/libutee/tee_api.c:82
    127c:	f9403fe0 	ldr	x0, [sp, #120]
    1280:	d37cec00 	lsl	x0, x0, #4
    1284:	f94017e1 	ldr	x1, [sp, #40]
    1288:	8b000020 	add	x0, x1, x0
    128c:	b9400001 	ldr	w1, [x0]
    1290:	f9403fe0 	ldr	x0, [sp, #120]
    1294:	d37ff800 	lsl	x0, x0, #1
    1298:	2a0103e1 	mov	w1, w1
    129c:	f9401fe2 	ldr	x2, [sp, #56]
    12a0:	d37df000 	lsl	x0, x0, #3
    12a4:	8b000040 	add	x0, x2, x0
    12a8:	f9000401 	str	x1, [x0, #8]
/home/scm4818/optee_project/optee_os/lib/libutee/tee_api.c:83
    12ac:	f9403fe0 	ldr	x0, [sp, #120]
    12b0:	d37cec00 	lsl	x0, x0, #4
    12b4:	f94017e1 	ldr	x1, [sp, #40]
    12b8:	8b000020 	add	x0, x1, x0
    12bc:	b9400401 	ldr	w1, [x0, #4]
    12c0:	f9403fe0 	ldr	x0, [sp, #120]
    12c4:	d37ff800 	lsl	x0, x0, #1
    12c8:	91000400 	add	x0, x0, #0x1
    12cc:	2a0103e1 	mov	w1, w1
    12d0:	f9401fe2 	ldr	x2, [sp, #56]
    12d4:	d37df000 	lsl	x0, x0, #3
    12d8:	8b000040 	add	x0, x2, x0
    12dc:	f9000401 	str	x1, [x0, #8]
/home/scm4818/optee_project/optee_os/lib/libutee/tee_api.c:84
    12e0:	14000054 	b	1430 <copy_param+0x3ac>
/home/scm4818/optee_project/optee_os/lib/libutee/tee_api.c:88
    12e4:	f9403fe0 	ldr	x0, [sp, #120]
    12e8:	d37cec00 	lsl	x0, x0, #4
    12ec:	f94017e1 	ldr	x1, [sp, #40]
    12f0:	8b000020 	add	x0, x1, x0
    12f4:	b9400800 	ldr	w0, [x0, #8]
    12f8:	2a0003e0 	mov	w0, w0
    12fc:	f9002be0 	str	x0, [sp, #80]
/home/scm4818/optee_project/optee_os/lib/libutee/tee_api.c:89
    1300:	f9403fe0 	ldr	x0, [sp, #120]
    1304:	910123e1 	add	x1, sp, #0x48
    1308:	38606820 	ldrb	w0, [x1, x0]
    130c:	7100001f 	cmp	w0, #0x0
    1310:	54000480 	b.eq	13a0 <copy_param+0x31c>  // b.none
/home/scm4818/optee_project/optee_os/lib/libutee/tee_api.c:90
    1314:	f9403be0 	ldr	x0, [sp, #112]
    1318:	f90033e0 	str	x0, [sp, #96]
/home/scm4818/optee_project/optee_os/lib/libutee/tee_api.c:91
    131c:	f9403fe0 	ldr	x0, [sp, #120]
    1320:	d37df000 	lsl	x0, x0, #3
    1324:	f9400be1 	ldr	x1, [sp, #16]
    1328:	8b000020 	add	x0, x1, x0
    132c:	f9403be1 	ldr	x1, [sp, #112]
    1330:	f9000001 	str	x1, [x0]
/home/scm4818/optee_project/optee_os/lib/libutee/tee_api.c:92
    1334:	f9402fe1 	ldr	x1, [sp, #88]
    1338:	f9402be0 	ldr	x0, [sp, #80]
    133c:	8b000020 	add	x0, x1, x0
    1340:	d1000401 	sub	x1, x0, #0x1
    1344:	f9402fe0 	ldr	x0, [sp, #88]
    1348:	cb0003e0 	neg	x0, x0
    134c:	8a000020 	and	x0, x1, x0
    1350:	f9403be1 	ldr	x1, [sp, #112]
    1354:	8b000020 	add	x0, x1, x0
    1358:	f9003be0 	str	x0, [sp, #112]
/home/scm4818/optee_project/optee_os/lib/libutee/tee_api.c:93
    135c:	f9403fe0 	ldr	x0, [sp, #120]
    1360:	531e7400 	lsl	w0, w0, #2
    1364:	b94037e1 	ldr	w1, [sp, #52]
    1368:	1ac02420 	lsr	w0, w1, w0
    136c:	12000c00 	and	w0, w0, #0xf
    1370:	7100181f 	cmp	w0, #0x6
    1374:	54000220 	b.eq	13b8 <copy_param+0x334>  // b.none
/home/scm4818/optee_project/optee_os/lib/libutee/tee_api.c:95
    1378:	f9403fe0 	ldr	x0, [sp, #120]
    137c:	d37cec00 	lsl	x0, x0, #4
    1380:	f94017e1 	ldr	x1, [sp, #40]
    1384:	8b000020 	add	x0, x1, x0
    1388:	f9400000 	ldr	x0, [x0]
    138c:	f9402be2 	ldr	x2, [sp, #80]
    1390:	aa0003e1 	mov	x1, x0
    1394:	f94033e0 	ldr	x0, [sp, #96]
    1398:	97fffb22 	bl	20 <memcpy>
    139c:	14000007 	b	13b8 <copy_param+0x334>
/home/scm4818/optee_project/optee_os/lib/libutee/tee_api.c:97
    13a0:	f9403fe0 	ldr	x0, [sp, #120]
    13a4:	d37cec00 	lsl	x0, x0, #4
    13a8:	f94017e1 	ldr	x1, [sp, #40]
    13ac:	8b000020 	add	x0, x1, x0
    13b0:	f9400000 	ldr	x0, [x0]
    13b4:	f90033e0 	str	x0, [sp, #96]
/home/scm4818/optee_project/optee_os/lib/libutee/tee_api.c:99
    13b8:	f9403fe0 	ldr	x0, [sp, #120]
    13bc:	d37ff800 	lsl	x0, x0, #1
    13c0:	f94033e1 	ldr	x1, [sp, #96]
    13c4:	f9401fe2 	ldr	x2, [sp, #56]
    13c8:	d37df000 	lsl	x0, x0, #3
    13cc:	8b000040 	add	x0, x2, x0
    13d0:	f9000401 	str	x1, [x0, #8]
/home/scm4818/optee_project/optee_os/lib/libutee/tee_api.c:100
    13d4:	f9403fe0 	ldr	x0, [sp, #120]
    13d8:	d37ff800 	lsl	x0, x0, #1
    13dc:	91000400 	add	x0, x0, #0x1
    13e0:	f9401fe1 	ldr	x1, [sp, #56]
    13e4:	d37df000 	lsl	x0, x0, #3
    13e8:	8b000020 	add	x0, x1, x0
    13ec:	f9402be1 	ldr	x1, [sp, #80]
    13f0:	f9000401 	str	x1, [x0, #8]
/home/scm4818/optee_project/optee_os/lib/libutee/tee_api.c:101
    13f4:	1400000f 	b	1430 <copy_param+0x3ac>
/home/scm4818/optee_project/optee_os/lib/libutee/tee_api.c:103
    13f8:	f9403fe0 	ldr	x0, [sp, #120]
    13fc:	d37ff800 	lsl	x0, x0, #1
    1400:	f9401fe1 	ldr	x1, [sp, #56]
    1404:	d37df000 	lsl	x0, x0, #3
    1408:	8b000020 	add	x0, x1, x0
    140c:	f900041f 	str	xzr, [x0, #8]
/home/scm4818/optee_project/optee_os/lib/libutee/tee_api.c:104
    1410:	f9403fe0 	ldr	x0, [sp, #120]
    1414:	d37ff800 	lsl	x0, x0, #1
    1418:	91000400 	add	x0, x0, #0x1
    141c:	f9401fe1 	ldr	x1, [sp, #56]
    1420:	d37df000 	lsl	x0, x0, #3
    1424:	8b000020 	add	x0, x1, x0
    1428:	f900041f 	str	xzr, [x0, #8]
/home/scm4818/optee_project/optee_os/lib/libutee/tee_api.c:105
    142c:	d503201f 	nop
/home/scm4818/optee_project/optee_os/lib/libutee/tee_api.c:78 (discriminator 2)
    1430:	f9403fe0 	ldr	x0, [sp, #120]
    1434:	91000400 	add	x0, x0, #0x1
    1438:	f9003fe0 	str	x0, [sp, #120]
/home/scm4818/optee_project/optee_os/lib/libutee/tee_api.c:78 (discriminator 1)
    143c:	f9403fe0 	ldr	x0, [sp, #120]
    1440:	f1000c1f 	cmp	x0, #0x3
    1444:	54ffefc9 	b.ls	123c <copy_param+0x1b8>  // b.plast
/home/scm4818/optee_project/optee_os/lib/libutee/tee_api.c:109
    1448:	52800000 	mov	w0, #0x0                   	// #0
/home/scm4818/optee_project/optee_os/lib/libutee/tee_api.c:110 (discriminator 1)
    144c:	a8c87bfd 	ldp	x29, x30, [sp], #128
    1450:	d65f03c0 	ret

0000000000001454 <update_out_param>:
update_out_param():
/home/scm4818/optee_project/optee_os/lib/libutee/tee_api.c:115
    1454:	a9ba7bfd 	stp	x29, x30, [sp, #-96]!
    1458:	910003fd 	mov	x29, sp
    145c:	f90017e0 	str	x0, [sp, #40]
    1460:	f90013e1 	str	x1, [sp, #32]
    1464:	f9000fe2 	str	x2, [sp, #24]
/home/scm4818/optee_project/optee_os/lib/libutee/tee_api.c:117
    1468:	f9400fe0 	ldr	x0, [sp, #24]
    146c:	f9400000 	ldr	x0, [x0]
    1470:	b90057e0 	str	w0, [sp, #84]
/home/scm4818/optee_project/optee_os/lib/libutee/tee_api.c:119
    1474:	f9002fff 	str	xzr, [sp, #88]
    1478:	14000057 	b	15d4 <update_out_param+0x180>
/home/scm4818/optee_project/optee_os/lib/libutee/tee_api.c:120
    147c:	f9402fe0 	ldr	x0, [sp, #88]
    1480:	d37ff800 	lsl	x0, x0, #1
    1484:	f9400fe1 	ldr	x1, [sp, #24]
    1488:	d37df000 	lsl	x0, x0, #3
    148c:	8b000020 	add	x0, x1, x0
    1490:	f9400400 	ldr	x0, [x0, #8]
    1494:	f90027e0 	str	x0, [sp, #72]
/home/scm4818/optee_project/optee_os/lib/libutee/tee_api.c:121
    1498:	f9402fe0 	ldr	x0, [sp, #88]
    149c:	d37ff800 	lsl	x0, x0, #1
    14a0:	91000400 	add	x0, x0, #0x1
    14a4:	f9400fe1 	ldr	x1, [sp, #24]
    14a8:	d37df000 	lsl	x0, x0, #3
    14ac:	8b000020 	add	x0, x1, x0
    14b0:	f9400400 	ldr	x0, [x0, #8]
    14b4:	f90023e0 	str	x0, [sp, #64]
/home/scm4818/optee_project/optee_os/lib/libutee/tee_api.c:123
    14b8:	f9402fe0 	ldr	x0, [sp, #88]
    14bc:	531e7400 	lsl	w0, w0, #2
    14c0:	b94057e1 	ldr	w1, [sp, #84]
    14c4:	1ac02420 	lsr	w0, w1, w0
    14c8:	12000c00 	and	w0, w0, #0xf
    14cc:	7100081f 	cmp	w0, #0x2
    14d0:	540007a3 	b.cc	15c4 <update_out_param+0x170>  // b.lo, b.ul, b.last
    14d4:	71000c1f 	cmp	w0, #0x3
    14d8:	540000a9 	b.ls	14ec <update_out_param+0x98>  // b.plast
    14dc:	51001800 	sub	w0, w0, #0x6
    14e0:	7100041f 	cmp	w0, #0x1
    14e4:	54000708 	b.hi	15c4 <update_out_param+0x170>  // b.pmore
    14e8:	1400000e 	b	1520 <update_out_param+0xcc>
/home/scm4818/optee_project/optee_os/lib/libutee/tee_api.c:126
    14ec:	f9402fe0 	ldr	x0, [sp, #88]
    14f0:	d37cec00 	lsl	x0, x0, #4
    14f4:	f94017e1 	ldr	x1, [sp, #40]
    14f8:	8b000020 	add	x0, x1, x0
    14fc:	f94027e1 	ldr	x1, [sp, #72]
    1500:	b9000001 	str	w1, [x0]
/home/scm4818/optee_project/optee_os/lib/libutee/tee_api.c:127
    1504:	f9402fe0 	ldr	x0, [sp, #88]
    1508:	d37cec00 	lsl	x0, x0, #4
    150c:	f94017e1 	ldr	x1, [sp, #40]
    1510:	8b000020 	add	x0, x1, x0
    1514:	f94023e1 	ldr	x1, [sp, #64]
    1518:	b9000401 	str	w1, [x0, #4]
/home/scm4818/optee_project/optee_os/lib/libutee/tee_api.c:128
    151c:	1400002b 	b	15c8 <update_out_param+0x174>
/home/scm4818/optee_project/optee_os/lib/libutee/tee_api.c:131
    1520:	f9402fe0 	ldr	x0, [sp, #88]
    1524:	d37df000 	lsl	x0, x0, #3
    1528:	f94013e1 	ldr	x1, [sp, #32]
    152c:	8b000020 	add	x0, x1, x0
    1530:	f9400000 	ldr	x0, [x0]
    1534:	f100001f 	cmp	x0, #0x0
    1538:	54000380 	b.eq	15a8 <update_out_param+0x154>  // b.none
/home/scm4818/optee_project/optee_os/lib/libutee/tee_api.c:132
    153c:	f9402fe0 	ldr	x0, [sp, #88]
    1540:	d37cec00 	lsl	x0, x0, #4
    1544:	f94017e1 	ldr	x1, [sp, #40]
    1548:	8b000020 	add	x0, x1, x0
    154c:	f9400003 	ldr	x3, [x0]
    1550:	f9402fe0 	ldr	x0, [sp, #88]
    1554:	d37df000 	lsl	x0, x0, #3
    1558:	f94013e1 	ldr	x1, [sp, #32]
    155c:	8b000020 	add	x0, x1, x0
    1560:	f9400004 	ldr	x4, [x0]
/home/scm4818/optee_project/optee_os/lib/libutee/tee_api.c:133
    1564:	f94023e0 	ldr	x0, [sp, #64]
    1568:	f9001fe0 	str	x0, [sp, #56]
    156c:	f9402fe0 	ldr	x0, [sp, #88]
    1570:	d37cec00 	lsl	x0, x0, #4
    1574:	f94017e1 	ldr	x1, [sp, #40]
    1578:	8b000020 	add	x0, x1, x0
    157c:	b9400800 	ldr	w0, [x0, #8]
    1580:	b90037e0 	str	w0, [sp, #52]
    1584:	b94037e0 	ldr	w0, [sp, #52]
    1588:	f9401fe2 	ldr	x2, [sp, #56]
    158c:	f9401fe1 	ldr	x1, [sp, #56]
    1590:	eb00005f 	cmp	x2, x0
    1594:	9a809020 	csel	x0, x1, x0, ls  // ls = plast
/home/scm4818/optee_project/optee_os/lib/libutee/tee_api.c:132
    1598:	aa0003e2 	mov	x2, x0
    159c:	aa0403e1 	mov	x1, x4
    15a0:	aa0303e0 	mov	x0, x3
    15a4:	97fffa9f 	bl	20 <memcpy>
/home/scm4818/optee_project/optee_os/lib/libutee/tee_api.c:134
    15a8:	f9402fe0 	ldr	x0, [sp, #88]
    15ac:	d37cec00 	lsl	x0, x0, #4
    15b0:	f94017e1 	ldr	x1, [sp, #40]
    15b4:	8b000020 	add	x0, x1, x0
    15b8:	f94023e1 	ldr	x1, [sp, #64]
    15bc:	b9000801 	str	w1, [x0, #8]
/home/scm4818/optee_project/optee_os/lib/libutee/tee_api.c:135
    15c0:	14000002 	b	15c8 <update_out_param+0x174>
/home/scm4818/optee_project/optee_os/lib/libutee/tee_api.c:137
    15c4:	d503201f 	nop
/home/scm4818/optee_project/optee_os/lib/libutee/tee_api.c:119 (discriminator 2)
    15c8:	f9402fe0 	ldr	x0, [sp, #88]
    15cc:	91000400 	add	x0, x0, #0x1
    15d0:	f9002fe0 	str	x0, [sp, #88]
/home/scm4818/optee_project/optee_os/lib/libutee/tee_api.c:119 (discriminator 1)
    15d4:	f9402fe0 	ldr	x0, [sp, #88]
    15d8:	f1000c1f 	cmp	x0, #0x3
    15dc:	54fff509 	b.ls	147c <update_out_param+0x28>  // b.plast
/home/scm4818/optee_project/optee_os/lib/libutee/tee_api.c:140
    15e0:	d503201f 	nop
    15e4:	a8c67bfd 	ldp	x29, x30, [sp], #96
    15e8:	d65f03c0 	ret

00000000000015ec <TEE_OpenTASession>:
TEE_OpenTASession():
/home/scm4818/optee_project/optee_os/lib/libutee/tee_api.c:148
    15ec:	a9b37bfd 	stp	x29, x30, [sp, #-208]!
    15f0:	910003fd 	mov	x29, sp
    15f4:	f9001fe0 	str	x0, [sp, #56]
    15f8:	b90037e1 	str	w1, [sp, #52]
    15fc:	b90033e2 	str	w2, [sp, #48]
    1600:	f90017e3 	str	x3, [sp, #40]
    1604:	f90013e4 	str	x4, [sp, #32]
    1608:	f9000fe5 	str	x5, [sp, #24]
/home/scm4818/optee_project/optee_os/lib/libutee/tee_api.c:149
    160c:	b900cfff 	str	wzr, [sp, #204]
/home/scm4818/optee_project/optee_os/lib/libutee/tee_api.c:151
    1610:	b9007fff 	str	wzr, [sp, #124]
/home/scm4818/optee_project/optee_os/lib/libutee/tee_api.c:152
    1614:	f9003bff 	str	xzr, [sp, #112]
/home/scm4818/optee_project/optee_os/lib/libutee/tee_api.c:153
    1618:	f90037ff 	str	xzr, [sp, #104]
/home/scm4818/optee_project/optee_os/lib/libutee/tee_api.c:154
    161c:	f90027ff 	str	xzr, [sp, #72]
    1620:	f9002bff 	str	xzr, [sp, #80]
    1624:	f9002fff 	str	xzr, [sp, #88]
    1628:	f90033ff 	str	xzr, [sp, #96]
/home/scm4818/optee_project/optee_os/lib/libutee/tee_api.c:156
    162c:	910123e3 	add	x3, sp, #0x48
    1630:	9101a3e2 	add	x2, sp, #0x68
    1634:	9101c3e1 	add	x1, sp, #0x70
    1638:	910203e0 	add	x0, sp, #0x80
    163c:	aa0303e5 	mov	x5, x3
    1640:	aa0203e4 	mov	x4, x2
    1644:	aa0103e3 	mov	x3, x1
    1648:	f94017e2 	ldr	x2, [sp, #40]
    164c:	b94033e1 	ldr	w1, [sp, #48]
    1650:	97fffe8d 	bl	1084 <copy_param>
    1654:	b900cfe0 	str	w0, [sp, #204]
/home/scm4818/optee_project/optee_os/lib/libutee/tee_api.c:157
    1658:	b940cfe0 	ldr	w0, [sp, #204]
    165c:	7100001f 	cmp	w0, #0x0
    1660:	540003c1 	b.ne	16d8 <TEE_OpenTASession+0xec>  // b.any
/home/scm4818/optee_project/optee_os/lib/libutee/tee_api.c:159
    1664:	b94037e0 	ldr	w0, [sp, #52]
    1668:	9101f3e2 	add	x2, sp, #0x7c
    166c:	910203e1 	add	x1, sp, #0x80
    1670:	f9400fe4 	ldr	x4, [sp, #24]
    1674:	aa0203e3 	mov	x3, x2
    1678:	aa0103e2 	mov	x2, x1
    167c:	aa0003e1 	mov	x1, x0
    1680:	f9401fe0 	ldr	x0, [sp, #56]
    1684:	97fffb49 	bl	3a8 <utee_open_ta_session>
    1688:	b900cfe0 	str	w0, [sp, #204]
/home/scm4818/optee_project/optee_os/lib/libutee/tee_api.c:161
    168c:	910203e1 	add	x1, sp, #0x80
    1690:	910123e0 	add	x0, sp, #0x48
    1694:	aa0103e2 	mov	x2, x1
    1698:	aa0003e1 	mov	x1, x0
    169c:	f94017e0 	ldr	x0, [sp, #40]
    16a0:	97ffff6d 	bl	1454 <update_out_param>
/home/scm4818/optee_project/optee_os/lib/libutee/tee_api.c:162
    16a4:	f9403be0 	ldr	x0, [sp, #112]
    16a8:	f100001f 	cmp	x0, #0x0
    16ac:	540001a0 	b.eq	16e0 <TEE_OpenTASession+0xf4>  // b.none
/home/scm4818/optee_project/optee_os/lib/libutee/tee_api.c:163
    16b0:	f9403be0 	ldr	x0, [sp, #112]
    16b4:	f94037e1 	ldr	x1, [sp, #104]
    16b8:	94000ac3 	bl	41c4 <tee_unmap>
    16bc:	b900cbe0 	str	w0, [sp, #200]
/home/scm4818/optee_project/optee_os/lib/libutee/tee_api.c:165
    16c0:	b940cbe0 	ldr	w0, [sp, #200]
    16c4:	7100001f 	cmp	w0, #0x0
    16c8:	540000c0 	b.eq	16e0 <TEE_OpenTASession+0xf4>  // b.none
/home/scm4818/optee_project/optee_os/lib/libutee/tee_api.c:166
    16cc:	b940cbe0 	ldr	w0, [sp, #200]
    16d0:	94000a45 	bl	3fe4 <TEE_Panic>
    16d4:	14000004 	b	16e4 <TEE_OpenTASession+0xf8>
/home/scm4818/optee_project/optee_os/lib/libutee/tee_api.c:158
    16d8:	d503201f 	nop
    16dc:	14000002 	b	16e4 <TEE_OpenTASession+0xf8>
/home/scm4818/optee_project/optee_os/lib/libutee/tee_api.c:169
    16e0:	d503201f 	nop
/home/scm4818/optee_project/optee_os/lib/libutee/tee_api.c:175
    16e4:	b940cfe0 	ldr	w0, [sp, #204]
    16e8:	7100001f 	cmp	w0, #0x0
    16ec:	54000040 	b.eq	16f4 <TEE_OpenTASession+0x108>  // b.none
/home/scm4818/optee_project/optee_os/lib/libutee/tee_api.c:176
    16f0:	b9007fff 	str	wzr, [sp, #124]
/home/scm4818/optee_project/optee_os/lib/libutee/tee_api.c:178
    16f4:	b9407fe0 	ldr	w0, [sp, #124]
    16f8:	2a0003e0 	mov	w0, w0
    16fc:	aa0003e1 	mov	x1, x0
    1700:	f94013e0 	ldr	x0, [sp, #32]
    1704:	f9000001 	str	x1, [x0]
/home/scm4818/optee_project/optee_os/lib/libutee/tee_api.c:179
    1708:	b940cfe0 	ldr	w0, [sp, #204]
/home/scm4818/optee_project/optee_os/lib/libutee/tee_api.c:180
    170c:	a8cd7bfd 	ldp	x29, x30, [sp], #208
    1710:	d65f03c0 	ret

0000000000001714 <TEE_CloseTASession>:
TEE_CloseTASession():
/home/scm4818/optee_project/optee_os/lib/libutee/tee_api.c:183
    1714:	a9bd7bfd 	stp	x29, x30, [sp, #-48]!
    1718:	910003fd 	mov	x29, sp
    171c:	f9000fe0 	str	x0, [sp, #24]
/home/scm4818/optee_project/optee_os/lib/libutee/tee_api.c:184
    1720:	f9400fe0 	ldr	x0, [sp, #24]
    1724:	f100001f 	cmp	x0, #0x0
    1728:	54000120 	b.eq	174c <TEE_CloseTASession+0x38>  // b.none
/home/scm4818/optee_project/optee_os/lib/libutee/tee_api.c:185
    172c:	f9400fe0 	ldr	x0, [sp, #24]
    1730:	97fffb21 	bl	3b4 <utee_close_ta_session>
    1734:	b9002fe0 	str	w0, [sp, #44]
/home/scm4818/optee_project/optee_os/lib/libutee/tee_api.c:187
    1738:	b9402fe0 	ldr	w0, [sp, #44]
    173c:	7100001f 	cmp	w0, #0x0
    1740:	54000060 	b.eq	174c <TEE_CloseTASession+0x38>  // b.none
/home/scm4818/optee_project/optee_os/lib/libutee/tee_api.c:188
    1744:	b9402fe0 	ldr	w0, [sp, #44]
    1748:	94000a27 	bl	3fe4 <TEE_Panic>
/home/scm4818/optee_project/optee_os/lib/libutee/tee_api.c:190
    174c:	d503201f 	nop
    1750:	a8c37bfd 	ldp	x29, x30, [sp], #48
    1754:	d65f03c0 	ret

0000000000001758 <TEE_InvokeTACommand>:
TEE_InvokeTACommand():
/home/scm4818/optee_project/optee_os/lib/libutee/tee_api.c:197
    1758:	a9b37bfd 	stp	x29, x30, [sp, #-208]!
    175c:	910003fd 	mov	x29, sp
    1760:	f9001fe0 	str	x0, [sp, #56]
    1764:	b90037e1 	str	w1, [sp, #52]
    1768:	b90033e2 	str	w2, [sp, #48]
    176c:	b9002fe3 	str	w3, [sp, #44]
    1770:	f90013e4 	str	x4, [sp, #32]
    1774:	f9000fe5 	str	x5, [sp, #24]
/home/scm4818/optee_project/optee_os/lib/libutee/tee_api.c:198
    1778:	b900cfff 	str	wzr, [sp, #204]
/home/scm4818/optee_project/optee_os/lib/libutee/tee_api.c:199
    177c:	52800060 	mov	w0, #0x3                   	// #3
    1780:	b900c7e0 	str	w0, [sp, #196]
/home/scm4818/optee_project/optee_os/lib/libutee/tee_api.c:201
    1784:	f9003bff 	str	xzr, [sp, #112]
/home/scm4818/optee_project/optee_os/lib/libutee/tee_api.c:202
    1788:	f90037ff 	str	xzr, [sp, #104]
/home/scm4818/optee_project/optee_os/lib/libutee/tee_api.c:203
    178c:	f90027ff 	str	xzr, [sp, #72]
    1790:	f9002bff 	str	xzr, [sp, #80]
    1794:	f9002fff 	str	xzr, [sp, #88]
    1798:	f90033ff 	str	xzr, [sp, #96]
/home/scm4818/optee_project/optee_os/lib/libutee/tee_api.c:205
    179c:	910123e3 	add	x3, sp, #0x48
    17a0:	9101a3e2 	add	x2, sp, #0x68
    17a4:	9101c3e1 	add	x1, sp, #0x70
    17a8:	9101e3e0 	add	x0, sp, #0x78
    17ac:	aa0303e5 	mov	x5, x3
    17b0:	aa0203e4 	mov	x4, x2
    17b4:	aa0103e3 	mov	x3, x1
    17b8:	f94013e2 	ldr	x2, [sp, #32]
    17bc:	b9402fe1 	ldr	w1, [sp, #44]
    17c0:	97fffe31 	bl	1084 <copy_param>
    17c4:	b900cfe0 	str	w0, [sp, #204]
/home/scm4818/optee_project/optee_os/lib/libutee/tee_api.c:206
    17c8:	b940cfe0 	ldr	w0, [sp, #204]
    17cc:	7100001f 	cmp	w0, #0x0
    17d0:	54000361 	b.ne	183c <TEE_InvokeTACommand+0xe4>  // b.any
/home/scm4818/optee_project/optee_os/lib/libutee/tee_api.c:208
    17d4:	f9401fe0 	ldr	x0, [sp, #56]
    17d8:	b94037e1 	ldr	w1, [sp, #52]
    17dc:	b94033e2 	ldr	w2, [sp, #48]
    17e0:	910313e4 	add	x4, sp, #0xc4
    17e4:	9101e3e3 	add	x3, sp, #0x78
    17e8:	97fffaf6 	bl	3c0 <utee_invoke_ta_command>
    17ec:	b900cfe0 	str	w0, [sp, #204]
/home/scm4818/optee_project/optee_os/lib/libutee/tee_api.c:211
    17f0:	9101e3e1 	add	x1, sp, #0x78
    17f4:	910123e0 	add	x0, sp, #0x48
    17f8:	aa0103e2 	mov	x2, x1
    17fc:	aa0003e1 	mov	x1, x0
    1800:	f94013e0 	ldr	x0, [sp, #32]
    1804:	97ffff14 	bl	1454 <update_out_param>
/home/scm4818/optee_project/optee_os/lib/libutee/tee_api.c:212
    1808:	f9403be0 	ldr	x0, [sp, #112]
    180c:	f100001f 	cmp	x0, #0x0
    1810:	540001a0 	b.eq	1844 <TEE_InvokeTACommand+0xec>  // b.none
/home/scm4818/optee_project/optee_os/lib/libutee/tee_api.c:213
    1814:	f9403be0 	ldr	x0, [sp, #112]
    1818:	f94037e1 	ldr	x1, [sp, #104]
    181c:	94000a6a 	bl	41c4 <tee_unmap>
    1820:	b900cbe0 	str	w0, [sp, #200]
/home/scm4818/optee_project/optee_os/lib/libutee/tee_api.c:215
    1824:	b940cbe0 	ldr	w0, [sp, #200]
    1828:	7100001f 	cmp	w0, #0x0
    182c:	540000c0 	b.eq	1844 <TEE_InvokeTACommand+0xec>  // b.none
/home/scm4818/optee_project/optee_os/lib/libutee/tee_api.c:216
    1830:	b940cbe0 	ldr	w0, [sp, #200]
    1834:	940009ec 	bl	3fe4 <TEE_Panic>
    1838:	14000004 	b	1848 <TEE_InvokeTACommand+0xf0>
/home/scm4818/optee_project/optee_os/lib/libutee/tee_api.c:207
    183c:	d503201f 	nop
    1840:	14000002 	b	1848 <TEE_InvokeTACommand+0xf0>
/home/scm4818/optee_project/optee_os/lib/libutee/tee_api.c:219
    1844:	d503201f 	nop
/home/scm4818/optee_project/optee_os/lib/libutee/tee_api.c:220
    1848:	f9400fe0 	ldr	x0, [sp, #24]
    184c:	f100001f 	cmp	x0, #0x0
    1850:	54000080 	b.eq	1860 <TEE_InvokeTACommand+0x108>  // b.none
/home/scm4818/optee_project/optee_os/lib/libutee/tee_api.c:221
    1854:	b940c7e1 	ldr	w1, [sp, #196]
    1858:	f9400fe0 	ldr	x0, [sp, #24]
    185c:	b9000001 	str	w1, [x0]
/home/scm4818/optee_project/optee_os/lib/libutee/tee_api.c:223
    1860:	b940c7e0 	ldr	w0, [sp, #196]
    1864:	7100101f 	cmp	w0, #0x4
    1868:	54000061 	b.ne	1874 <TEE_InvokeTACommand+0x11c>  // b.any
/home/scm4818/optee_project/optee_os/lib/libutee/tee_api.c:224
    186c:	b940cfe0 	ldr	w0, [sp, #204]
    1870:	1400000f 	b	18ac <TEE_InvokeTACommand+0x154>
/home/scm4818/optee_project/optee_os/lib/libutee/tee_api.c:226
    1874:	b940cfe0 	ldr	w0, [sp, #204]
    1878:	7100001f 	cmp	w0, #0x0
    187c:	54000160 	b.eq	18a8 <TEE_InvokeTACommand+0x150>  // b.none
/home/scm4818/optee_project/optee_os/lib/libutee/tee_api.c:226 (discriminator 1)
    1880:	b940cfe1 	ldr	w1, [sp, #204]
    1884:	129ffe60 	mov	w0, #0xffff000c            	// #-65524
    1888:	6b00003f 	cmp	w1, w0
    188c:	540000e0 	b.eq	18a8 <TEE_InvokeTACommand+0x150>  // b.none
/home/scm4818/optee_project/optee_os/lib/libutee/tee_api.c:227
    1890:	b940cfe1 	ldr	w1, [sp, #204]
    1894:	1299fb60 	mov	w0, #0xffff3024            	// #-53212
    1898:	6b00003f 	cmp	w1, w0
    189c:	54000060 	b.eq	18a8 <TEE_InvokeTACommand+0x150>  // b.none
/home/scm4818/optee_project/optee_os/lib/libutee/tee_api.c:229
    18a0:	b940cfe0 	ldr	w0, [sp, #204]
    18a4:	940009d0 	bl	3fe4 <TEE_Panic>
/home/scm4818/optee_project/optee_os/lib/libutee/tee_api.c:231
    18a8:	b940cfe0 	ldr	w0, [sp, #204]
/home/scm4818/optee_project/optee_os/lib/libutee/tee_api.c:232 (discriminator 1)
    18ac:	a8cd7bfd 	ldp	x29, x30, [sp], #208
    18b0:	d65f03c0 	ret

00000000000018b4 <TEE_GetCancellationFlag>:
TEE_GetCancellationFlag():
/home/scm4818/optee_project/optee_os/lib/libutee/tee_api.c:237
    18b4:	a9be7bfd 	stp	x29, x30, [sp, #-32]!
    18b8:	910003fd 	mov	x29, sp
/home/scm4818/optee_project/optee_os/lib/libutee/tee_api.c:239
    18bc:	910063e0 	add	x0, sp, #0x18
    18c0:	97fffac3 	bl	3cc <utee_get_cancellation_flag>
    18c4:	b9001fe0 	str	w0, [sp, #28]
/home/scm4818/optee_project/optee_os/lib/libutee/tee_api.c:241
    18c8:	b9401fe0 	ldr	w0, [sp, #28]
    18cc:	7100001f 	cmp	w0, #0x0
    18d0:	54000040 	b.eq	18d8 <TEE_GetCancellationFlag+0x24>  // b.none
/home/scm4818/optee_project/optee_os/lib/libutee/tee_api.c:242
    18d4:	b9001bff 	str	wzr, [sp, #24]
/home/scm4818/optee_project/optee_os/lib/libutee/tee_api.c:243
    18d8:	b9401be0 	ldr	w0, [sp, #24]
    18dc:	7100001f 	cmp	w0, #0x0
    18e0:	1a9f07e0 	cset	w0, ne  // ne = any
    18e4:	12001c00 	and	w0, w0, #0xff
/home/scm4818/optee_project/optee_os/lib/libutee/tee_api.c:244
    18e8:	a8c27bfd 	ldp	x29, x30, [sp], #32
    18ec:	d65f03c0 	ret

00000000000018f0 <TEE_UnmaskCancellation>:
TEE_UnmaskCancellation():
/home/scm4818/optee_project/optee_os/lib/libutee/tee_api.c:247
    18f0:	a9be7bfd 	stp	x29, x30, [sp, #-32]!
    18f4:	910003fd 	mov	x29, sp
/home/scm4818/optee_project/optee_os/lib/libutee/tee_api.c:249
    18f8:	910063e0 	add	x0, sp, #0x18
    18fc:	97fffaba 	bl	3e4 <utee_unmask_cancellation>
    1900:	b9001fe0 	str	w0, [sp, #28]
/home/scm4818/optee_project/optee_os/lib/libutee/tee_api.c:251
    1904:	b9401fe0 	ldr	w0, [sp, #28]
    1908:	7100001f 	cmp	w0, #0x0
    190c:	54000060 	b.eq	1918 <TEE_UnmaskCancellation+0x28>  // b.none
/home/scm4818/optee_project/optee_os/lib/libutee/tee_api.c:252
    1910:	b9401fe0 	ldr	w0, [sp, #28]
    1914:	940009b4 	bl	3fe4 <TEE_Panic>
/home/scm4818/optee_project/optee_os/lib/libutee/tee_api.c:253
    1918:	b9401be0 	ldr	w0, [sp, #24]
    191c:	7100001f 	cmp	w0, #0x0
    1920:	1a9f07e0 	cset	w0, ne  // ne = any
    1924:	12001c00 	and	w0, w0, #0xff
/home/scm4818/optee_project/optee_os/lib/libutee/tee_api.c:254
    1928:	a8c27bfd 	ldp	x29, x30, [sp], #32
    192c:	d65f03c0 	ret

0000000000001930 <TEE_MaskCancellation>:
TEE_MaskCancellation():
/home/scm4818/optee_project/optee_os/lib/libutee/tee_api.c:257
    1930:	a9be7bfd 	stp	x29, x30, [sp, #-32]!
    1934:	910003fd 	mov	x29, sp
/home/scm4818/optee_project/optee_os/lib/libutee/tee_api.c:259
    1938:	910063e0 	add	x0, sp, #0x18
    193c:	97fffaad 	bl	3f0 <utee_mask_cancellation>
    1940:	b9001fe0 	str	w0, [sp, #28]
/home/scm4818/optee_project/optee_os/lib/libutee/tee_api.c:261
    1944:	b9401fe0 	ldr	w0, [sp, #28]
    1948:	7100001f 	cmp	w0, #0x0
    194c:	54000060 	b.eq	1958 <TEE_MaskCancellation+0x28>  // b.none
/home/scm4818/optee_project/optee_os/lib/libutee/tee_api.c:262
    1950:	b9401fe0 	ldr	w0, [sp, #28]
    1954:	940009a4 	bl	3fe4 <TEE_Panic>
/home/scm4818/optee_project/optee_os/lib/libutee/tee_api.c:263
    1958:	b9401be0 	ldr	w0, [sp, #24]
    195c:	7100001f 	cmp	w0, #0x0
    1960:	1a9f07e0 	cset	w0, ne  // ne = any
    1964:	12001c00 	and	w0, w0, #0xff
/home/scm4818/optee_project/optee_os/lib/libutee/tee_api.c:264
    1968:	a8c27bfd 	ldp	x29, x30, [sp], #32
    196c:	d65f03c0 	ret

0000000000001970 <TEE_CheckMemoryAccessRights>:
TEE_CheckMemoryAccessRights():
/home/scm4818/optee_project/optee_os/lib/libutee/tee_api.c:270
    1970:	a9bd7bfd 	stp	x29, x30, [sp, #-48]!
    1974:	910003fd 	mov	x29, sp
    1978:	b9001fe0 	str	w0, [sp, #28]
    197c:	f9000be1 	str	x1, [sp, #16]
    1980:	b9001be2 	str	w2, [sp, #24]
/home/scm4818/optee_project/optee_os/lib/libutee/tee_api.c:273
    1984:	b9401be0 	ldr	w0, [sp, #24]
    1988:	7100001f 	cmp	w0, #0x0
    198c:	54000061 	b.ne	1998 <TEE_CheckMemoryAccessRights+0x28>  // b.any
/home/scm4818/optee_project/optee_os/lib/libutee/tee_api.c:274
    1990:	52800000 	mov	w0, #0x0                   	// #0
    1994:	1400000e 	b	19cc <TEE_CheckMemoryAccessRights+0x5c>
/home/scm4818/optee_project/optee_os/lib/libutee/tee_api.c:277
    1998:	b9401be0 	ldr	w0, [sp, #24]
    199c:	aa0003e2 	mov	x2, x0
    19a0:	f9400be1 	ldr	x1, [sp, #16]
    19a4:	b9401fe0 	ldr	w0, [sp, #28]
    19a8:	97fffa8c 	bl	3d8 <utee_check_access_rights>
    19ac:	b9002fe0 	str	w0, [sp, #44]
/home/scm4818/optee_project/optee_os/lib/libutee/tee_api.c:278
    19b0:	b9402fe0 	ldr	w0, [sp, #44]
    19b4:	7100001f 	cmp	w0, #0x0
    19b8:	54000061 	b.ne	19c4 <TEE_CheckMemoryAccessRights+0x54>  // b.any
/home/scm4818/optee_project/optee_os/lib/libutee/tee_api.c:286
    19bc:	b9002fff 	str	wzr, [sp, #44]
    19c0:	14000002 	b	19c8 <TEE_CheckMemoryAccessRights+0x58>
/home/scm4818/optee_project/optee_os/lib/libutee/tee_api.c:279
    19c4:	d503201f 	nop
/home/scm4818/optee_project/optee_os/lib/libutee/tee_api.c:288
    19c8:	b9402fe0 	ldr	w0, [sp, #44]
/home/scm4818/optee_project/optee_os/lib/libutee/tee_api.c:289
    19cc:	a8c37bfd 	ldp	x29, x30, [sp], #48
    19d0:	d65f03c0 	ret

00000000000019d4 <TEE_SetInstanceData>:
TEE_SetInstanceData():
/home/scm4818/optee_project/optee_os/lib/libutee/tee_api.c:292
    19d4:	d10043ff 	sub	sp, sp, #0x10
    19d8:	f90007e0 	str	x0, [sp, #8]
/home/scm4818/optee_project/optee_os/lib/libutee/tee_api.c:293
    19dc:	900000e0 	adrp	x0, 1d000 <ta_heap+0x7bb8>
    19e0:	91128000 	add	x0, x0, #0x4a0
    19e4:	f94007e1 	ldr	x1, [sp, #8]
    19e8:	f9000001 	str	x1, [x0]
/home/scm4818/optee_project/optee_os/lib/libutee/tee_api.c:294
    19ec:	d503201f 	nop
    19f0:	910043ff 	add	sp, sp, #0x10
    19f4:	d65f03c0 	ret

00000000000019f8 <TEE_GetInstanceData>:
TEE_GetInstanceData():
/home/scm4818/optee_project/optee_os/lib/libutee/tee_api.c:298
    19f8:	900000e0 	adrp	x0, 1d000 <ta_heap+0x7bb8>
    19fc:	91128000 	add	x0, x0, #0x4a0
    1a00:	f9400000 	ldr	x0, [x0]
/home/scm4818/optee_project/optee_os/lib/libutee/tee_api.c:299
    1a04:	d65f03c0 	ret

0000000000001a08 <TEE_MemMove>:
TEE_MemMove():
/home/scm4818/optee_project/optee_os/lib/libutee/tee_api.c:302
    1a08:	a9bd7bfd 	stp	x29, x30, [sp, #-48]!
    1a0c:	910003fd 	mov	x29, sp
    1a10:	f90017e0 	str	x0, [sp, #40]
    1a14:	f90013e1 	str	x1, [sp, #32]
    1a18:	b9001fe2 	str	w2, [sp, #28]
/home/scm4818/optee_project/optee_os/lib/libutee/tee_api.c:303
    1a1c:	b9401fe0 	ldr	w0, [sp, #28]
    1a20:	aa0003e2 	mov	x2, x0
    1a24:	f94013e1 	ldr	x1, [sp, #32]
    1a28:	f94017e0 	ldr	x0, [sp, #40]
    1a2c:	9400307f 	bl	dc28 <memmove>
/home/scm4818/optee_project/optee_os/lib/libutee/tee_api.c:304
    1a30:	a8c37bfd 	ldp	x29, x30, [sp], #48
    1a34:	d65f03c0 	ret

0000000000001a38 <TEE_MemCompare>:
TEE_MemCompare():
/home/scm4818/optee_project/optee_os/lib/libutee/tee_api.c:307
    1a38:	a9bd7bfd 	stp	x29, x30, [sp, #-48]!
    1a3c:	910003fd 	mov	x29, sp
    1a40:	f90017e0 	str	x0, [sp, #40]
    1a44:	f90013e1 	str	x1, [sp, #32]
    1a48:	b9001fe2 	str	w2, [sp, #28]
/home/scm4818/optee_project/optee_os/lib/libutee/tee_api.c:308
    1a4c:	b9401fe0 	ldr	w0, [sp, #28]
    1a50:	aa0003e2 	mov	x2, x0
    1a54:	f94013e1 	ldr	x1, [sp, #32]
    1a58:	f94017e0 	ldr	x0, [sp, #40]
    1a5c:	94003c48 	bl	10b7c <consttime_memcmp>
/home/scm4818/optee_project/optee_os/lib/libutee/tee_api.c:309
    1a60:	a8c37bfd 	ldp	x29, x30, [sp], #48
    1a64:	d65f03c0 	ret

0000000000001a68 <TEE_MemFill>:
TEE_MemFill():
/home/scm4818/optee_project/optee_os/lib/libutee/tee_api.c:312
    1a68:	a9be7bfd 	stp	x29, x30, [sp, #-32]!
    1a6c:	910003fd 	mov	x29, sp
    1a70:	f9000fe0 	str	x0, [sp, #24]
    1a74:	b90017e1 	str	w1, [sp, #20]
    1a78:	b90013e2 	str	w2, [sp, #16]
/home/scm4818/optee_project/optee_os/lib/libutee/tee_api.c:313
    1a7c:	b94017e0 	ldr	w0, [sp, #20]
    1a80:	b94013e1 	ldr	w1, [sp, #16]
    1a84:	aa0103e2 	mov	x2, x1
    1a88:	2a0003e1 	mov	w1, w0
    1a8c:	f9400fe0 	ldr	x0, [sp, #24]
    1a90:	940030e9 	bl	de34 <memset>
/home/scm4818/optee_project/optee_os/lib/libutee/tee_api.c:314
    1a94:	a8c27bfd 	ldp	x29, x30, [sp], #32
    1a98:	d65f03c0 	ret

0000000000001a9c <TEE_GetSystemTime>:
TEE_GetSystemTime():
/home/scm4818/optee_project/optee_os/lib/libutee/tee_api.c:319
    1a9c:	a9bd7bfd 	stp	x29, x30, [sp, #-48]!
    1aa0:	910003fd 	mov	x29, sp
    1aa4:	f9000fe0 	str	x0, [sp, #24]
/home/scm4818/optee_project/optee_os/lib/libutee/tee_api.c:320
    1aa8:	f9400fe1 	ldr	x1, [sp, #24]
    1aac:	d2800000 	mov	x0, #0x0                   	// #0
    1ab0:	97fffa56 	bl	408 <utee_get_time>
    1ab4:	b9002fe0 	str	w0, [sp, #44]
/home/scm4818/optee_project/optee_os/lib/libutee/tee_api.c:322
    1ab8:	b9402fe0 	ldr	w0, [sp, #44]
    1abc:	7100001f 	cmp	w0, #0x0
    1ac0:	54000060 	b.eq	1acc <TEE_GetSystemTime+0x30>  // b.none
/home/scm4818/optee_project/optee_os/lib/libutee/tee_api.c:323
    1ac4:	b9402fe0 	ldr	w0, [sp, #44]
    1ac8:	94000947 	bl	3fe4 <TEE_Panic>
/home/scm4818/optee_project/optee_os/lib/libutee/tee_api.c:324
    1acc:	d503201f 	nop
    1ad0:	a8c37bfd 	ldp	x29, x30, [sp], #48
    1ad4:	d65f03c0 	ret

0000000000001ad8 <TEE_Wait>:
TEE_Wait():
/home/scm4818/optee_project/optee_os/lib/libutee/tee_api.c:327
    1ad8:	a9bd7bfd 	stp	x29, x30, [sp, #-48]!
    1adc:	910003fd 	mov	x29, sp
    1ae0:	b9001fe0 	str	w0, [sp, #28]
/home/scm4818/optee_project/optee_os/lib/libutee/tee_api.c:328
    1ae4:	b9401fe0 	ldr	w0, [sp, #28]
    1ae8:	97fffa45 	bl	3fc <utee_wait>
    1aec:	b9002fe0 	str	w0, [sp, #44]
/home/scm4818/optee_project/optee_os/lib/libutee/tee_api.c:330
    1af0:	b9402fe0 	ldr	w0, [sp, #44]
    1af4:	7100001f 	cmp	w0, #0x0
    1af8:	540000e0 	b.eq	1b14 <TEE_Wait+0x3c>  // b.none
/home/scm4818/optee_project/optee_os/lib/libutee/tee_api.c:330 (discriminator 1)
    1afc:	b9402fe1 	ldr	w1, [sp, #44]
    1b00:	129fffa0 	mov	w0, #0xffff0002            	// #-65534
    1b04:	6b00003f 	cmp	w1, w0
    1b08:	54000060 	b.eq	1b14 <TEE_Wait+0x3c>  // b.none
/home/scm4818/optee_project/optee_os/lib/libutee/tee_api.c:331
    1b0c:	b9402fe0 	ldr	w0, [sp, #44]
    1b10:	94000935 	bl	3fe4 <TEE_Panic>
/home/scm4818/optee_project/optee_os/lib/libutee/tee_api.c:333
    1b14:	b9402fe0 	ldr	w0, [sp, #44]
/home/scm4818/optee_project/optee_os/lib/libutee/tee_api.c:334
    1b18:	a8c37bfd 	ldp	x29, x30, [sp], #48
    1b1c:	d65f03c0 	ret

0000000000001b20 <TEE_GetTAPersistentTime>:
TEE_GetTAPersistentTime():
/home/scm4818/optee_project/optee_os/lib/libutee/tee_api.c:337
    1b20:	a9bd7bfd 	stp	x29, x30, [sp, #-48]!
    1b24:	910003fd 	mov	x29, sp
    1b28:	f9000fe0 	str	x0, [sp, #24]
/home/scm4818/optee_project/optee_os/lib/libutee/tee_api.c:340
    1b2c:	f9400fe1 	ldr	x1, [sp, #24]
    1b30:	d2800020 	mov	x0, #0x1                   	// #1
    1b34:	97fffa35 	bl	408 <utee_get_time>
    1b38:	b9002fe0 	str	w0, [sp, #44]
/home/scm4818/optee_project/optee_os/lib/libutee/tee_api.c:342
    1b3c:	b9402fe0 	ldr	w0, [sp, #44]
    1b40:	7100001f 	cmp	w0, #0x0
    1b44:	54000120 	b.eq	1b68 <TEE_GetTAPersistentTime+0x48>  // b.none
/home/scm4818/optee_project/optee_os/lib/libutee/tee_api.c:342 (discriminator 1)
    1b48:	b9402fe1 	ldr	w1, [sp, #44]
    1b4c:	1299fe00 	mov	w0, #0xffff300f            	// #-53233
    1b50:	6b00003f 	cmp	w1, w0
    1b54:	540000a0 	b.eq	1b68 <TEE_GetTAPersistentTime+0x48>  // b.none
/home/scm4818/optee_project/optee_os/lib/libutee/tee_api.c:343
    1b58:	f9400fe0 	ldr	x0, [sp, #24]
    1b5c:	b900001f 	str	wzr, [x0]
/home/scm4818/optee_project/optee_os/lib/libutee/tee_api.c:344
    1b60:	f9400fe0 	ldr	x0, [sp, #24]
    1b64:	b900041f 	str	wzr, [x0, #4]
/home/scm4818/optee_project/optee_os/lib/libutee/tee_api.c:347
    1b68:	b9402fe0 	ldr	w0, [sp, #44]
    1b6c:	7100001f 	cmp	w0, #0x0
    1b70:	54000240 	b.eq	1bb8 <TEE_GetTAPersistentTime+0x98>  // b.none
/home/scm4818/optee_project/optee_os/lib/libutee/tee_api.c:347 (discriminator 1)
    1b74:	b9402fe0 	ldr	w0, [sp, #44]
    1b78:	31402c1f 	cmn	w0, #0xb, lsl #12
    1b7c:	540001e0 	b.eq	1bb8 <TEE_GetTAPersistentTime+0x98>  // b.none
/home/scm4818/optee_project/optee_os/lib/libutee/tee_api.c:348
    1b80:	b9402fe1 	ldr	w1, [sp, #44]
    1b84:	1295ffc0 	mov	w0, #0xffff5001            	// #-45055
    1b88:	6b00003f 	cmp	w1, w0
    1b8c:	54000160 	b.eq	1bb8 <TEE_GetTAPersistentTime+0x98>  // b.none
/home/scm4818/optee_project/optee_os/lib/libutee/tee_api.c:349
    1b90:	b9402fe1 	ldr	w1, [sp, #44]
    1b94:	1299fe00 	mov	w0, #0xffff300f            	// #-53233
    1b98:	6b00003f 	cmp	w1, w0
    1b9c:	540000e0 	b.eq	1bb8 <TEE_GetTAPersistentTime+0x98>  // b.none
/home/scm4818/optee_project/optee_os/lib/libutee/tee_api.c:350
    1ba0:	b9402fe1 	ldr	w1, [sp, #44]
    1ba4:	129ffe60 	mov	w0, #0xffff000c            	// #-65524
    1ba8:	6b00003f 	cmp	w1, w0
    1bac:	54000060 	b.eq	1bb8 <TEE_GetTAPersistentTime+0x98>  // b.none
/home/scm4818/optee_project/optee_os/lib/libutee/tee_api.c:352
    1bb0:	b9402fe0 	ldr	w0, [sp, #44]
    1bb4:	9400090c 	bl	3fe4 <TEE_Panic>
/home/scm4818/optee_project/optee_os/lib/libutee/tee_api.c:354
    1bb8:	b9402fe0 	ldr	w0, [sp, #44]
/home/scm4818/optee_project/optee_os/lib/libutee/tee_api.c:355
    1bbc:	a8c37bfd 	ldp	x29, x30, [sp], #48
    1bc0:	d65f03c0 	ret

0000000000001bc4 <TEE_SetTAPersistentTime>:
TEE_SetTAPersistentTime():
/home/scm4818/optee_project/optee_os/lib/libutee/tee_api.c:358
    1bc4:	a9bd7bfd 	stp	x29, x30, [sp, #-48]!
    1bc8:	910003fd 	mov	x29, sp
    1bcc:	f9000fe0 	str	x0, [sp, #24]
/home/scm4818/optee_project/optee_os/lib/libutee/tee_api.c:361
    1bd0:	f9400fe0 	ldr	x0, [sp, #24]
    1bd4:	97fffa10 	bl	414 <utee_set_ta_time>
    1bd8:	b9002fe0 	str	w0, [sp, #44]
/home/scm4818/optee_project/optee_os/lib/libutee/tee_api.c:363
    1bdc:	b9402fe0 	ldr	w0, [sp, #44]
    1be0:	7100001f 	cmp	w0, #0x0
    1be4:	54000160 	b.eq	1c10 <TEE_SetTAPersistentTime+0x4c>  // b.none
/home/scm4818/optee_project/optee_os/lib/libutee/tee_api.c:363 (discriminator 1)
    1be8:	b9402fe1 	ldr	w1, [sp, #44]
    1bec:	129ffe60 	mov	w0, #0xffff000c            	// #-65524
    1bf0:	6b00003f 	cmp	w1, w0
    1bf4:	540000e0 	b.eq	1c10 <TEE_SetTAPersistentTime+0x4c>  // b.none
/home/scm4818/optee_project/optee_os/lib/libutee/tee_api.c:364
    1bf8:	b9402fe1 	ldr	w1, [sp, #44]
    1bfc:	1299f7c0 	mov	w0, #0xffff3041            	// #-53183
    1c00:	6b00003f 	cmp	w1, w0
    1c04:	54000060 	b.eq	1c10 <TEE_SetTAPersistentTime+0x4c>  // b.none
/home/scm4818/optee_project/optee_os/lib/libutee/tee_api.c:366
    1c08:	b9402fe0 	ldr	w0, [sp, #44]
    1c0c:	940008f6 	bl	3fe4 <TEE_Panic>
/home/scm4818/optee_project/optee_os/lib/libutee/tee_api.c:368
    1c10:	b9402fe0 	ldr	w0, [sp, #44]
/home/scm4818/optee_project/optee_os/lib/libutee/tee_api.c:369
    1c14:	a8c37bfd 	ldp	x29, x30, [sp], #48
    1c18:	d65f03c0 	ret

0000000000001c1c <TEE_GetREETime>:
TEE_GetREETime():
/home/scm4818/optee_project/optee_os/lib/libutee/tee_api.c:372
    1c1c:	a9bd7bfd 	stp	x29, x30, [sp, #-48]!
    1c20:	910003fd 	mov	x29, sp
    1c24:	f9000fe0 	str	x0, [sp, #24]
/home/scm4818/optee_project/optee_os/lib/libutee/tee_api.c:373
    1c28:	f9400fe1 	ldr	x1, [sp, #24]
    1c2c:	d2800040 	mov	x0, #0x2                   	// #2
    1c30:	97fff9f6 	bl	408 <utee_get_time>
    1c34:	b9002fe0 	str	w0, [sp, #44]
/home/scm4818/optee_project/optee_os/lib/libutee/tee_api.c:375
    1c38:	b9402fe0 	ldr	w0, [sp, #44]
    1c3c:	7100001f 	cmp	w0, #0x0
    1c40:	54000060 	b.eq	1c4c <TEE_GetREETime+0x30>  // b.none
/home/scm4818/optee_project/optee_os/lib/libutee/tee_api.c:376
    1c44:	b9402fe0 	ldr	w0, [sp, #44]
    1c48:	940008e7 	bl	3fe4 <TEE_Panic>
/home/scm4818/optee_project/optee_os/lib/libutee/tee_api.c:377
    1c4c:	d503201f 	nop
    1c50:	a8c37bfd 	ldp	x29, x30, [sp], #48
    1c54:	d65f03c0 	ret

0000000000001c58 <TEE_Malloc>:
TEE_Malloc():
/home/scm4818/optee_project/optee_os/lib/libutee/tee_api.c:380
    1c58:	a9be7bfd 	stp	x29, x30, [sp, #-32]!
    1c5c:	910003fd 	mov	x29, sp
    1c60:	b9001fe0 	str	w0, [sp, #28]
    1c64:	b9001be1 	str	w1, [sp, #24]
/home/scm4818/optee_project/optee_os/lib/libutee/tee_api.c:381
    1c68:	b9401be0 	ldr	w0, [sp, #24]
    1c6c:	7100001f 	cmp	w0, #0x0
    1c70:	540000c1 	b.ne	1c88 <TEE_Malloc+0x30>  // b.any
/home/scm4818/optee_project/optee_os/lib/libutee/tee_api.c:382
    1c74:	b9401fe0 	ldr	w0, [sp, #28]
    1c78:	aa0003e1 	mov	x1, x0
    1c7c:	d2800020 	mov	x0, #0x1                   	// #1
    1c80:	94002e24 	bl	d510 <calloc>
    1c84:	14000012 	b	1ccc <TEE_Malloc+0x74>
/home/scm4818/optee_project/optee_os/lib/libutee/tee_api.c:383
    1c88:	b9401be1 	ldr	w1, [sp, #24]
    1c8c:	52b00000 	mov	w0, #0x80000000            	// #-2147483648
    1c90:	6b00003f 	cmp	w1, w0
    1c94:	54000081 	b.ne	1ca4 <TEE_Malloc+0x4c>  // b.any
/home/scm4818/optee_project/optee_os/lib/libutee/tee_api.c:384
    1c98:	b9401fe0 	ldr	w0, [sp, #28]
    1c9c:	94002df4 	bl	d46c <malloc>
    1ca0:	1400000b 	b	1ccc <TEE_Malloc+0x74>
/home/scm4818/optee_project/optee_os/lib/libutee/tee_api.c:386
    1ca4:	b9401be5 	ldr	w5, [sp, #24]
    1ca8:	b0000080 	adrp	x0, 12000 <__text_end+0x1164>
    1cac:	91320004 	add	x4, x0, #0xc80
    1cb0:	52800023 	mov	w3, #0x1                   	// #1
    1cb4:	52800022 	mov	w2, #0x1                   	// #1
    1cb8:	52803041 	mov	w1, #0x182                 	// #386
    1cbc:	b0000080 	adrp	x0, 12000 <__text_end+0x1164>
    1cc0:	91326000 	add	x0, x0, #0xc98
    1cc4:	940039b9 	bl	103a8 <trace_printf>
/home/scm4818/optee_project/optee_os/lib/libutee/tee_api.c:388
    1cc8:	d2800000 	mov	x0, #0x0                   	// #0
/home/scm4818/optee_project/optee_os/lib/libutee/tee_api.c:389
    1ccc:	a8c27bfd 	ldp	x29, x30, [sp], #32
    1cd0:	d65f03c0 	ret

0000000000001cd4 <TEE_Realloc>:
TEE_Realloc():
/home/scm4818/optee_project/optee_os/lib/libutee/tee_api.c:392
    1cd4:	a9be7bfd 	stp	x29, x30, [sp, #-32]!
    1cd8:	910003fd 	mov	x29, sp
    1cdc:	f9000fe0 	str	x0, [sp, #24]
    1ce0:	b90017e1 	str	w1, [sp, #20]
/home/scm4818/optee_project/optee_os/lib/libutee/tee_api.c:393
    1ce4:	b94017e0 	ldr	w0, [sp, #20]
    1ce8:	aa0003e1 	mov	x1, x0
    1cec:	f9400fe0 	ldr	x0, [sp, #24]
    1cf0:	94002e2c 	bl	d5a0 <realloc>
/home/scm4818/optee_project/optee_os/lib/libutee/tee_api.c:394
    1cf4:	a8c27bfd 	ldp	x29, x30, [sp], #32
    1cf8:	d65f03c0 	ret

0000000000001cfc <TEE_Free>:
TEE_Free():
/home/scm4818/optee_project/optee_os/lib/libutee/tee_api.c:397
    1cfc:	a9be7bfd 	stp	x29, x30, [sp, #-32]!
    1d00:	910003fd 	mov	x29, sp
    1d04:	f9000fe0 	str	x0, [sp, #24]
/home/scm4818/optee_project/optee_os/lib/libutee/tee_api.c:398
    1d08:	f9400fe0 	ldr	x0, [sp, #24]
    1d0c:	94002e46 	bl	d624 <free>
/home/scm4818/optee_project/optee_os/lib/libutee/tee_api.c:399
    1d10:	d503201f 	nop
    1d14:	a8c27bfd 	ldp	x29, x30, [sp], #32
    1d18:	d65f03c0 	ret

0000000000001d1c <TEE_CacheClean>:
TEE_CacheClean():
/home/scm4818/optee_project/optee_os/lib/libutee/tee_api.c:403
    1d1c:	a9be7bfd 	stp	x29, x30, [sp, #-32]!
    1d20:	910003fd 	mov	x29, sp
    1d24:	f9000fe0 	str	x0, [sp, #24]
    1d28:	f9000be1 	str	x1, [sp, #16]
/home/scm4818/optee_project/optee_os/lib/libutee/tee_api.c:404
    1d2c:	d2800002 	mov	x2, #0x0                   	// #0
    1d30:	f9400be1 	ldr	x1, [sp, #16]
    1d34:	f9400fe0 	ldr	x0, [sp, #24]
    1d38:	97fffa32 	bl	600 <utee_cache_operation>
/home/scm4818/optee_project/optee_os/lib/libutee/tee_api.c:405
    1d3c:	a8c27bfd 	ldp	x29, x30, [sp], #32
    1d40:	d65f03c0 	ret

0000000000001d44 <TEE_CacheFlush>:
TEE_CacheFlush():
/home/scm4818/optee_project/optee_os/lib/libutee/tee_api.c:407
    1d44:	a9be7bfd 	stp	x29, x30, [sp, #-32]!
    1d48:	910003fd 	mov	x29, sp
    1d4c:	f9000fe0 	str	x0, [sp, #24]
    1d50:	f9000be1 	str	x1, [sp, #16]
/home/scm4818/optee_project/optee_os/lib/libutee/tee_api.c:408
    1d54:	d2800022 	mov	x2, #0x1                   	// #1
    1d58:	f9400be1 	ldr	x1, [sp, #16]
    1d5c:	f9400fe0 	ldr	x0, [sp, #24]
    1d60:	97fffa28 	bl	600 <utee_cache_operation>
/home/scm4818/optee_project/optee_os/lib/libutee/tee_api.c:409
    1d64:	a8c27bfd 	ldp	x29, x30, [sp], #32
    1d68:	d65f03c0 	ret

0000000000001d6c <TEE_CacheInvalidate>:
TEE_CacheInvalidate():
/home/scm4818/optee_project/optee_os/lib/libutee/tee_api.c:412
    1d6c:	a9be7bfd 	stp	x29, x30, [sp, #-32]!
    1d70:	910003fd 	mov	x29, sp
    1d74:	f9000fe0 	str	x0, [sp, #24]
    1d78:	f9000be1 	str	x1, [sp, #16]
/home/scm4818/optee_project/optee_os/lib/libutee/tee_api.c:413
    1d7c:	d2800042 	mov	x2, #0x2                   	// #2
    1d80:	f9400be1 	ldr	x1, [sp, #16]
    1d84:	f9400fe0 	ldr	x0, [sp, #24]
    1d88:	97fffa1e 	bl	600 <utee_cache_operation>
/home/scm4818/optee_project/optee_os/lib/libutee/tee_api.c:414
    1d8c:	a8c27bfd 	ldp	x29, x30, [sp], #32
    1d90:	d65f03c0 	ret

0000000000001d94 <api_panic>:
api_panic():
/home/scm4818/optee_project/optee_os/lib/libutee/tee_api_arith_mpi.c:19
    1d94:	a9bd7bfd 	stp	x29, x30, [sp, #-48]!
    1d98:	910003fd 	mov	x29, sp
    1d9c:	f90017e0 	str	x0, [sp, #40]
    1da0:	b90027e1 	str	w1, [sp, #36]
    1da4:	f9000fe2 	str	x2, [sp, #24]
/home/scm4818/optee_project/optee_os/lib/libutee/tee_api_arith_mpi.c:20
    1da8:	f9400fe3 	ldr	x3, [sp, #24]
    1dac:	b94027e2 	ldr	w2, [sp, #36]
    1db0:	f94017e1 	ldr	x1, [sp, #40]
    1db4:	b0000080 	adrp	x0, 12000 <__text_end+0x1164>
    1db8:	9132a000 	add	x0, x0, #0xca8
    1dbc:	9400093f 	bl	42b8 <printf>
/home/scm4818/optee_project/optee_os/lib/libutee/tee_api_arith_mpi.c:21
    1dc0:	528c24e0 	mov	w0, #0x6127                	// #24871
    1dc4:	72a01620 	movk	w0, #0xb1, lsl #16
    1dc8:	94000887 	bl	3fe4 <TEE_Panic>
/home/scm4818/optee_project/optee_os/lib/libutee/tee_api_arith_mpi.c:22 (discriminator 1)
    1dcc:	14000000 	b	1dcc <api_panic+0x38>

0000000000001dd0 <mpi_panic>:
mpi_panic():
/home/scm4818/optee_project/optee_os/lib/libutee/tee_api_arith_mpi.c:29
    1dd0:	a9be7bfd 	stp	x29, x30, [sp, #-32]!
    1dd4:	910003fd 	mov	x29, sp
    1dd8:	f9000fe0 	str	x0, [sp, #24]
    1ddc:	b90017e1 	str	w1, [sp, #20]
    1de0:	b90013e2 	str	w2, [sp, #16]
/home/scm4818/optee_project/optee_os/lib/libutee/tee_api_arith_mpi.c:30
    1de4:	b94013e3 	ldr	w3, [sp, #16]
    1de8:	b94017e2 	ldr	w2, [sp, #20]
    1dec:	f9400fe1 	ldr	x1, [sp, #24]
    1df0:	b0000080 	adrp	x0, 12000 <__text_end+0x1164>
    1df4:	91332000 	add	x0, x0, #0xcc8
    1df8:	94000930 	bl	42b8 <printf>
/home/scm4818/optee_project/optee_os/lib/libutee/tee_api_arith_mpi.c:31
    1dfc:	528c24e0 	mov	w0, #0x6127                	// #24871
    1e00:	72a01620 	movk	w0, #0xb1, lsl #16
    1e04:	94000878 	bl	3fe4 <TEE_Panic>
/home/scm4818/optee_project/optee_os/lib/libutee/tee_api_arith_mpi.c:32 (discriminator 1)
    1e08:	14000000 	b	1e08 <mpi_panic+0x38>

0000000000001e0c <_TEE_MathAPI_Init>:
_TEE_MathAPI_Init():
/home/scm4818/optee_project/optee_os/lib/libutee/tee_api_arith_mpi.c:44
    1e0c:	a9bf7bfd 	stp	x29, x30, [sp, #-16]!
    1e10:	910003fd 	mov	x29, sp
/home/scm4818/optee_project/optee_os/lib/libutee/tee_api_arith_mpi.c:47
    1e14:	d2800002 	mov	x2, #0x0                   	// #0
    1e18:	d2860001 	mov	x1, #0x3000                	// #12288
    1e1c:	900000e0 	adrp	x0, 1d000 <ta_heap+0x7bb8>
    1e20:	9112a000 	add	x0, x0, #0x4a8
    1e24:	94003a72 	bl	107ec <mempool_alloc_pool>
    1e28:	aa0003e1 	mov	x1, x0
    1e2c:	900000a0 	adrp	x0, 15000 <_DYNAMIC>
    1e30:	f940c800 	ldr	x0, [x0, #400]
    1e34:	f9000001 	str	x1, [x0]
/home/scm4818/optee_project/optee_os/lib/libutee/tee_api_arith_mpi.c:48
    1e38:	900000a0 	adrp	x0, 15000 <_DYNAMIC>
    1e3c:	f940c800 	ldr	x0, [x0, #400]
    1e40:	f9400000 	ldr	x0, [x0]
    1e44:	f100001f 	cmp	x0, #0x0
    1e48:	540000e1 	b.ne	1e64 <_TEE_MathAPI_Init+0x58>  // b.any
/home/scm4818/optee_project/optee_os/lib/libutee/tee_api_arith_mpi.c:49
    1e4c:	b0000080 	adrp	x0, 12000 <__text_end+0x1164>
    1e50:	9133c002 	add	x2, x0, #0xcf0
    1e54:	52800621 	mov	w1, #0x31                  	// #49
    1e58:	b0000080 	adrp	x0, 12000 <__text_end+0x1164>
    1e5c:	9135e000 	add	x0, x0, #0xd78
    1e60:	97ffffcd 	bl	1d94 <api_panic>
/home/scm4818/optee_project/optee_os/lib/libutee/tee_api_arith_mpi.c:50
    1e64:	d503201f 	nop
    1e68:	a8c17bfd 	ldp	x29, x30, [sp], #16
    1e6c:	d65f03c0 	ret

0000000000001e70 <copy_mpi_to_bigint>:
copy_mpi_to_bigint():
/home/scm4818/optee_project/optee_os/lib/libutee/tee_api_arith_mpi.c:61
    1e70:	a9bd7bfd 	stp	x29, x30, [sp, #-48]!
    1e74:	910003fd 	mov	x29, sp
    1e78:	f9000fe0 	str	x0, [sp, #24]
    1e7c:	f9000be1 	str	x1, [sp, #16]
/home/scm4818/optee_project/optee_os/lib/libutee/tee_api_arith_mpi.c:62
    1e80:	f9400be0 	ldr	x0, [sp, #16]
    1e84:	f90013e0 	str	x0, [sp, #32]
/home/scm4818/optee_project/optee_os/lib/libutee/tee_api_arith_mpi.c:63
    1e88:	f9400fe0 	ldr	x0, [sp, #24]
    1e8c:	f9400400 	ldr	x0, [x0, #8]
    1e90:	f90017e0 	str	x0, [sp, #40]
/home/scm4818/optee_project/optee_os/lib/libutee/tee_api_arith_mpi.c:66
    1e94:	14000004 	b	1ea4 <copy_mpi_to_bigint+0x34>
/home/scm4818/optee_project/optee_os/lib/libutee/tee_api_arith_mpi.c:67
    1e98:	f94017e0 	ldr	x0, [sp, #40]
    1e9c:	d1000400 	sub	x0, x0, #0x1
    1ea0:	f90017e0 	str	x0, [sp, #40]
/home/scm4818/optee_project/optee_os/lib/libutee/tee_api_arith_mpi.c:66
    1ea4:	f94017e0 	ldr	x0, [sp, #40]
    1ea8:	f100001f 	cmp	x0, #0x0
    1eac:	54000140 	b.eq	1ed4 <copy_mpi_to_bigint+0x64>  // b.none
/home/scm4818/optee_project/optee_os/lib/libutee/tee_api_arith_mpi.c:66 (discriminator 1)
    1eb0:	f9400fe0 	ldr	x0, [sp, #24]
    1eb4:	f9400801 	ldr	x1, [x0, #16]
    1eb8:	f94017e0 	ldr	x0, [sp, #40]
    1ebc:	d37ef400 	lsl	x0, x0, #2
    1ec0:	d1001000 	sub	x0, x0, #0x4
    1ec4:	8b000020 	add	x0, x1, x0
    1ec8:	b9400000 	ldr	w0, [x0]
    1ecc:	7100001f 	cmp	w0, #0x0
    1ed0:	54fffe40 	b.eq	1e98 <copy_mpi_to_bigint+0x28>  // b.none
/home/scm4818/optee_project/optee_os/lib/libutee/tee_api_arith_mpi.c:69
    1ed4:	f94013e0 	ldr	x0, [sp, #32]
    1ed8:	79400800 	ldrh	w0, [x0, #4]
    1edc:	92403c00 	and	x0, x0, #0xffff
    1ee0:	f94017e1 	ldr	x1, [sp, #40]
    1ee4:	eb00003f 	cmp	x1, x0
    1ee8:	54000069 	b.ls	1ef4 <copy_mpi_to_bigint+0x84>  // b.plast
/home/scm4818/optee_project/optee_os/lib/libutee/tee_api_arith_mpi.c:70
    1eec:	1299fe00 	mov	w0, #0xffff300f            	// #-53233
    1ef0:	14000015 	b	1f44 <copy_mpi_to_bigint+0xd4>
/home/scm4818/optee_project/optee_os/lib/libutee/tee_api_arith_mpi.c:72
    1ef4:	f94017e0 	ldr	x0, [sp, #40]
    1ef8:	12003c01 	and	w1, w0, #0xffff
    1efc:	f94013e0 	ldr	x0, [sp, #32]
    1f00:	79000c01 	strh	w1, [x0, #6]
/home/scm4818/optee_project/optee_os/lib/libutee/tee_api_arith_mpi.c:73
    1f04:	f9400fe0 	ldr	x0, [sp, #24]
    1f08:	79c00000 	ldrsh	w0, [x0]
    1f0c:	2a0003e1 	mov	w1, w0
    1f10:	f94013e0 	ldr	x0, [sp, #32]
    1f14:	b9000001 	str	w1, [x0]
/home/scm4818/optee_project/optee_os/lib/libutee/tee_api_arith_mpi.c:74
    1f18:	f94013e0 	ldr	x0, [sp, #32]
    1f1c:	91002003 	add	x3, x0, #0x8
    1f20:	f9400fe0 	ldr	x0, [sp, #24]
    1f24:	f9400801 	ldr	x1, [x0, #16]
    1f28:	f9400fe0 	ldr	x0, [sp, #24]
    1f2c:	f9400400 	ldr	x0, [x0, #8]
    1f30:	d37ef400 	lsl	x0, x0, #2
    1f34:	aa0003e2 	mov	x2, x0
    1f38:	aa0303e0 	mov	x0, x3
    1f3c:	97fff839 	bl	20 <memcpy>
/home/scm4818/optee_project/optee_os/lib/libutee/tee_api_arith_mpi.c:76
    1f40:	52800000 	mov	w0, #0x0                   	// #0
/home/scm4818/optee_project/optee_os/lib/libutee/tee_api_arith_mpi.c:77
    1f44:	a8c37bfd 	ldp	x29, x30, [sp], #48
    1f48:	d65f03c0 	ret

0000000000001f4c <get_mpi>:
get_mpi():
/home/scm4818/optee_project/optee_os/lib/libutee/tee_api_arith_mpi.c:86
    1f4c:	a9bc7bfd 	stp	x29, x30, [sp, #-64]!
    1f50:	910003fd 	mov	x29, sp
    1f54:	f9000fe0 	str	x0, [sp, #24]
    1f58:	f9000be1 	str	x1, [sp, #16]
/home/scm4818/optee_project/optee_os/lib/libutee/tee_api_arith_mpi.c:92
    1f5c:	d503201f 	nop
/home/scm4818/optee_project/optee_os/lib/libutee/tee_api_arith_mpi.c:98
    1f60:	d503201f 	nop
/home/scm4818/optee_project/optee_os/lib/libutee/tee_api_arith_mpi.c:101
    1f64:	f9400fe0 	ldr	x0, [sp, #24]
    1f68:	94000953 	bl	44b4 <mbedtls_mpi_init_mempool>
/home/scm4818/optee_project/optee_os/lib/libutee/tee_api_arith_mpi.c:103
    1f6c:	f9400be0 	ldr	x0, [sp, #16]
    1f70:	f100001f 	cmp	x0, #0x0
    1f74:	54000640 	b.eq	203c <get_mpi+0xf0>  // b.none
/home/scm4818/optee_project/optee_os/lib/libutee/tee_api_arith_mpi.c:104
    1f78:	f9400be0 	ldr	x0, [sp, #16]
    1f7c:	f9001be0 	str	x0, [sp, #48]
/home/scm4818/optee_project/optee_os/lib/libutee/tee_api_arith_mpi.c:105
    1f80:	f9401be0 	ldr	x0, [sp, #48]
    1f84:	91002000 	add	x0, x0, #0x8
    1f88:	f90017e0 	str	x0, [sp, #40]
/home/scm4818/optee_project/optee_os/lib/libutee/tee_api_arith_mpi.c:106
    1f8c:	f9401be0 	ldr	x0, [sp, #48]
    1f90:	79400c00 	ldrh	w0, [x0, #6]
    1f94:	92403c00 	and	x0, x0, #0xffff
    1f98:	f9001fe0 	str	x0, [sp, #56]
/home/scm4818/optee_project/optee_os/lib/libutee/tee_api_arith_mpi.c:109
    1f9c:	14000004 	b	1fac <get_mpi+0x60>
/home/scm4818/optee_project/optee_os/lib/libutee/tee_api_arith_mpi.c:110
    1fa0:	f9401fe0 	ldr	x0, [sp, #56]
    1fa4:	d1000400 	sub	x0, x0, #0x1
    1fa8:	f9001fe0 	str	x0, [sp, #56]
/home/scm4818/optee_project/optee_os/lib/libutee/tee_api_arith_mpi.c:109
    1fac:	f9401fe0 	ldr	x0, [sp, #56]
    1fb0:	f100001f 	cmp	x0, #0x0
    1fb4:	54000120 	b.eq	1fd8 <get_mpi+0x8c>  // b.none
/home/scm4818/optee_project/optee_os/lib/libutee/tee_api_arith_mpi.c:109 (discriminator 1)
    1fb8:	f9401fe0 	ldr	x0, [sp, #56]
    1fbc:	d37ef400 	lsl	x0, x0, #2
    1fc0:	d1001000 	sub	x0, x0, #0x4
    1fc4:	f94017e1 	ldr	x1, [sp, #40]
    1fc8:	8b000020 	add	x0, x1, x0
    1fcc:	b9400000 	ldr	w0, [x0]
    1fd0:	7100001f 	cmp	w0, #0x0
    1fd4:	54fffe60 	b.eq	1fa0 <get_mpi+0x54>  // b.none
/home/scm4818/optee_project/optee_os/lib/libutee/tee_api_arith_mpi.c:112
    1fd8:	f9401fe1 	ldr	x1, [sp, #56]
    1fdc:	f9400fe0 	ldr	x0, [sp, #24]
    1fe0:	94000971 	bl	45a4 <mbedtls_mpi_grow>
    1fe4:	b90027e0 	str	w0, [sp, #36]
    1fe8:	b94027e0 	ldr	w0, [sp, #36]
    1fec:	7100001f 	cmp	w0, #0x0
    1ff0:	540000c0 	b.eq	2008 <get_mpi+0xbc>  // b.none
/home/scm4818/optee_project/optee_os/lib/libutee/tee_api_arith_mpi.c:112 (discriminator 1)
    1ff4:	b94027e2 	ldr	w2, [sp, #36]
    1ff8:	52800e01 	mov	w1, #0x70                  	// #112
    1ffc:	b0000080 	adrp	x0, 12000 <__text_end+0x1164>
    2000:	91364000 	add	x0, x0, #0xd90
    2004:	97ffff73 	bl	1dd0 <mpi_panic>
/home/scm4818/optee_project/optee_os/lib/libutee/tee_api_arith_mpi.c:113
    2008:	f9401be0 	ldr	x0, [sp, #48]
    200c:	b9400000 	ldr	w0, [x0]
    2010:	13003c01 	sxth	w1, w0
    2014:	f9400fe0 	ldr	x0, [sp, #24]
    2018:	79000001 	strh	w1, [x0]
/home/scm4818/optee_project/optee_os/lib/libutee/tee_api_arith_mpi.c:114
    201c:	f9400fe0 	ldr	x0, [sp, #24]
    2020:	f9400803 	ldr	x3, [x0, #16]
    2024:	f9401fe0 	ldr	x0, [sp, #56]
    2028:	d37ef400 	lsl	x0, x0, #2
    202c:	aa0003e2 	mov	x2, x0
    2030:	f94017e1 	ldr	x1, [sp, #40]
    2034:	aa0303e0 	mov	x0, x3
    2038:	97fff7fa 	bl	20 <memcpy>
/home/scm4818/optee_project/optee_os/lib/libutee/tee_api_arith_mpi.c:116
    203c:	d503201f 	nop
    2040:	a8c47bfd 	ldp	x29, x30, [sp], #64
    2044:	d65f03c0 	ret

0000000000002048 <TEE_BigIntInit>:
TEE_BigIntInit():
/home/scm4818/optee_project/optee_os/lib/libutee/tee_api_arith_mpi.c:119
    2048:	a9bd7bfd 	stp	x29, x30, [sp, #-48]!
    204c:	910003fd 	mov	x29, sp
    2050:	f9000fe0 	str	x0, [sp, #24]
    2054:	b90017e1 	str	w1, [sp, #20]
/home/scm4818/optee_project/optee_os/lib/libutee/tee_api_arith_mpi.c:120
    2058:	b94017e0 	ldr	w0, [sp, #20]
    205c:	11007c00 	add	w0, w0, #0x1f
    2060:	53057c00 	lsr	w0, w0, #5
    2064:	11000800 	add	w0, w0, #0x2
    2068:	2a0003e0 	mov	w0, w0
    206c:	d37ef400 	lsl	x0, x0, #2
    2070:	aa0003e2 	mov	x2, x0
    2074:	52800001 	mov	w1, #0x0                   	// #0
    2078:	f9400fe0 	ldr	x0, [sp, #24]
    207c:	94002f6e 	bl	de34 <memset>
/home/scm4818/optee_project/optee_os/lib/libutee/tee_api_arith_mpi.c:122
    2080:	f9400fe0 	ldr	x0, [sp, #24]
    2084:	f90017e0 	str	x0, [sp, #40]
/home/scm4818/optee_project/optee_os/lib/libutee/tee_api_arith_mpi.c:125
    2088:	f94017e0 	ldr	x0, [sp, #40]
    208c:	52800021 	mov	w1, #0x1                   	// #1
    2090:	b9000001 	str	w1, [x0]
/home/scm4818/optee_project/optee_os/lib/libutee/tee_api_arith_mpi.c:126
    2094:	b94017e0 	ldr	w0, [sp, #20]
    2098:	51000801 	sub	w1, w0, #0x2
    209c:	5284e200 	mov	w0, #0x2710                	// #10000
    20a0:	6b00003f 	cmp	w1, w0
    20a4:	540000e9 	b.ls	20c0 <TEE_BigIntInit+0x78>  // b.plast
/home/scm4818/optee_project/optee_os/lib/libutee/tee_api_arith_mpi.c:127
    20a8:	90000080 	adrp	x0, 12000 <__text_end+0x1164>
    20ac:	91346002 	add	x2, x0, #0xd18
    20b0:	52800fe1 	mov	w1, #0x7f                  	// #127
    20b4:	90000080 	adrp	x0, 12000 <__text_end+0x1164>
    20b8:	91366000 	add	x0, x0, #0xd98
    20bc:	97ffff36 	bl	1d94 <api_panic>
/home/scm4818/optee_project/optee_os/lib/libutee/tee_api_arith_mpi.c:128
    20c0:	b94017e0 	ldr	w0, [sp, #20]
    20c4:	12003c00 	and	w0, w0, #0xffff
    20c8:	51000800 	sub	w0, w0, #0x2
    20cc:	12003c01 	and	w1, w0, #0xffff
    20d0:	f94017e0 	ldr	x0, [sp, #40]
    20d4:	79000801 	strh	w1, [x0, #4]
/home/scm4818/optee_project/optee_os/lib/libutee/tee_api_arith_mpi.c:129
    20d8:	d503201f 	nop
    20dc:	a8c37bfd 	ldp	x29, x30, [sp], #48
    20e0:	d65f03c0 	ret

00000000000020e4 <TEE_BigIntConvertFromOctetString>:
TEE_BigIntConvertFromOctetString():
/home/scm4818/optee_project/optee_os/lib/libutee/tee_api_arith_mpi.c:134
    20e4:	a9bb7bfd 	stp	x29, x30, [sp, #-80]!
    20e8:	910003fd 	mov	x29, sp
    20ec:	f90017e0 	str	x0, [sp, #40]
    20f0:	f90013e1 	str	x1, [sp, #32]
    20f4:	b9001fe2 	str	w2, [sp, #28]
    20f8:	b9001be3 	str	w3, [sp, #24]
/home/scm4818/optee_project/optee_os/lib/libutee/tee_api_arith_mpi.c:138
    20fc:	9100c3e0 	add	x0, sp, #0x30
    2100:	d2800001 	mov	x1, #0x0                   	// #0
    2104:	97ffff92 	bl	1f4c <get_mpi>
/home/scm4818/optee_project/optee_os/lib/libutee/tee_api_arith_mpi.c:140
    2108:	b9401fe1 	ldr	w1, [sp, #28]
    210c:	9100c3e0 	add	x0, sp, #0x30
    2110:	aa0103e2 	mov	x2, x1
    2114:	f94013e1 	ldr	x1, [sp, #32]
    2118:	94000f27 	bl	5db4 <mbedtls_mpi_read_binary>
    211c:	7100001f 	cmp	w0, #0x0
    2120:	54000080 	b.eq	2130 <TEE_BigIntConvertFromOctetString+0x4c>  // b.none
/home/scm4818/optee_project/optee_os/lib/libutee/tee_api_arith_mpi.c:141
    2124:	1299fe00 	mov	w0, #0xffff300f            	// #-53233
    2128:	b9004fe0 	str	w0, [sp, #76]
    212c:	14000002 	b	2134 <TEE_BigIntConvertFromOctetString+0x50>
/home/scm4818/optee_project/optee_os/lib/libutee/tee_api_arith_mpi.c:143
    2130:	b9004fff 	str	wzr, [sp, #76]
/home/scm4818/optee_project/optee_os/lib/libutee/tee_api_arith_mpi.c:145
    2134:	b9401be0 	ldr	w0, [sp, #24]
    2138:	7100001f 	cmp	w0, #0x0
    213c:	5400006a 	b.ge	2148 <TEE_BigIntConvertFromOctetString+0x64>  // b.tcont
/home/scm4818/optee_project/optee_os/lib/libutee/tee_api_arith_mpi.c:146
    2140:	12800000 	mov	w0, #0xffffffff            	// #-1
    2144:	790063e0 	strh	w0, [sp, #48]
/home/scm4818/optee_project/optee_os/lib/libutee/tee_api_arith_mpi.c:148
    2148:	b9404fe0 	ldr	w0, [sp, #76]
    214c:	7100001f 	cmp	w0, #0x0
    2150:	540000a1 	b.ne	2164 <TEE_BigIntConvertFromOctetString+0x80>  // b.any
/home/scm4818/optee_project/optee_os/lib/libutee/tee_api_arith_mpi.c:149
    2154:	9100c3e0 	add	x0, sp, #0x30
    2158:	f94017e1 	ldr	x1, [sp, #40]
    215c:	97ffff45 	bl	1e70 <copy_mpi_to_bigint>
    2160:	b9004fe0 	str	w0, [sp, #76]
/home/scm4818/optee_project/optee_os/lib/libutee/tee_api_arith_mpi.c:151
    2164:	9100c3e0 	add	x0, sp, #0x30
    2168:	940008e3 	bl	44f4 <mbedtls_mpi_free>
/home/scm4818/optee_project/optee_os/lib/libutee/tee_api_arith_mpi.c:153
    216c:	b9404fe0 	ldr	w0, [sp, #76]
/home/scm4818/optee_project/optee_os/lib/libutee/tee_api_arith_mpi.c:154
    2170:	a8c57bfd 	ldp	x29, x30, [sp], #80
    2174:	d65f03c0 	ret

0000000000002178 <TEE_BigIntConvertToOctetString>:
TEE_BigIntConvertToOctetString():
/home/scm4818/optee_project/optee_os/lib/libutee/tee_api_arith_mpi.c:158
    2178:	a9ba7bfd 	stp	x29, x30, [sp, #-96]!
    217c:	910003fd 	mov	x29, sp
    2180:	f90017e0 	str	x0, [sp, #40]
    2184:	f90013e1 	str	x1, [sp, #32]
    2188:	f9000fe2 	str	x2, [sp, #24]
/home/scm4818/optee_project/optee_os/lib/libutee/tee_api_arith_mpi.c:159
    218c:	b9005fff 	str	wzr, [sp, #92]
/home/scm4818/optee_project/optee_os/lib/libutee/tee_api_arith_mpi.c:163
    2190:	9100c3e0 	add	x0, sp, #0x30
    2194:	f9400fe1 	ldr	x1, [sp, #24]
    2198:	97ffff6d 	bl	1f4c <get_mpi>
/home/scm4818/optee_project/optee_os/lib/libutee/tee_api_arith_mpi.c:165
    219c:	9100c3e0 	add	x0, sp, #0x30
    21a0:	94000c4a 	bl	52c8 <mbedtls_mpi_size>
    21a4:	f9002be0 	str	x0, [sp, #80]
/home/scm4818/optee_project/optee_os/lib/libutee/tee_api_arith_mpi.c:166
    21a8:	f94013e0 	ldr	x0, [sp, #32]
    21ac:	b9400000 	ldr	w0, [x0]
    21b0:	2a0003e0 	mov	w0, w0
    21b4:	f9402be1 	ldr	x1, [sp, #80]
    21b8:	eb00003f 	cmp	x1, x0
    21bc:	540001c8 	b.hi	21f4 <TEE_BigIntConvertToOctetString+0x7c>  // b.pmore
/home/scm4818/optee_project/optee_os/lib/libutee/tee_api_arith_mpi.c:167
    21c0:	9100c3e0 	add	x0, sp, #0x30
    21c4:	f9402be2 	ldr	x2, [sp, #80]
    21c8:	f94017e1 	ldr	x1, [sp, #40]
    21cc:	94000f98 	bl	602c <mbedtls_mpi_write_binary>
    21d0:	b9004fe0 	str	w0, [sp, #76]
    21d4:	b9404fe0 	ldr	w0, [sp, #76]
    21d8:	7100001f 	cmp	w0, #0x0
    21dc:	54000100 	b.eq	21fc <TEE_BigIntConvertToOctetString+0x84>  // b.none
/home/scm4818/optee_project/optee_os/lib/libutee/tee_api_arith_mpi.c:167 (discriminator 1)
    21e0:	b9404fe2 	ldr	w2, [sp, #76]
    21e4:	528014e1 	mov	w1, #0xa7                  	// #167
    21e8:	90000080 	adrp	x0, 12000 <__text_end+0x1164>
    21ec:	9136a000 	add	x0, x0, #0xda8
    21f0:	97fffef8 	bl	1dd0 <mpi_panic>
/home/scm4818/optee_project/optee_os/lib/libutee/tee_api_arith_mpi.c:169
    21f4:	129ffde0 	mov	w0, #0xffff0010            	// #-65520
    21f8:	b9005fe0 	str	w0, [sp, #92]
/home/scm4818/optee_project/optee_os/lib/libutee/tee_api_arith_mpi.c:171
    21fc:	f9402be0 	ldr	x0, [sp, #80]
    2200:	2a0003e1 	mov	w1, w0
    2204:	f94013e0 	ldr	x0, [sp, #32]
    2208:	b9000001 	str	w1, [x0]
/home/scm4818/optee_project/optee_os/lib/libutee/tee_api_arith_mpi.c:173
    220c:	9100c3e0 	add	x0, sp, #0x30
    2210:	940008b9 	bl	44f4 <mbedtls_mpi_free>
/home/scm4818/optee_project/optee_os/lib/libutee/tee_api_arith_mpi.c:175
    2214:	b9405fe0 	ldr	w0, [sp, #92]
/home/scm4818/optee_project/optee_os/lib/libutee/tee_api_arith_mpi.c:176
    2218:	a8c67bfd 	ldp	x29, x30, [sp], #96
    221c:	d65f03c0 	ret

0000000000002220 <TEE_BigIntConvertFromS32>:
TEE_BigIntConvertFromS32():
/home/scm4818/optee_project/optee_os/lib/libutee/tee_api_arith_mpi.c:179
    2220:	a9bc7bfd 	stp	x29, x30, [sp, #-64]!
    2224:	910003fd 	mov	x29, sp
    2228:	f9000fe0 	str	x0, [sp, #24]
    222c:	b90017e1 	str	w1, [sp, #20]
/home/scm4818/optee_project/optee_os/lib/libutee/tee_api_arith_mpi.c:182
    2230:	910083e0 	add	x0, sp, #0x20
    2234:	f9400fe1 	ldr	x1, [sp, #24]
    2238:	97ffff45 	bl	1f4c <get_mpi>
/home/scm4818/optee_project/optee_os/lib/libutee/tee_api_arith_mpi.c:184
    223c:	910083e0 	add	x0, sp, #0x20
    2240:	b94017e1 	ldr	w1, [sp, #20]
    2244:	94000b21 	bl	4ec8 <mbedtls_mpi_lset>
    2248:	b9003fe0 	str	w0, [sp, #60]
    224c:	b9403fe0 	ldr	w0, [sp, #60]
    2250:	7100001f 	cmp	w0, #0x0
    2254:	540000c0 	b.eq	226c <TEE_BigIntConvertFromS32+0x4c>  // b.none
/home/scm4818/optee_project/optee_os/lib/libutee/tee_api_arith_mpi.c:184 (discriminator 1)
    2258:	b9403fe2 	ldr	w2, [sp, #60]
    225c:	52801701 	mov	w1, #0xb8                  	// #184
    2260:	90000080 	adrp	x0, 12000 <__text_end+0x1164>
    2264:	91372000 	add	x0, x0, #0xdc8
    2268:	97fffeda 	bl	1dd0 <mpi_panic>
/home/scm4818/optee_project/optee_os/lib/libutee/tee_api_arith_mpi.c:186
    226c:	910083e0 	add	x0, sp, #0x20
    2270:	f9400fe1 	ldr	x1, [sp, #24]
    2274:	97fffeff 	bl	1e70 <copy_mpi_to_bigint>
    2278:	b9003be0 	str	w0, [sp, #56]
    227c:	b9403be0 	ldr	w0, [sp, #56]
    2280:	7100001f 	cmp	w0, #0x0
    2284:	540000c0 	b.eq	229c <TEE_BigIntConvertFromS32+0x7c>  // b.none
/home/scm4818/optee_project/optee_os/lib/libutee/tee_api_arith_mpi.c:186 (discriminator 1)
    2288:	b9403be2 	ldr	w2, [sp, #56]
    228c:	52801741 	mov	w1, #0xba                  	// #186
    2290:	90000080 	adrp	x0, 12000 <__text_end+0x1164>
    2294:	91372000 	add	x0, x0, #0xdc8
    2298:	97fffece 	bl	1dd0 <mpi_panic>
/home/scm4818/optee_project/optee_os/lib/libutee/tee_api_arith_mpi.c:187
    229c:	910083e0 	add	x0, sp, #0x20
    22a0:	94000895 	bl	44f4 <mbedtls_mpi_free>
/home/scm4818/optee_project/optee_os/lib/libutee/tee_api_arith_mpi.c:188
    22a4:	d503201f 	nop
    22a8:	a8c47bfd 	ldp	x29, x30, [sp], #64
    22ac:	d65f03c0 	ret

00000000000022b0 <TEE_BigIntConvertToS32>:
TEE_BigIntConvertToS32():
/home/scm4818/optee_project/optee_os/lib/libutee/tee_api_arith_mpi.c:191
    22b0:	a9bb7bfd 	stp	x29, x30, [sp, #-80]!
    22b4:	910003fd 	mov	x29, sp
    22b8:	f9000fe0 	str	x0, [sp, #24]
    22bc:	f9000be1 	str	x1, [sp, #16]
/home/scm4818/optee_project/optee_os/lib/libutee/tee_api_arith_mpi.c:192
    22c0:	b9004fff 	str	wzr, [sp, #76]
/home/scm4818/optee_project/optee_os/lib/libutee/tee_api_arith_mpi.c:196
    22c4:	9100c3e0 	add	x0, sp, #0x30
    22c8:	f9400be1 	ldr	x1, [sp, #16]
    22cc:	97ffff20 	bl	1f4c <get_mpi>
/home/scm4818/optee_project/optee_os/lib/libutee/tee_api_arith_mpi.c:198
    22d0:	9100b3e1 	add	x1, sp, #0x2c
    22d4:	9100c3e0 	add	x0, sp, #0x30
    22d8:	d2800082 	mov	x2, #0x4                   	// #4
    22dc:	94000f54 	bl	602c <mbedtls_mpi_write_binary>
    22e0:	7100001f 	cmp	w0, #0x0
    22e4:	54000080 	b.eq	22f4 <TEE_BigIntConvertToS32+0x44>  // b.none
/home/scm4818/optee_project/optee_os/lib/libutee/tee_api_arith_mpi.c:199
    22e8:	1299fe00 	mov	w0, #0xffff300f            	// #-53233
    22ec:	b9004fe0 	str	w0, [sp, #76]
/home/scm4818/optee_project/optee_os/lib/libutee/tee_api_arith_mpi.c:200
    22f0:	1400002d 	b	23a4 <TEE_BigIntConvertToS32+0xf4>
/home/scm4818/optee_project/optee_os/lib/libutee/tee_api_arith_mpi.c:203
    22f4:	79c063e0 	ldrsh	w0, [sp, #48]
    22f8:	7100001f 	cmp	w0, #0x0
    22fc:	5400028d 	b.le	234c <TEE_BigIntConvertToS32+0x9c>
/home/scm4818/optee_project/optee_os/lib/libutee/tee_api_arith_mpi.c:204
    2300:	b9402fe0 	ldr	w0, [sp, #44]
    2304:	5ac00800 	rev	w0, w0
    2308:	52800002 	mov	w2, #0x0                   	// #0
    230c:	2a0003e0 	mov	w0, w0
    2310:	93407c01 	sxtw	x1, w0
    2314:	eb01001f 	cmp	x0, x1
    2318:	54000040 	b.eq	2320 <TEE_BigIntConvertToS32+0x70>  // b.none
    231c:	52800022 	mov	w2, #0x1                   	// #1
    2320:	2a0003e1 	mov	w1, w0
    2324:	f9400fe0 	ldr	x0, [sp, #24]
    2328:	b9000001 	str	w1, [x0]
    232c:	2a0203e0 	mov	w0, w2
    2330:	12000000 	and	w0, w0, #0x1
    2334:	12001c00 	and	w0, w0, #0xff
    2338:	7100001f 	cmp	w0, #0x0
    233c:	54000340 	b.eq	23a4 <TEE_BigIntConvertToS32+0xf4>  // b.none
/home/scm4818/optee_project/optee_os/lib/libutee/tee_api_arith_mpi.c:205
    2340:	1299fe00 	mov	w0, #0xffff300f            	// #-53233
    2344:	b9004fe0 	str	w0, [sp, #76]
    2348:	14000017 	b	23a4 <TEE_BigIntConvertToS32+0xf4>
/home/scm4818/optee_project/optee_os/lib/libutee/tee_api_arith_mpi.c:207
    234c:	b9402fe0 	ldr	w0, [sp, #44]
    2350:	5ac00800 	rev	w0, w0
    2354:	52800002 	mov	w2, #0x0                   	// #0
    2358:	2a0003e0 	mov	w0, w0
    235c:	d2800001 	mov	x1, #0x0                   	// #0
    2360:	cb000020 	sub	x0, x1, x0
    2364:	93407c01 	sxtw	x1, w0
    2368:	eb01001f 	cmp	x0, x1
    236c:	54000040 	b.eq	2374 <TEE_BigIntConvertToS32+0xc4>  // b.none
    2370:	52800022 	mov	w2, #0x1                   	// #1
    2374:	2a0003e1 	mov	w1, w0
    2378:	f9400fe0 	ldr	x0, [sp, #24]
    237c:	b9000001 	str	w1, [x0]
    2380:	2a0203e0 	mov	w0, w2
    2384:	12000000 	and	w0, w0, #0x1
    2388:	12001c00 	and	w0, w0, #0xff
    238c:	7100001f 	cmp	w0, #0x0
    2390:	54000080 	b.eq	23a0 <TEE_BigIntConvertToS32+0xf0>  // b.none
/home/scm4818/optee_project/optee_os/lib/libutee/tee_api_arith_mpi.c:208
    2394:	1299fe00 	mov	w0, #0xffff300f            	// #-53233
    2398:	b9004fe0 	str	w0, [sp, #76]
    239c:	14000002 	b	23a4 <TEE_BigIntConvertToS32+0xf4>
/home/scm4818/optee_project/optee_os/lib/libutee/tee_api_arith_mpi.c:211
    23a0:	d503201f 	nop
/home/scm4818/optee_project/optee_os/lib/libutee/tee_api_arith_mpi.c:212
    23a4:	9100c3e0 	add	x0, sp, #0x30
    23a8:	94000853 	bl	44f4 <mbedtls_mpi_free>
/home/scm4818/optee_project/optee_os/lib/libutee/tee_api_arith_mpi.c:214
    23ac:	b9404fe0 	ldr	w0, [sp, #76]
/home/scm4818/optee_project/optee_os/lib/libutee/tee_api_arith_mpi.c:215
    23b0:	a8c57bfd 	ldp	x29, x30, [sp], #80
    23b4:	d65f03c0 	ret

00000000000023b8 <TEE_BigIntCmp>:
TEE_BigIntCmp():
/home/scm4818/optee_project/optee_os/lib/libutee/tee_api_arith_mpi.c:218
    23b8:	a9ba7bfd 	stp	x29, x30, [sp, #-96]!
    23bc:	910003fd 	mov	x29, sp
    23c0:	f9000fe0 	str	x0, [sp, #24]
    23c4:	f9000be1 	str	x1, [sp, #16]
/home/scm4818/optee_project/optee_os/lib/libutee/tee_api_arith_mpi.c:223
    23c8:	910103e0 	add	x0, sp, #0x40
    23cc:	f9400fe1 	ldr	x1, [sp, #24]
    23d0:	97fffedf 	bl	1f4c <get_mpi>
/home/scm4818/optee_project/optee_os/lib/libutee/tee_api_arith_mpi.c:224
    23d4:	9100a3e0 	add	x0, sp, #0x28
    23d8:	f9400be1 	ldr	x1, [sp, #16]
    23dc:	97fffedc 	bl	1f4c <get_mpi>
/home/scm4818/optee_project/optee_os/lib/libutee/tee_api_arith_mpi.c:226
    23e0:	9100a3e1 	add	x1, sp, #0x28
    23e4:	910103e0 	add	x0, sp, #0x40
    23e8:	940010f5 	bl	67bc <mbedtls_mpi_cmp_mpi>
    23ec:	b9005fe0 	str	w0, [sp, #92]
/home/scm4818/optee_project/optee_os/lib/libutee/tee_api_arith_mpi.c:228
    23f0:	910103e0 	add	x0, sp, #0x40
    23f4:	94000840 	bl	44f4 <mbedtls_mpi_free>
/home/scm4818/optee_project/optee_os/lib/libutee/tee_api_arith_mpi.c:229
    23f8:	9100a3e0 	add	x0, sp, #0x28
    23fc:	9400083e 	bl	44f4 <mbedtls_mpi_free>
/home/scm4818/optee_project/optee_os/lib/libutee/tee_api_arith_mpi.c:231
    2400:	b9405fe0 	ldr	w0, [sp, #92]
/home/scm4818/optee_project/optee_os/lib/libutee/tee_api_arith_mpi.c:232
    2404:	a8c67bfd 	ldp	x29, x30, [sp], #96
    2408:	d65f03c0 	ret

000000000000240c <TEE_BigIntCmpS32>:
TEE_BigIntCmpS32():
/home/scm4818/optee_project/optee_os/lib/libutee/tee_api_arith_mpi.c:235
    240c:	a9bc7bfd 	stp	x29, x30, [sp, #-64]!
    2410:	910003fd 	mov	x29, sp
    2414:	f9000fe0 	str	x0, [sp, #24]
    2418:	b90017e1 	str	w1, [sp, #20]
/home/scm4818/optee_project/optee_os/lib/libutee/tee_api_arith_mpi.c:239
    241c:	910083e0 	add	x0, sp, #0x20
    2420:	f9400fe1 	ldr	x1, [sp, #24]
    2424:	97fffeca 	bl	1f4c <get_mpi>
/home/scm4818/optee_project/optee_os/lib/libutee/tee_api_arith_mpi.c:241
    2428:	910083e0 	add	x0, sp, #0x20
    242c:	b94017e1 	ldr	w1, [sp, #20]
    2430:	940011fe 	bl	6c28 <mbedtls_mpi_cmp_int>
    2434:	b9003fe0 	str	w0, [sp, #60]
/home/scm4818/optee_project/optee_os/lib/libutee/tee_api_arith_mpi.c:243
    2438:	910083e0 	add	x0, sp, #0x20
    243c:	9400082e 	bl	44f4 <mbedtls_mpi_free>
/home/scm4818/optee_project/optee_os/lib/libutee/tee_api_arith_mpi.c:245
    2440:	b9403fe0 	ldr	w0, [sp, #60]
/home/scm4818/optee_project/optee_os/lib/libutee/tee_api_arith_mpi.c:246
    2444:	a8c47bfd 	ldp	x29, x30, [sp], #64
    2448:	d65f03c0 	ret

000000000000244c <TEE_BigIntShiftRight>:
TEE_BigIntShiftRight():
/home/scm4818/optee_project/optee_os/lib/libutee/tee_api_arith_mpi.c:249
    244c:	a9b57bfd 	stp	x29, x30, [sp, #-176]!
    2450:	910003fd 	mov	x29, sp
    2454:	f9000bf3 	str	x19, [sp, #16]
    2458:	f9001fe0 	str	x0, [sp, #56]
    245c:	f9001be1 	str	x1, [sp, #48]
    2460:	f90017e2 	str	x2, [sp, #40]
/home/scm4818/optee_project/optee_os/lib/libutee/tee_api_arith_mpi.c:253
    2464:	9101e3e0 	add	x0, sp, #0x78
    2468:	f9401fe1 	ldr	x1, [sp, #56]
    246c:	97fffeb8 	bl	1f4c <get_mpi>
/home/scm4818/optee_project/optee_os/lib/libutee/tee_api_arith_mpi.c:255
    2470:	f9401fe1 	ldr	x1, [sp, #56]
    2474:	f9401be0 	ldr	x0, [sp, #48]
    2478:	eb00003f 	cmp	x1, x0
    247c:	540001a1 	b.ne	24b0 <TEE_BigIntShiftRight+0x64>  // b.any
/home/scm4818/optee_project/optee_os/lib/libutee/tee_api_arith_mpi.c:256
    2480:	9101e3e0 	add	x0, sp, #0x78
    2484:	f94017e1 	ldr	x1, [sp, #40]
    2488:	94000fd7 	bl	63e4 <mbedtls_mpi_shift_r>
    248c:	b900afe0 	str	w0, [sp, #172]
    2490:	b940afe0 	ldr	w0, [sp, #172]
    2494:	7100001f 	cmp	w0, #0x0
    2498:	54000a80 	b.eq	25e8 <TEE_BigIntShiftRight+0x19c>  // b.none
/home/scm4818/optee_project/optee_os/lib/libutee/tee_api_arith_mpi.c:256 (discriminator 1)
    249c:	b940afe2 	ldr	w2, [sp, #172]
    24a0:	52802001 	mov	w1, #0x100                 	// #256
    24a4:	90000080 	adrp	x0, 12000 <__text_end+0x1164>
    24a8:	9137a000 	add	x0, x0, #0xde8
    24ac:	97fffe49 	bl	1dd0 <mpi_panic>
/home/scm4818/optee_project/optee_os/lib/libutee/tee_api_arith_mpi.c:260
    24b0:	910183e0 	add	x0, sp, #0x60
    24b4:	f9401be1 	ldr	x1, [sp, #48]
    24b8:	97fffea5 	bl	1f4c <get_mpi>
/home/scm4818/optee_project/optee_os/lib/libutee/tee_api_arith_mpi.c:262
    24bc:	9101e3e0 	add	x0, sp, #0x78
    24c0:	94000b82 	bl	52c8 <mbedtls_mpi_size>
    24c4:	aa0003f3 	mov	x19, x0
    24c8:	910183e0 	add	x0, sp, #0x60
    24cc:	94000b7f 	bl	52c8 <mbedtls_mpi_size>
    24d0:	eb00027f 	cmp	x19, x0
    24d4:	54000323 	b.cc	2538 <TEE_BigIntShiftRight+0xec>  // b.lo, b.ul, b.last
/home/scm4818/optee_project/optee_os/lib/libutee/tee_api_arith_mpi.c:263
    24d8:	910183e1 	add	x1, sp, #0x60
    24dc:	9101e3e0 	add	x0, sp, #0x78
    24e0:	9400090c 	bl	4910 <mbedtls_mpi_copy>
    24e4:	b900abe0 	str	w0, [sp, #168]
    24e8:	b940abe0 	ldr	w0, [sp, #168]
    24ec:	7100001f 	cmp	w0, #0x0
    24f0:	540000c0 	b.eq	2508 <TEE_BigIntShiftRight+0xbc>  // b.none
/home/scm4818/optee_project/optee_os/lib/libutee/tee_api_arith_mpi.c:263 (discriminator 1)
    24f4:	b940abe2 	ldr	w2, [sp, #168]
    24f8:	528020e1 	mov	w1, #0x107                 	// #263
    24fc:	90000080 	adrp	x0, 12000 <__text_end+0x1164>
    2500:	9137a000 	add	x0, x0, #0xde8
    2504:	97fffe33 	bl	1dd0 <mpi_panic>
/home/scm4818/optee_project/optee_os/lib/libutee/tee_api_arith_mpi.c:264
    2508:	9101e3e0 	add	x0, sp, #0x78
    250c:	f94017e1 	ldr	x1, [sp, #40]
    2510:	94000fb5 	bl	63e4 <mbedtls_mpi_shift_r>
    2514:	b900a7e0 	str	w0, [sp, #164]
    2518:	b940a7e0 	ldr	w0, [sp, #164]
    251c:	7100001f 	cmp	w0, #0x0
    2520:	540005e0 	b.eq	25dc <TEE_BigIntShiftRight+0x190>  // b.none
/home/scm4818/optee_project/optee_os/lib/libutee/tee_api_arith_mpi.c:264 (discriminator 1)
    2524:	b940a7e2 	ldr	w2, [sp, #164]
    2528:	52802101 	mov	w1, #0x108                 	// #264
    252c:	90000080 	adrp	x0, 12000 <__text_end+0x1164>
    2530:	9137a000 	add	x0, x0, #0xde8
    2534:	97fffe27 	bl	1dd0 <mpi_panic>
/home/scm4818/optee_project/optee_os/lib/libutee/tee_api_arith_mpi.c:268
    2538:	910123e0 	add	x0, sp, #0x48
    253c:	d2800001 	mov	x1, #0x0                   	// #0
    2540:	97fffe83 	bl	1f4c <get_mpi>
/home/scm4818/optee_project/optee_os/lib/libutee/tee_api_arith_mpi.c:275
    2544:	910183e1 	add	x1, sp, #0x60
    2548:	910123e0 	add	x0, sp, #0x48
    254c:	940008f1 	bl	4910 <mbedtls_mpi_copy>
    2550:	b900a3e0 	str	w0, [sp, #160]
    2554:	b940a3e0 	ldr	w0, [sp, #160]
    2558:	7100001f 	cmp	w0, #0x0
    255c:	540000c0 	b.eq	2574 <TEE_BigIntShiftRight+0x128>  // b.none
/home/scm4818/optee_project/optee_os/lib/libutee/tee_api_arith_mpi.c:275 (discriminator 1)
    2560:	b940a3e2 	ldr	w2, [sp, #160]
    2564:	52802261 	mov	w1, #0x113                 	// #275
    2568:	90000080 	adrp	x0, 12000 <__text_end+0x1164>
    256c:	9137a000 	add	x0, x0, #0xde8
    2570:	97fffe18 	bl	1dd0 <mpi_panic>
/home/scm4818/optee_project/optee_os/lib/libutee/tee_api_arith_mpi.c:276
    2574:	910123e0 	add	x0, sp, #0x48
    2578:	f94017e1 	ldr	x1, [sp, #40]
    257c:	94000f9a 	bl	63e4 <mbedtls_mpi_shift_r>
    2580:	b9009fe0 	str	w0, [sp, #156]
    2584:	b9409fe0 	ldr	w0, [sp, #156]
    2588:	7100001f 	cmp	w0, #0x0
    258c:	540000c0 	b.eq	25a4 <TEE_BigIntShiftRight+0x158>  // b.none
/home/scm4818/optee_project/optee_os/lib/libutee/tee_api_arith_mpi.c:276 (discriminator 1)
    2590:	b9409fe2 	ldr	w2, [sp, #156]
    2594:	52802281 	mov	w1, #0x114                 	// #276
    2598:	90000080 	adrp	x0, 12000 <__text_end+0x1164>
    259c:	9137a000 	add	x0, x0, #0xde8
    25a0:	97fffe0c 	bl	1dd0 <mpi_panic>
/home/scm4818/optee_project/optee_os/lib/libutee/tee_api_arith_mpi.c:277
    25a4:	910123e1 	add	x1, sp, #0x48
    25a8:	9101e3e0 	add	x0, sp, #0x78
    25ac:	940008d9 	bl	4910 <mbedtls_mpi_copy>
    25b0:	b9009be0 	str	w0, [sp, #152]
    25b4:	b9409be0 	ldr	w0, [sp, #152]
    25b8:	7100001f 	cmp	w0, #0x0
    25bc:	540000c0 	b.eq	25d4 <TEE_BigIntShiftRight+0x188>  // b.none
/home/scm4818/optee_project/optee_os/lib/libutee/tee_api_arith_mpi.c:277 (discriminator 1)
    25c0:	b9409be2 	ldr	w2, [sp, #152]
    25c4:	528022a1 	mov	w1, #0x115                 	// #277
    25c8:	90000080 	adrp	x0, 12000 <__text_end+0x1164>
    25cc:	9137a000 	add	x0, x0, #0xde8
    25d0:	97fffe00 	bl	1dd0 <mpi_panic>
/home/scm4818/optee_project/optee_os/lib/libutee/tee_api_arith_mpi.c:279
    25d4:	910123e0 	add	x0, sp, #0x48
    25d8:	940007c7 	bl	44f4 <mbedtls_mpi_free>
/home/scm4818/optee_project/optee_os/lib/libutee/tee_api_arith_mpi.c:282
    25dc:	910183e0 	add	x0, sp, #0x60
    25e0:	940007c5 	bl	44f4 <mbedtls_mpi_free>
    25e4:	14000002 	b	25ec <TEE_BigIntShiftRight+0x1a0>
/home/scm4818/optee_project/optee_os/lib/libutee/tee_api_arith_mpi.c:257
    25e8:	d503201f 	nop
/home/scm4818/optee_project/optee_os/lib/libutee/tee_api_arith_mpi.c:285
    25ec:	9101e3e0 	add	x0, sp, #0x78
    25f0:	f9401fe1 	ldr	x1, [sp, #56]
    25f4:	97fffe1f 	bl	1e70 <copy_mpi_to_bigint>
    25f8:	b90097e0 	str	w0, [sp, #148]
    25fc:	b94097e0 	ldr	w0, [sp, #148]
    2600:	7100001f 	cmp	w0, #0x0
    2604:	540000c0 	b.eq	261c <TEE_BigIntShiftRight+0x1d0>  // b.none
/home/scm4818/optee_project/optee_os/lib/libutee/tee_api_arith_mpi.c:285 (discriminator 1)
    2608:	b94097e2 	ldr	w2, [sp, #148]
    260c:	528023a1 	mov	w1, #0x11d                 	// #285
    2610:	90000080 	adrp	x0, 12000 <__text_end+0x1164>
    2614:	9137a000 	add	x0, x0, #0xde8
    2618:	97fffdee 	bl	1dd0 <mpi_panic>
/home/scm4818/optee_project/optee_os/lib/libutee/tee_api_arith_mpi.c:286
    261c:	9101e3e0 	add	x0, sp, #0x78
    2620:	940007b5 	bl	44f4 <mbedtls_mpi_free>
/home/scm4818/optee_project/optee_os/lib/libutee/tee_api_arith_mpi.c:287
    2624:	d503201f 	nop
    2628:	f9400bf3 	ldr	x19, [sp, #16]
    262c:	a8cb7bfd 	ldp	x29, x30, [sp], #176
    2630:	d65f03c0 	ret

0000000000002634 <TEE_BigIntGetBit>:
TEE_BigIntGetBit():
/home/scm4818/optee_project/optee_os/lib/libutee/tee_api_arith_mpi.c:290
    2634:	a9bc7bfd 	stp	x29, x30, [sp, #-64]!
    2638:	910003fd 	mov	x29, sp
    263c:	f9000fe0 	str	x0, [sp, #24]
    2640:	b90017e1 	str	w1, [sp, #20]
/home/scm4818/optee_project/optee_os/lib/libutee/tee_api_arith_mpi.c:294
    2644:	910083e0 	add	x0, sp, #0x20
    2648:	f9400fe1 	ldr	x1, [sp, #24]
    264c:	97fffe40 	bl	1f4c <get_mpi>
/home/scm4818/optee_project/optee_os/lib/libutee/tee_api_arith_mpi.c:296
    2650:	b94017e1 	ldr	w1, [sp, #20]
    2654:	910083e0 	add	x0, sp, #0x20
    2658:	94000a45 	bl	4f6c <mbedtls_mpi_get_bit>
    265c:	7100001f 	cmp	w0, #0x0
    2660:	1a9f07e0 	cset	w0, ne  // ne = any
    2664:	3900ffe0 	strb	w0, [sp, #63]
/home/scm4818/optee_project/optee_os/lib/libutee/tee_api_arith_mpi.c:298
    2668:	910083e0 	add	x0, sp, #0x20
    266c:	940007a2 	bl	44f4 <mbedtls_mpi_free>
/home/scm4818/optee_project/optee_os/lib/libutee/tee_api_arith_mpi.c:300
    2670:	3940ffe0 	ldrb	w0, [sp, #63]
/home/scm4818/optee_project/optee_os/lib/libutee/tee_api_arith_mpi.c:301
    2674:	a8c47bfd 	ldp	x29, x30, [sp], #64
    2678:	d65f03c0 	ret

000000000000267c <TEE_BigIntGetBitCount>:
TEE_BigIntGetBitCount():
/home/scm4818/optee_project/optee_os/lib/libutee/tee_api_arith_mpi.c:304
    267c:	a9bc7bfd 	stp	x29, x30, [sp, #-64]!
    2680:	910003fd 	mov	x29, sp
    2684:	f9000fe0 	str	x0, [sp, #24]
/home/scm4818/optee_project/optee_os/lib/libutee/tee_api_arith_mpi.c:308
    2688:	910083e0 	add	x0, sp, #0x20
    268c:	f9400fe1 	ldr	x1, [sp, #24]
    2690:	97fffe2f 	bl	1f4c <get_mpi>
/home/scm4818/optee_project/optee_os/lib/libutee/tee_api_arith_mpi.c:310
    2694:	910083e0 	add	x0, sp, #0x20
    2698:	94000add 	bl	520c <mbedtls_mpi_bitlen>
    269c:	b9003fe0 	str	w0, [sp, #60]
/home/scm4818/optee_project/optee_os/lib/libutee/tee_api_arith_mpi.c:312
    26a0:	910083e0 	add	x0, sp, #0x20
    26a4:	94000794 	bl	44f4 <mbedtls_mpi_free>
/home/scm4818/optee_project/optee_os/lib/libutee/tee_api_arith_mpi.c:314
    26a8:	b9403fe0 	ldr	w0, [sp, #60]
/home/scm4818/optee_project/optee_os/lib/libutee/tee_api_arith_mpi.c:315
    26ac:	a8c47bfd 	ldp	x29, x30, [sp], #64
    26b0:	d65f03c0 	ret

00000000000026b4 <bigint_binary>:
bigint_binary():
/home/scm4818/optee_project/optee_os/lib/libutee/tee_api_arith_mpi.c:321
    26b4:	a9b77bfd 	stp	x29, x30, [sp, #-144]!
    26b8:	910003fd 	mov	x29, sp
    26bc:	f90017e0 	str	x0, [sp, #40]
    26c0:	f90013e1 	str	x1, [sp, #32]
    26c4:	f9000fe2 	str	x2, [sp, #24]
    26c8:	f9000be3 	str	x3, [sp, #16]
/home/scm4818/optee_project/optee_os/lib/libutee/tee_api_arith_mpi.c:325
    26cc:	910123e0 	add	x0, sp, #0x48
    26d0:	f90047e0 	str	x0, [sp, #136]
/home/scm4818/optee_project/optee_os/lib/libutee/tee_api_arith_mpi.c:326
    26d4:	9100c3e0 	add	x0, sp, #0x30
    26d8:	f90043e0 	str	x0, [sp, #128]
/home/scm4818/optee_project/optee_os/lib/libutee/tee_api_arith_mpi.c:328
    26dc:	910183e0 	add	x0, sp, #0x60
    26e0:	f94017e1 	ldr	x1, [sp, #40]
    26e4:	97fffe1a 	bl	1f4c <get_mpi>
/home/scm4818/optee_project/optee_os/lib/libutee/tee_api_arith_mpi.c:330
    26e8:	f94013e1 	ldr	x1, [sp, #32]
    26ec:	f94017e0 	ldr	x0, [sp, #40]
    26f0:	eb00003f 	cmp	x1, x0
    26f4:	54000081 	b.ne	2704 <bigint_binary+0x50>  // b.any
/home/scm4818/optee_project/optee_os/lib/libutee/tee_api_arith_mpi.c:331
    26f8:	910183e0 	add	x0, sp, #0x60
    26fc:	f90047e0 	str	x0, [sp, #136]
    2700:	14000004 	b	2710 <bigint_binary+0x5c>
/home/scm4818/optee_project/optee_os/lib/libutee/tee_api_arith_mpi.c:333
    2704:	910123e0 	add	x0, sp, #0x48
    2708:	f94013e1 	ldr	x1, [sp, #32]
    270c:	97fffe10 	bl	1f4c <get_mpi>
/home/scm4818/optee_project/optee_os/lib/libutee/tee_api_arith_mpi.c:335
    2710:	f9400fe1 	ldr	x1, [sp, #24]
    2714:	f94017e0 	ldr	x0, [sp, #40]
    2718:	eb00003f 	cmp	x1, x0
    271c:	54000081 	b.ne	272c <bigint_binary+0x78>  // b.any
/home/scm4818/optee_project/optee_os/lib/libutee/tee_api_arith_mpi.c:336
    2720:	910183e0 	add	x0, sp, #0x60
    2724:	f90043e0 	str	x0, [sp, #128]
    2728:	1400000b 	b	2754 <bigint_binary+0xa0>
/home/scm4818/optee_project/optee_os/lib/libutee/tee_api_arith_mpi.c:337
    272c:	f9400fe1 	ldr	x1, [sp, #24]
    2730:	f94013e0 	ldr	x0, [sp, #32]
    2734:	eb00003f 	cmp	x1, x0
    2738:	54000081 	b.ne	2748 <bigint_binary+0x94>  // b.any
/home/scm4818/optee_project/optee_os/lib/libutee/tee_api_arith_mpi.c:338
    273c:	f94047e0 	ldr	x0, [sp, #136]
    2740:	f90043e0 	str	x0, [sp, #128]
    2744:	14000004 	b	2754 <bigint_binary+0xa0>
/home/scm4818/optee_project/optee_os/lib/libutee/tee_api_arith_mpi.c:340
    2748:	9100c3e0 	add	x0, sp, #0x30
    274c:	f9400fe1 	ldr	x1, [sp, #24]
    2750:	97fffdff 	bl	1f4c <get_mpi>
/home/scm4818/optee_project/optee_os/lib/libutee/tee_api_arith_mpi.c:342
    2754:	910183e0 	add	x0, sp, #0x60
    2758:	f9400be3 	ldr	x3, [sp, #16]
    275c:	f94043e2 	ldr	x2, [sp, #128]
    2760:	f94047e1 	ldr	x1, [sp, #136]
    2764:	d63f0060 	blr	x3
    2768:	b9007fe0 	str	w0, [sp, #124]
    276c:	b9407fe0 	ldr	w0, [sp, #124]
    2770:	7100001f 	cmp	w0, #0x0
    2774:	540000c0 	b.eq	278c <bigint_binary+0xd8>  // b.none
/home/scm4818/optee_project/optee_os/lib/libutee/tee_api_arith_mpi.c:342 (discriminator 1)
    2778:	b9407fe2 	ldr	w2, [sp, #124]
    277c:	52802ac1 	mov	w1, #0x156                 	// #342
    2780:	90000080 	adrp	x0, 12000 <__text_end+0x1164>
    2784:	91380000 	add	x0, x0, #0xe00
    2788:	97fffd92 	bl	1dd0 <mpi_panic>
/home/scm4818/optee_project/optee_os/lib/libutee/tee_api_arith_mpi.c:344
    278c:	910183e0 	add	x0, sp, #0x60
    2790:	f94017e1 	ldr	x1, [sp, #40]
    2794:	97fffdb7 	bl	1e70 <copy_mpi_to_bigint>
    2798:	b9007be0 	str	w0, [sp, #120]
    279c:	b9407be0 	ldr	w0, [sp, #120]
    27a0:	7100001f 	cmp	w0, #0x0
    27a4:	540000c0 	b.eq	27bc <bigint_binary+0x108>  // b.none
/home/scm4818/optee_project/optee_os/lib/libutee/tee_api_arith_mpi.c:344 (discriminator 1)
    27a8:	b9407be2 	ldr	w2, [sp, #120]
    27ac:	52802b01 	mov	w1, #0x158                 	// #344
    27b0:	90000080 	adrp	x0, 12000 <__text_end+0x1164>
    27b4:	91380000 	add	x0, x0, #0xe00
    27b8:	97fffd86 	bl	1dd0 <mpi_panic>
/home/scm4818/optee_project/optee_os/lib/libutee/tee_api_arith_mpi.c:345
    27bc:	910183e0 	add	x0, sp, #0x60
    27c0:	9400074d 	bl	44f4 <mbedtls_mpi_free>
/home/scm4818/optee_project/optee_os/lib/libutee/tee_api_arith_mpi.c:346
    27c4:	910123e0 	add	x0, sp, #0x48
    27c8:	f94047e1 	ldr	x1, [sp, #136]
    27cc:	eb00003f 	cmp	x1, x0
    27d0:	54000061 	b.ne	27dc <bigint_binary+0x128>  // b.any
/home/scm4818/optee_project/optee_os/lib/libutee/tee_api_arith_mpi.c:347
    27d4:	910123e0 	add	x0, sp, #0x48
    27d8:	94000747 	bl	44f4 <mbedtls_mpi_free>
/home/scm4818/optee_project/optee_os/lib/libutee/tee_api_arith_mpi.c:348
    27dc:	9100c3e0 	add	x0, sp, #0x30
    27e0:	f94043e1 	ldr	x1, [sp, #128]
    27e4:	eb00003f 	cmp	x1, x0
    27e8:	54000061 	b.ne	27f4 <bigint_binary+0x140>  // b.any
/home/scm4818/optee_project/optee_os/lib/libutee/tee_api_arith_mpi.c:349
    27ec:	9100c3e0 	add	x0, sp, #0x30
    27f0:	94000741 	bl	44f4 <mbedtls_mpi_free>
/home/scm4818/optee_project/optee_os/lib/libutee/tee_api_arith_mpi.c:350
    27f4:	d503201f 	nop
    27f8:	a8c97bfd 	ldp	x29, x30, [sp], #144
    27fc:	d65f03c0 	ret

0000000000002800 <bigint_binary_mod>:
bigint_binary_mod():
/home/scm4818/optee_project/optee_os/lib/libutee/tee_api_arith_mpi.c:356
    2800:	a9b27bfd 	stp	x29, x30, [sp, #-224]!
    2804:	910003fd 	mov	x29, sp
    2808:	f9001fe0 	str	x0, [sp, #56]
    280c:	f9001be1 	str	x1, [sp, #48]
    2810:	f90017e2 	str	x2, [sp, #40]
    2814:	f90013e3 	str	x3, [sp, #32]
    2818:	f9000fe4 	str	x4, [sp, #24]
/home/scm4818/optee_project/optee_os/lib/libutee/tee_api_arith_mpi.c:357
    281c:	52800041 	mov	w1, #0x2                   	// #2
    2820:	f94013e0 	ldr	x0, [sp, #32]
    2824:	97fffefa 	bl	240c <TEE_BigIntCmpS32>
    2828:	7100001f 	cmp	w0, #0x0
    282c:	540000ea 	b.ge	2848 <bigint_binary_mod+0x48>  // b.tcont
/home/scm4818/optee_project/optee_os/lib/libutee/tee_api_arith_mpi.c:358
    2830:	90000080 	adrp	x0, 12000 <__text_end+0x1164>
    2834:	9134c002 	add	x2, x0, #0xd30
    2838:	52802cc1 	mov	w1, #0x166                 	// #358
    283c:	90000080 	adrp	x0, 12000 <__text_end+0x1164>
    2840:	91384000 	add	x0, x0, #0xe10
    2844:	97fffd54 	bl	1d94 <api_panic>
/home/scm4818/optee_project/optee_os/lib/libutee/tee_api_arith_mpi.c:364
    2848:	910243e0 	add	x0, sp, #0x90
    284c:	f9006fe0 	str	x0, [sp, #216]
/home/scm4818/optee_project/optee_os/lib/libutee/tee_api_arith_mpi.c:365
    2850:	9101e3e0 	add	x0, sp, #0x78
    2854:	f9006be0 	str	x0, [sp, #208]
/home/scm4818/optee_project/optee_os/lib/libutee/tee_api_arith_mpi.c:368
    2858:	9102a3e0 	add	x0, sp, #0xa8
    285c:	f9401fe1 	ldr	x1, [sp, #56]
    2860:	97fffdbb 	bl	1f4c <get_mpi>
/home/scm4818/optee_project/optee_os/lib/libutee/tee_api_arith_mpi.c:369
    2864:	910183e0 	add	x0, sp, #0x60
    2868:	f94013e1 	ldr	x1, [sp, #32]
    286c:	97fffdb8 	bl	1f4c <get_mpi>
/home/scm4818/optee_project/optee_os/lib/libutee/tee_api_arith_mpi.c:371
    2870:	f9401be1 	ldr	x1, [sp, #48]
    2874:	f9401fe0 	ldr	x0, [sp, #56]
    2878:	eb00003f 	cmp	x1, x0
    287c:	54000081 	b.ne	288c <bigint_binary_mod+0x8c>  // b.any
/home/scm4818/optee_project/optee_os/lib/libutee/tee_api_arith_mpi.c:372
    2880:	9102a3e0 	add	x0, sp, #0xa8
    2884:	f9006fe0 	str	x0, [sp, #216]
    2888:	14000004 	b	2898 <bigint_binary_mod+0x98>
/home/scm4818/optee_project/optee_os/lib/libutee/tee_api_arith_mpi.c:374
    288c:	910243e0 	add	x0, sp, #0x90
    2890:	f9401be1 	ldr	x1, [sp, #48]
    2894:	97fffdae 	bl	1f4c <get_mpi>
/home/scm4818/optee_project/optee_os/lib/libutee/tee_api_arith_mpi.c:376
    2898:	f94017e1 	ldr	x1, [sp, #40]
    289c:	f9401fe0 	ldr	x0, [sp, #56]
    28a0:	eb00003f 	cmp	x1, x0
    28a4:	54000081 	b.ne	28b4 <bigint_binary_mod+0xb4>  // b.any
/home/scm4818/optee_project/optee_os/lib/libutee/tee_api_arith_mpi.c:377
    28a8:	9102a3e0 	add	x0, sp, #0xa8
    28ac:	f9006be0 	str	x0, [sp, #208]
    28b0:	1400000b 	b	28dc <bigint_binary_mod+0xdc>
/home/scm4818/optee_project/optee_os/lib/libutee/tee_api_arith_mpi.c:378
    28b4:	f94017e1 	ldr	x1, [sp, #40]
    28b8:	f9401be0 	ldr	x0, [sp, #48]
    28bc:	eb00003f 	cmp	x1, x0
    28c0:	54000081 	b.ne	28d0 <bigint_binary_mod+0xd0>  // b.any
/home/scm4818/optee_project/optee_os/lib/libutee/tee_api_arith_mpi.c:379
    28c4:	f9406fe0 	ldr	x0, [sp, #216]
    28c8:	f9006be0 	str	x0, [sp, #208]
    28cc:	14000004 	b	28dc <bigint_binary_mod+0xdc>
/home/scm4818/optee_project/optee_os/lib/libutee/tee_api_arith_mpi.c:381
    28d0:	9101e3e0 	add	x0, sp, #0x78
    28d4:	f94017e1 	ldr	x1, [sp, #40]
    28d8:	97fffd9d 	bl	1f4c <get_mpi>
/home/scm4818/optee_project/optee_os/lib/libutee/tee_api_arith_mpi.c:383
    28dc:	910123e0 	add	x0, sp, #0x48
    28e0:	d2800001 	mov	x1, #0x0                   	// #0
    28e4:	97fffd9a 	bl	1f4c <get_mpi>
/home/scm4818/optee_project/optee_os/lib/libutee/tee_api_arith_mpi.c:385
    28e8:	910123e0 	add	x0, sp, #0x48
    28ec:	f9400fe3 	ldr	x3, [sp, #24]
    28f0:	f9406be2 	ldr	x2, [sp, #208]
    28f4:	f9406fe1 	ldr	x1, [sp, #216]
    28f8:	d63f0060 	blr	x3
    28fc:	b900cfe0 	str	w0, [sp, #204]
    2900:	b940cfe0 	ldr	w0, [sp, #204]
    2904:	7100001f 	cmp	w0, #0x0
    2908:	540000c0 	b.eq	2920 <bigint_binary_mod+0x120>  // b.none
/home/scm4818/optee_project/optee_os/lib/libutee/tee_api_arith_mpi.c:385 (discriminator 1)
    290c:	b940cfe2 	ldr	w2, [sp, #204]
    2910:	52803021 	mov	w1, #0x181                 	// #385
    2914:	90000080 	adrp	x0, 12000 <__text_end+0x1164>
    2918:	91384000 	add	x0, x0, #0xe10
    291c:	97fffd2d 	bl	1dd0 <mpi_panic>
/home/scm4818/optee_project/optee_os/lib/libutee/tee_api_arith_mpi.c:386
    2920:	910183e2 	add	x2, sp, #0x60
    2924:	910123e1 	add	x1, sp, #0x48
    2928:	9102a3e0 	add	x0, sp, #0xa8
    292c:	94001ae2 	bl	94b4 <mbedtls_mpi_mod_mpi>
    2930:	b900cbe0 	str	w0, [sp, #200]
    2934:	b940cbe0 	ldr	w0, [sp, #200]
    2938:	7100001f 	cmp	w0, #0x0
    293c:	540000c0 	b.eq	2954 <bigint_binary_mod+0x154>  // b.none
/home/scm4818/optee_project/optee_os/lib/libutee/tee_api_arith_mpi.c:386 (discriminator 1)
    2940:	b940cbe2 	ldr	w2, [sp, #200]
    2944:	52803041 	mov	w1, #0x182                 	// #386
    2948:	90000080 	adrp	x0, 12000 <__text_end+0x1164>
    294c:	91384000 	add	x0, x0, #0xe10
    2950:	97fffd20 	bl	1dd0 <mpi_panic>
/home/scm4818/optee_project/optee_os/lib/libutee/tee_api_arith_mpi.c:388
    2954:	9102a3e0 	add	x0, sp, #0xa8
    2958:	f9401fe1 	ldr	x1, [sp, #56]
    295c:	97fffd45 	bl	1e70 <copy_mpi_to_bigint>
    2960:	b900c7e0 	str	w0, [sp, #196]
    2964:	b940c7e0 	ldr	w0, [sp, #196]
    2968:	7100001f 	cmp	w0, #0x0
    296c:	540000c0 	b.eq	2984 <bigint_binary_mod+0x184>  // b.none
/home/scm4818/optee_project/optee_os/lib/libutee/tee_api_arith_mpi.c:388 (discriminator 1)
    2970:	b940c7e2 	ldr	w2, [sp, #196]
    2974:	52803081 	mov	w1, #0x184                 	// #388
    2978:	90000080 	adrp	x0, 12000 <__text_end+0x1164>
    297c:	91384000 	add	x0, x0, #0xe10
    2980:	97fffd14 	bl	1dd0 <mpi_panic>
/home/scm4818/optee_project/optee_os/lib/libutee/tee_api_arith_mpi.c:389
    2984:	9102a3e0 	add	x0, sp, #0xa8
    2988:	940006db 	bl	44f4 <mbedtls_mpi_free>
/home/scm4818/optee_project/optee_os/lib/libutee/tee_api_arith_mpi.c:390
    298c:	910243e0 	add	x0, sp, #0x90
    2990:	f9406fe1 	ldr	x1, [sp, #216]
    2994:	eb00003f 	cmp	x1, x0
    2998:	54000061 	b.ne	29a4 <bigint_binary_mod+0x1a4>  // b.any
/home/scm4818/optee_project/optee_os/lib/libutee/tee_api_arith_mpi.c:391
    299c:	910243e0 	add	x0, sp, #0x90
    29a0:	940006d5 	bl	44f4 <mbedtls_mpi_free>
/home/scm4818/optee_project/optee_os/lib/libutee/tee_api_arith_mpi.c:392
    29a4:	9101e3e0 	add	x0, sp, #0x78
    29a8:	f9406be1 	ldr	x1, [sp, #208]
    29ac:	eb00003f 	cmp	x1, x0
    29b0:	54000061 	b.ne	29bc <bigint_binary_mod+0x1bc>  // b.any
/home/scm4818/optee_project/optee_os/lib/libutee/tee_api_arith_mpi.c:393
    29b4:	9101e3e0 	add	x0, sp, #0x78
    29b8:	940006cf 	bl	44f4 <mbedtls_mpi_free>
/home/scm4818/optee_project/optee_os/lib/libutee/tee_api_arith_mpi.c:394
    29bc:	910123e0 	add	x0, sp, #0x48
    29c0:	940006cd 	bl	44f4 <mbedtls_mpi_free>
/home/scm4818/optee_project/optee_os/lib/libutee/tee_api_arith_mpi.c:395
    29c4:	d503201f 	nop
    29c8:	a8ce7bfd 	ldp	x29, x30, [sp], #224
    29cc:	d65f03c0 	ret

00000000000029d0 <TEE_BigIntAdd>:
TEE_BigIntAdd():
/home/scm4818/optee_project/optee_os/lib/libutee/tee_api_arith_mpi.c:399
    29d0:	a9bd7bfd 	stp	x29, x30, [sp, #-48]!
    29d4:	910003fd 	mov	x29, sp
    29d8:	f90017e0 	str	x0, [sp, #40]
    29dc:	f90013e1 	str	x1, [sp, #32]
    29e0:	f9000fe2 	str	x2, [sp, #24]
/home/scm4818/optee_project/optee_os/lib/libutee/tee_api_arith_mpi.c:400
    29e4:	f0000080 	adrp	x0, 15000 <_DYNAMIC>
    29e8:	f940a803 	ldr	x3, [x0, #336]
    29ec:	f9400fe2 	ldr	x2, [sp, #24]
    29f0:	f94013e1 	ldr	x1, [sp, #32]
    29f4:	f94017e0 	ldr	x0, [sp, #40]
    29f8:	97ffff2f 	bl	26b4 <bigint_binary>
/home/scm4818/optee_project/optee_os/lib/libutee/tee_api_arith_mpi.c:401
    29fc:	d503201f 	nop
    2a00:	a8c37bfd 	ldp	x29, x30, [sp], #48
    2a04:	d65f03c0 	ret

0000000000002a08 <TEE_BigIntSub>:
TEE_BigIntSub():
/home/scm4818/optee_project/optee_os/lib/libutee/tee_api_arith_mpi.c:405
    2a08:	a9bd7bfd 	stp	x29, x30, [sp, #-48]!
    2a0c:	910003fd 	mov	x29, sp
    2a10:	f90017e0 	str	x0, [sp, #40]
    2a14:	f90013e1 	str	x1, [sp, #32]
    2a18:	f9000fe2 	str	x2, [sp, #24]
/home/scm4818/optee_project/optee_os/lib/libutee/tee_api_arith_mpi.c:406
    2a1c:	f0000080 	adrp	x0, 15000 <_DYNAMIC>
    2a20:	f940b003 	ldr	x3, [x0, #352]
    2a24:	f9400fe2 	ldr	x2, [sp, #24]
    2a28:	f94013e1 	ldr	x1, [sp, #32]
    2a2c:	f94017e0 	ldr	x0, [sp, #40]
    2a30:	97ffff21 	bl	26b4 <bigint_binary>
/home/scm4818/optee_project/optee_os/lib/libutee/tee_api_arith_mpi.c:407
    2a34:	d503201f 	nop
    2a38:	a8c37bfd 	ldp	x29, x30, [sp], #48
    2a3c:	d65f03c0 	ret

0000000000002a40 <TEE_BigIntNeg>:
TEE_BigIntNeg():
/home/scm4818/optee_project/optee_os/lib/libutee/tee_api_arith_mpi.c:410
    2a40:	a9ba7bfd 	stp	x29, x30, [sp, #-96]!
    2a44:	910003fd 	mov	x29, sp
    2a48:	f9000fe0 	str	x0, [sp, #24]
    2a4c:	f9000be1 	str	x1, [sp, #16]
/home/scm4818/optee_project/optee_os/lib/libutee/tee_api_arith_mpi.c:413
    2a50:	910103e0 	add	x0, sp, #0x40
    2a54:	f9400fe1 	ldr	x1, [sp, #24]
    2a58:	97fffd3d 	bl	1f4c <get_mpi>
/home/scm4818/optee_project/optee_os/lib/libutee/tee_api_arith_mpi.c:415
    2a5c:	f9400fe1 	ldr	x1, [sp, #24]
    2a60:	f9400be0 	ldr	x0, [sp, #16]
    2a64:	eb00003f 	cmp	x1, x0
    2a68:	54000240 	b.eq	2ab0 <TEE_BigIntNeg+0x70>  // b.none
/home/scm4818/optee_project/optee_os/lib/libutee/tee_api_arith_mpi.c:418
    2a6c:	9100a3e0 	add	x0, sp, #0x28
    2a70:	f9400be1 	ldr	x1, [sp, #16]
    2a74:	97fffd36 	bl	1f4c <get_mpi>
/home/scm4818/optee_project/optee_os/lib/libutee/tee_api_arith_mpi.c:420
    2a78:	9100a3e1 	add	x1, sp, #0x28
    2a7c:	910103e0 	add	x0, sp, #0x40
    2a80:	940007a4 	bl	4910 <mbedtls_mpi_copy>
    2a84:	b9005fe0 	str	w0, [sp, #92]
    2a88:	b9405fe0 	ldr	w0, [sp, #92]
    2a8c:	7100001f 	cmp	w0, #0x0
    2a90:	540000c0 	b.eq	2aa8 <TEE_BigIntNeg+0x68>  // b.none
/home/scm4818/optee_project/optee_os/lib/libutee/tee_api_arith_mpi.c:420 (discriminator 1)
    2a94:	b9405fe2 	ldr	w2, [sp, #92]
    2a98:	52803481 	mov	w1, #0x1a4                 	// #420
    2a9c:	90000080 	adrp	x0, 12000 <__text_end+0x1164>
    2aa0:	9138a000 	add	x0, x0, #0xe28
    2aa4:	97fffccb 	bl	1dd0 <mpi_panic>
/home/scm4818/optee_project/optee_os/lib/libutee/tee_api_arith_mpi.c:422
    2aa8:	9100a3e0 	add	x0, sp, #0x28
    2aac:	94000692 	bl	44f4 <mbedtls_mpi_free>
/home/scm4818/optee_project/optee_os/lib/libutee/tee_api_arith_mpi.c:425
    2ab0:	79c083e0 	ldrsh	w0, [sp, #64]
    2ab4:	12003c00 	and	w0, w0, #0xffff
    2ab8:	4b0003e0 	neg	w0, w0
    2abc:	12003c00 	and	w0, w0, #0xffff
    2ac0:	13003c00 	sxth	w0, w0
    2ac4:	790083e0 	strh	w0, [sp, #64]
/home/scm4818/optee_project/optee_os/lib/libutee/tee_api_arith_mpi.c:427
    2ac8:	910103e0 	add	x0, sp, #0x40
    2acc:	f9400fe1 	ldr	x1, [sp, #24]
    2ad0:	97fffce8 	bl	1e70 <copy_mpi_to_bigint>
    2ad4:	b9005be0 	str	w0, [sp, #88]
    2ad8:	b9405be0 	ldr	w0, [sp, #88]
    2adc:	7100001f 	cmp	w0, #0x0
    2ae0:	540000c0 	b.eq	2af8 <TEE_BigIntNeg+0xb8>  // b.none
/home/scm4818/optee_project/optee_os/lib/libutee/tee_api_arith_mpi.c:427 (discriminator 1)
    2ae4:	b9405be2 	ldr	w2, [sp, #88]
    2ae8:	52803561 	mov	w1, #0x1ab                 	// #427
    2aec:	90000080 	adrp	x0, 12000 <__text_end+0x1164>
    2af0:	9138a000 	add	x0, x0, #0xe28
    2af4:	97fffcb7 	bl	1dd0 <mpi_panic>
/home/scm4818/optee_project/optee_os/lib/libutee/tee_api_arith_mpi.c:428
    2af8:	910103e0 	add	x0, sp, #0x40
    2afc:	9400067e 	bl	44f4 <mbedtls_mpi_free>
/home/scm4818/optee_project/optee_os/lib/libutee/tee_api_arith_mpi.c:429
    2b00:	d503201f 	nop
    2b04:	a8c67bfd 	ldp	x29, x30, [sp], #96
    2b08:	d65f03c0 	ret

0000000000002b0c <TEE_BigIntMul>:
TEE_BigIntMul():
/home/scm4818/optee_project/optee_os/lib/libutee/tee_api_arith_mpi.c:433
    2b0c:	a9ba7bfd 	stp	x29, x30, [sp, #-96]!
    2b10:	910003fd 	mov	x29, sp
    2b14:	f90017e0 	str	x0, [sp, #40]
    2b18:	f90013e1 	str	x1, [sp, #32]
    2b1c:	f9000fe2 	str	x2, [sp, #24]
/home/scm4818/optee_project/optee_os/lib/libutee/tee_api_arith_mpi.c:434
    2b20:	f94013e0 	ldr	x0, [sp, #32]
    2b24:	97fffed6 	bl	267c <TEE_BigIntGetBitCount>
    2b28:	2a0003e0 	mov	w0, w0
    2b2c:	f9002fe0 	str	x0, [sp, #88]
/home/scm4818/optee_project/optee_os/lib/libutee/tee_api_arith_mpi.c:435
    2b30:	f9400fe0 	ldr	x0, [sp, #24]
    2b34:	97fffed2 	bl	267c <TEE_BigIntGetBitCount>
    2b38:	2a0003e0 	mov	w0, w0
    2b3c:	f9002be0 	str	x0, [sp, #80]
/home/scm4818/optee_project/optee_os/lib/libutee/tee_api_arith_mpi.c:436
    2b40:	f9402fe0 	ldr	x0, [sp, #88]
    2b44:	91007c00 	add	x0, x0, #0x1f
    2b48:	d345fc01 	lsr	x1, x0, #5
    2b4c:	f9402be0 	ldr	x0, [sp, #80]
    2b50:	91007c00 	add	x0, x0, #0x1f
    2b54:	d345fc00 	lsr	x0, x0, #5
    2b58:	8b000020 	add	x0, x1, x0
    2b5c:	91001000 	add	x0, x0, #0x4
    2b60:	f90027e0 	str	x0, [sp, #72]
/home/scm4818/optee_project/optee_os/lib/libutee/tee_api_arith_mpi.c:437
    2b64:	f9001bff 	str	xzr, [sp, #48]
    2b68:	b9003bff 	str	wzr, [sp, #56]
/home/scm4818/optee_project/optee_os/lib/libutee/tee_api_arith_mpi.c:438
    2b6c:	f90023ff 	str	xzr, [sp, #64]
/home/scm4818/optee_project/optee_os/lib/libutee/tee_api_arith_mpi.c:440
    2b70:	f0000080 	adrp	x0, 15000 <_DYNAMIC>
    2b74:	f940c800 	ldr	x0, [x0, #400]
    2b78:	f9400002 	ldr	x2, [x0]
    2b7c:	f94027e0 	ldr	x0, [sp, #72]
    2b80:	d37ef400 	lsl	x0, x0, #2
    2b84:	aa0003e1 	mov	x1, x0
    2b88:	aa0203e0 	mov	x0, x2
    2b8c:	9400373e 	bl	10884 <mempool_alloc>
    2b90:	f90023e0 	str	x0, [sp, #64]
/home/scm4818/optee_project/optee_os/lib/libutee/tee_api_arith_mpi.c:441
    2b94:	f94023e0 	ldr	x0, [sp, #64]
    2b98:	f100001f 	cmp	x0, #0x0
    2b9c:	54000061 	b.ne	2ba8 <TEE_BigIntMul+0x9c>  // b.any
/home/scm4818/optee_project/optee_os/lib/libutee/tee_api_arith_mpi.c:442
    2ba0:	129ffe60 	mov	w0, #0xffff000c            	// #-65524
    2ba4:	94000510 	bl	3fe4 <TEE_Panic>
/home/scm4818/optee_project/optee_os/lib/libutee/tee_api_arith_mpi.c:444
    2ba8:	f94027e0 	ldr	x0, [sp, #72]
    2bac:	2a0003e1 	mov	w1, w0
    2bb0:	f94023e0 	ldr	x0, [sp, #64]
    2bb4:	97fffd25 	bl	2048 <TEE_BigIntInit>
/home/scm4818/optee_project/optee_os/lib/libutee/tee_api_arith_mpi.c:445
    2bb8:	9100c3e0 	add	x0, sp, #0x30
    2bbc:	52800061 	mov	w1, #0x3                   	// #3
    2bc0:	97fffd22 	bl	2048 <TEE_BigIntInit>
/home/scm4818/optee_project/optee_os/lib/libutee/tee_api_arith_mpi.c:447
    2bc4:	f0000080 	adrp	x0, 15000 <_DYNAMIC>
    2bc8:	f940a403 	ldr	x3, [x0, #328]
    2bcc:	f9400fe2 	ldr	x2, [sp, #24]
    2bd0:	f94013e1 	ldr	x1, [sp, #32]
    2bd4:	f94023e0 	ldr	x0, [sp, #64]
    2bd8:	97fffeb7 	bl	26b4 <bigint_binary>
/home/scm4818/optee_project/optee_os/lib/libutee/tee_api_arith_mpi.c:449
    2bdc:	9100c3e0 	add	x0, sp, #0x30
    2be0:	aa0003e2 	mov	x2, x0
    2be4:	f94023e1 	ldr	x1, [sp, #64]
    2be8:	f94017e0 	ldr	x0, [sp, #40]
    2bec:	97ffff79 	bl	29d0 <TEE_BigIntAdd>
/home/scm4818/optee_project/optee_os/lib/libutee/tee_api_arith_mpi.c:451
    2bf0:	f0000080 	adrp	x0, 15000 <_DYNAMIC>
    2bf4:	f940c800 	ldr	x0, [x0, #400]
    2bf8:	f9400000 	ldr	x0, [x0]
    2bfc:	f94023e1 	ldr	x1, [sp, #64]
    2c00:	940037a8 	bl	10aa0 <mempool_free>
/home/scm4818/optee_project/optee_os/lib/libutee/tee_api_arith_mpi.c:452
    2c04:	d503201f 	nop
    2c08:	a8c67bfd 	ldp	x29, x30, [sp], #96
    2c0c:	d65f03c0 	ret

0000000000002c10 <TEE_BigIntSquare>:
TEE_BigIntSquare():
/home/scm4818/optee_project/optee_os/lib/libutee/tee_api_arith_mpi.c:455
    2c10:	a9be7bfd 	stp	x29, x30, [sp, #-32]!
    2c14:	910003fd 	mov	x29, sp
    2c18:	f9000fe0 	str	x0, [sp, #24]
    2c1c:	f9000be1 	str	x1, [sp, #16]
/home/scm4818/optee_project/optee_os/lib/libutee/tee_api_arith_mpi.c:456
    2c20:	f9400be2 	ldr	x2, [sp, #16]
    2c24:	f9400be1 	ldr	x1, [sp, #16]
    2c28:	f9400fe0 	ldr	x0, [sp, #24]
    2c2c:	97ffffb8 	bl	2b0c <TEE_BigIntMul>
/home/scm4818/optee_project/optee_os/lib/libutee/tee_api_arith_mpi.c:457
    2c30:	d503201f 	nop
    2c34:	a8c27bfd 	ldp	x29, x30, [sp], #32
    2c38:	d65f03c0 	ret

0000000000002c3c <TEE_BigIntDiv>:
TEE_BigIntDiv():
/home/scm4818/optee_project/optee_os/lib/libutee/tee_api_arith_mpi.c:461
    2c3c:	a9b57bfd 	stp	x29, x30, [sp, #-176]!
    2c40:	910003fd 	mov	x29, sp
    2c44:	f90017e0 	str	x0, [sp, #40]
    2c48:	f90013e1 	str	x1, [sp, #32]
    2c4c:	f9000fe2 	str	x2, [sp, #24]
    2c50:	f9000be3 	str	x3, [sp, #16]
/home/scm4818/optee_project/optee_os/lib/libutee/tee_api_arith_mpi.c:466
    2c54:	910123e0 	add	x0, sp, #0x48
    2c58:	f90057e0 	str	x0, [sp, #168]
/home/scm4818/optee_project/optee_os/lib/libutee/tee_api_arith_mpi.c:467
    2c5c:	9100c3e0 	add	x0, sp, #0x30
    2c60:	f90053e0 	str	x0, [sp, #160]
/home/scm4818/optee_project/optee_os/lib/libutee/tee_api_arith_mpi.c:469
    2c64:	9101e3e0 	add	x0, sp, #0x78
    2c68:	f94017e1 	ldr	x1, [sp, #40]
    2c6c:	97fffcb8 	bl	1f4c <get_mpi>
/home/scm4818/optee_project/optee_os/lib/libutee/tee_api_arith_mpi.c:470
    2c70:	910183e0 	add	x0, sp, #0x60
    2c74:	f94013e1 	ldr	x1, [sp, #32]
    2c78:	97fffcb5 	bl	1f4c <get_mpi>
/home/scm4818/optee_project/optee_os/lib/libutee/tee_api_arith_mpi.c:472
    2c7c:	f9400fe1 	ldr	x1, [sp, #24]
    2c80:	f94017e0 	ldr	x0, [sp, #40]
    2c84:	eb00003f 	cmp	x1, x0
    2c88:	54000081 	b.ne	2c98 <TEE_BigIntDiv+0x5c>  // b.any
/home/scm4818/optee_project/optee_os/lib/libutee/tee_api_arith_mpi.c:473
    2c8c:	9101e3e0 	add	x0, sp, #0x78
    2c90:	f90057e0 	str	x0, [sp, #168]
    2c94:	1400000b 	b	2cc0 <TEE_BigIntDiv+0x84>
/home/scm4818/optee_project/optee_os/lib/libutee/tee_api_arith_mpi.c:474
    2c98:	f9400fe1 	ldr	x1, [sp, #24]
    2c9c:	f94013e0 	ldr	x0, [sp, #32]
    2ca0:	eb00003f 	cmp	x1, x0
    2ca4:	54000081 	b.ne	2cb4 <TEE_BigIntDiv+0x78>  // b.any
/home/scm4818/optee_project/optee_os/lib/libutee/tee_api_arith_mpi.c:475
    2ca8:	910183e0 	add	x0, sp, #0x60
    2cac:	f90057e0 	str	x0, [sp, #168]
    2cb0:	14000004 	b	2cc0 <TEE_BigIntDiv+0x84>
/home/scm4818/optee_project/optee_os/lib/libutee/tee_api_arith_mpi.c:477
    2cb4:	910123e0 	add	x0, sp, #0x48
    2cb8:	f9400fe1 	ldr	x1, [sp, #24]
    2cbc:	97fffca4 	bl	1f4c <get_mpi>
/home/scm4818/optee_project/optee_os/lib/libutee/tee_api_arith_mpi.c:479
    2cc0:	f9400be1 	ldr	x1, [sp, #16]
    2cc4:	f94017e0 	ldr	x0, [sp, #40]
    2cc8:	eb00003f 	cmp	x1, x0
    2ccc:	54000081 	b.ne	2cdc <TEE_BigIntDiv+0xa0>  // b.any
/home/scm4818/optee_project/optee_os/lib/libutee/tee_api_arith_mpi.c:480
    2cd0:	9101e3e0 	add	x0, sp, #0x78
    2cd4:	f90053e0 	str	x0, [sp, #160]
    2cd8:	14000012 	b	2d20 <TEE_BigIntDiv+0xe4>
/home/scm4818/optee_project/optee_os/lib/libutee/tee_api_arith_mpi.c:481
    2cdc:	f9400be1 	ldr	x1, [sp, #16]
    2ce0:	f94013e0 	ldr	x0, [sp, #32]
    2ce4:	eb00003f 	cmp	x1, x0
    2ce8:	54000081 	b.ne	2cf8 <TEE_BigIntDiv+0xbc>  // b.any
/home/scm4818/optee_project/optee_os/lib/libutee/tee_api_arith_mpi.c:482
    2cec:	910183e0 	add	x0, sp, #0x60
    2cf0:	f90053e0 	str	x0, [sp, #160]
    2cf4:	1400000b 	b	2d20 <TEE_BigIntDiv+0xe4>
/home/scm4818/optee_project/optee_os/lib/libutee/tee_api_arith_mpi.c:483
    2cf8:	f9400be1 	ldr	x1, [sp, #16]
    2cfc:	f9400fe0 	ldr	x0, [sp, #24]
    2d00:	eb00003f 	cmp	x1, x0
    2d04:	54000081 	b.ne	2d14 <TEE_BigIntDiv+0xd8>  // b.any
/home/scm4818/optee_project/optee_os/lib/libutee/tee_api_arith_mpi.c:484
    2d08:	f94057e0 	ldr	x0, [sp, #168]
    2d0c:	f90053e0 	str	x0, [sp, #160]
    2d10:	14000004 	b	2d20 <TEE_BigIntDiv+0xe4>
/home/scm4818/optee_project/optee_os/lib/libutee/tee_api_arith_mpi.c:486
    2d14:	9100c3e0 	add	x0, sp, #0x30
    2d18:	f9400be1 	ldr	x1, [sp, #16]
    2d1c:	97fffc8c 	bl	1f4c <get_mpi>
/home/scm4818/optee_project/optee_os/lib/libutee/tee_api_arith_mpi.c:488
    2d20:	910183e1 	add	x1, sp, #0x60
    2d24:	9101e3e0 	add	x0, sp, #0x78
    2d28:	f94053e3 	ldr	x3, [sp, #160]
    2d2c:	f94057e2 	ldr	x2, [sp, #168]
    2d30:	940017b7 	bl	8c0c <mbedtls_mpi_div_mpi>
    2d34:	b9009fe0 	str	w0, [sp, #156]
    2d38:	b9409fe0 	ldr	w0, [sp, #156]
    2d3c:	7100001f 	cmp	w0, #0x0
    2d40:	540000c0 	b.eq	2d58 <TEE_BigIntDiv+0x11c>  // b.none
/home/scm4818/optee_project/optee_os/lib/libutee/tee_api_arith_mpi.c:488 (discriminator 1)
    2d44:	b9409fe2 	ldr	w2, [sp, #156]
    2d48:	52803d01 	mov	w1, #0x1e8                 	// #488
    2d4c:	90000080 	adrp	x0, 12000 <__text_end+0x1164>
    2d50:	9138e000 	add	x0, x0, #0xe38
    2d54:	97fffc1f 	bl	1dd0 <mpi_panic>
/home/scm4818/optee_project/optee_os/lib/libutee/tee_api_arith_mpi.c:490
    2d58:	9101e3e0 	add	x0, sp, #0x78
    2d5c:	f94017e1 	ldr	x1, [sp, #40]
    2d60:	97fffc44 	bl	1e70 <copy_mpi_to_bigint>
    2d64:	b9009be0 	str	w0, [sp, #152]
    2d68:	b9409be0 	ldr	w0, [sp, #152]
    2d6c:	7100001f 	cmp	w0, #0x0
    2d70:	540000c0 	b.eq	2d88 <TEE_BigIntDiv+0x14c>  // b.none
/home/scm4818/optee_project/optee_os/lib/libutee/tee_api_arith_mpi.c:490 (discriminator 1)
    2d74:	b9409be2 	ldr	w2, [sp, #152]
    2d78:	52803d41 	mov	w1, #0x1ea                 	// #490
    2d7c:	90000080 	adrp	x0, 12000 <__text_end+0x1164>
    2d80:	9138e000 	add	x0, x0, #0xe38
    2d84:	97fffc13 	bl	1dd0 <mpi_panic>
/home/scm4818/optee_project/optee_os/lib/libutee/tee_api_arith_mpi.c:491
    2d88:	910183e0 	add	x0, sp, #0x60
    2d8c:	f94013e1 	ldr	x1, [sp, #32]
    2d90:	97fffc38 	bl	1e70 <copy_mpi_to_bigint>
    2d94:	b90097e0 	str	w0, [sp, #148]
    2d98:	b94097e0 	ldr	w0, [sp, #148]
    2d9c:	7100001f 	cmp	w0, #0x0
    2da0:	540000c0 	b.eq	2db8 <TEE_BigIntDiv+0x17c>  // b.none
/home/scm4818/optee_project/optee_os/lib/libutee/tee_api_arith_mpi.c:491 (discriminator 1)
    2da4:	b94097e2 	ldr	w2, [sp, #148]
    2da8:	52803d61 	mov	w1, #0x1eb                 	// #491
    2dac:	90000080 	adrp	x0, 12000 <__text_end+0x1164>
    2db0:	9138e000 	add	x0, x0, #0xe38
    2db4:	97fffc07 	bl	1dd0 <mpi_panic>
/home/scm4818/optee_project/optee_os/lib/libutee/tee_api_arith_mpi.c:492
    2db8:	9101e3e0 	add	x0, sp, #0x78
    2dbc:	940005ce 	bl	44f4 <mbedtls_mpi_free>
/home/scm4818/optee_project/optee_os/lib/libutee/tee_api_arith_mpi.c:493
    2dc0:	910183e0 	add	x0, sp, #0x60
    2dc4:	940005cc 	bl	44f4 <mbedtls_mpi_free>
/home/scm4818/optee_project/optee_os/lib/libutee/tee_api_arith_mpi.c:494
    2dc8:	910123e0 	add	x0, sp, #0x48
    2dcc:	f94057e1 	ldr	x1, [sp, #168]
    2dd0:	eb00003f 	cmp	x1, x0
    2dd4:	54000061 	b.ne	2de0 <TEE_BigIntDiv+0x1a4>  // b.any
/home/scm4818/optee_project/optee_os/lib/libutee/tee_api_arith_mpi.c:495
    2dd8:	910123e0 	add	x0, sp, #0x48
    2ddc:	940005c6 	bl	44f4 <mbedtls_mpi_free>
/home/scm4818/optee_project/optee_os/lib/libutee/tee_api_arith_mpi.c:496
    2de0:	9100c3e0 	add	x0, sp, #0x30
    2de4:	f94053e1 	ldr	x1, [sp, #160]
    2de8:	eb00003f 	cmp	x1, x0
    2dec:	54000061 	b.ne	2df8 <TEE_BigIntDiv+0x1bc>  // b.any
/home/scm4818/optee_project/optee_os/lib/libutee/tee_api_arith_mpi.c:497
    2df0:	9100c3e0 	add	x0, sp, #0x30
    2df4:	940005c0 	bl	44f4 <mbedtls_mpi_free>
/home/scm4818/optee_project/optee_os/lib/libutee/tee_api_arith_mpi.c:498
    2df8:	d503201f 	nop
    2dfc:	a8cb7bfd 	ldp	x29, x30, [sp], #176
    2e00:	d65f03c0 	ret

0000000000002e04 <TEE_BigIntMod>:
TEE_BigIntMod():
/home/scm4818/optee_project/optee_os/lib/libutee/tee_api_arith_mpi.c:501
    2e04:	a9bd7bfd 	stp	x29, x30, [sp, #-48]!
    2e08:	910003fd 	mov	x29, sp
    2e0c:	f90017e0 	str	x0, [sp, #40]
    2e10:	f90013e1 	str	x1, [sp, #32]
    2e14:	f9000fe2 	str	x2, [sp, #24]
/home/scm4818/optee_project/optee_os/lib/libutee/tee_api_arith_mpi.c:502
    2e18:	52800041 	mov	w1, #0x2                   	// #2
    2e1c:	f9400fe0 	ldr	x0, [sp, #24]
    2e20:	97fffd7b 	bl	240c <TEE_BigIntCmpS32>
    2e24:	7100001f 	cmp	w0, #0x0
    2e28:	540000ea 	b.ge	2e44 <TEE_BigIntMod+0x40>  // b.tcont
/home/scm4818/optee_project/optee_os/lib/libutee/tee_api_arith_mpi.c:503
    2e2c:	90000080 	adrp	x0, 12000 <__text_end+0x1164>
    2e30:	9134c002 	add	x2, x0, #0xd30
    2e34:	52803ee1 	mov	w1, #0x1f7                 	// #503
    2e38:	90000080 	adrp	x0, 12000 <__text_end+0x1164>
    2e3c:	91392000 	add	x0, x0, #0xe48
    2e40:	97fffbd5 	bl	1d94 <api_panic>
/home/scm4818/optee_project/optee_os/lib/libutee/tee_api_arith_mpi.c:505
    2e44:	f0000080 	adrp	x0, 15000 <_DYNAMIC>
    2e48:	f940bc03 	ldr	x3, [x0, #376]
    2e4c:	f9400fe2 	ldr	x2, [sp, #24]
    2e50:	f94013e1 	ldr	x1, [sp, #32]
    2e54:	f94017e0 	ldr	x0, [sp, #40]
    2e58:	97fffe17 	bl	26b4 <bigint_binary>
/home/scm4818/optee_project/optee_os/lib/libutee/tee_api_arith_mpi.c:506
    2e5c:	d503201f 	nop
    2e60:	a8c37bfd 	ldp	x29, x30, [sp], #48
    2e64:	d65f03c0 	ret

0000000000002e68 <TEE_BigIntAddMod>:
TEE_BigIntAddMod():
/home/scm4818/optee_project/optee_os/lib/libutee/tee_api_arith_mpi.c:510
    2e68:	a9bd7bfd 	stp	x29, x30, [sp, #-48]!
    2e6c:	910003fd 	mov	x29, sp
    2e70:	f90017e0 	str	x0, [sp, #40]
    2e74:	f90013e1 	str	x1, [sp, #32]
    2e78:	f9000fe2 	str	x2, [sp, #24]
    2e7c:	f9000be3 	str	x3, [sp, #16]
/home/scm4818/optee_project/optee_os/lib/libutee/tee_api_arith_mpi.c:511
    2e80:	f0000080 	adrp	x0, 15000 <_DYNAMIC>
    2e84:	f940a804 	ldr	x4, [x0, #336]
    2e88:	f9400be3 	ldr	x3, [sp, #16]
    2e8c:	f9400fe2 	ldr	x2, [sp, #24]
    2e90:	f94013e1 	ldr	x1, [sp, #32]
    2e94:	f94017e0 	ldr	x0, [sp, #40]
    2e98:	97fffe5a 	bl	2800 <bigint_binary_mod>
/home/scm4818/optee_project/optee_os/lib/libutee/tee_api_arith_mpi.c:512
    2e9c:	d503201f 	nop
    2ea0:	a8c37bfd 	ldp	x29, x30, [sp], #48
    2ea4:	d65f03c0 	ret

0000000000002ea8 <TEE_BigIntSubMod>:
TEE_BigIntSubMod():
/home/scm4818/optee_project/optee_os/lib/libutee/tee_api_arith_mpi.c:516
    2ea8:	a9bd7bfd 	stp	x29, x30, [sp, #-48]!
    2eac:	910003fd 	mov	x29, sp
    2eb0:	f90017e0 	str	x0, [sp, #40]
    2eb4:	f90013e1 	str	x1, [sp, #32]
    2eb8:	f9000fe2 	str	x2, [sp, #24]
    2ebc:	f9000be3 	str	x3, [sp, #16]
/home/scm4818/optee_project/optee_os/lib/libutee/tee_api_arith_mpi.c:517
    2ec0:	f0000080 	adrp	x0, 15000 <_DYNAMIC>
    2ec4:	f940b004 	ldr	x4, [x0, #352]
    2ec8:	f9400be3 	ldr	x3, [sp, #16]
    2ecc:	f9400fe2 	ldr	x2, [sp, #24]
    2ed0:	f94013e1 	ldr	x1, [sp, #32]
    2ed4:	f94017e0 	ldr	x0, [sp, #40]
    2ed8:	97fffe4a 	bl	2800 <bigint_binary_mod>
/home/scm4818/optee_project/optee_os/lib/libutee/tee_api_arith_mpi.c:518
    2edc:	d503201f 	nop
    2ee0:	a8c37bfd 	ldp	x29, x30, [sp], #48
    2ee4:	d65f03c0 	ret

0000000000002ee8 <TEE_BigIntMulMod>:
TEE_BigIntMulMod():
/home/scm4818/optee_project/optee_os/lib/libutee/tee_api_arith_mpi.c:522
    2ee8:	a9bd7bfd 	stp	x29, x30, [sp, #-48]!
    2eec:	910003fd 	mov	x29, sp
    2ef0:	f90017e0 	str	x0, [sp, #40]
    2ef4:	f90013e1 	str	x1, [sp, #32]
    2ef8:	f9000fe2 	str	x2, [sp, #24]
    2efc:	f9000be3 	str	x3, [sp, #16]
/home/scm4818/optee_project/optee_os/lib/libutee/tee_api_arith_mpi.c:523
    2f00:	f0000080 	adrp	x0, 15000 <_DYNAMIC>
    2f04:	f940a404 	ldr	x4, [x0, #328]
    2f08:	f9400be3 	ldr	x3, [sp, #16]
    2f0c:	f9400fe2 	ldr	x2, [sp, #24]
    2f10:	f94013e1 	ldr	x1, [sp, #32]
    2f14:	f94017e0 	ldr	x0, [sp, #40]
    2f18:	97fffe3a 	bl	2800 <bigint_binary_mod>
/home/scm4818/optee_project/optee_os/lib/libutee/tee_api_arith_mpi.c:524
    2f1c:	d503201f 	nop
    2f20:	a8c37bfd 	ldp	x29, x30, [sp], #48
    2f24:	d65f03c0 	ret

0000000000002f28 <TEE_BigIntSquareMod>:
TEE_BigIntSquareMod():
/home/scm4818/optee_project/optee_os/lib/libutee/tee_api_arith_mpi.c:528
    2f28:	a9bd7bfd 	stp	x29, x30, [sp, #-48]!
    2f2c:	910003fd 	mov	x29, sp
    2f30:	f90017e0 	str	x0, [sp, #40]
    2f34:	f90013e1 	str	x1, [sp, #32]
    2f38:	f9000fe2 	str	x2, [sp, #24]
/home/scm4818/optee_project/optee_os/lib/libutee/tee_api_arith_mpi.c:529
    2f3c:	f9400fe3 	ldr	x3, [sp, #24]
    2f40:	f94013e2 	ldr	x2, [sp, #32]
    2f44:	f94013e1 	ldr	x1, [sp, #32]
    2f48:	f94017e0 	ldr	x0, [sp, #40]
    2f4c:	97ffffe7 	bl	2ee8 <TEE_BigIntMulMod>
/home/scm4818/optee_project/optee_os/lib/libutee/tee_api_arith_mpi.c:530
    2f50:	d503201f 	nop
    2f54:	a8c37bfd 	ldp	x29, x30, [sp], #48
    2f58:	d65f03c0 	ret

0000000000002f5c <TEE_BigIntInvMod>:
TEE_BigIntInvMod():
/home/scm4818/optee_project/optee_os/lib/libutee/tee_api_arith_mpi.c:534
    2f5c:	a9b77bfd 	stp	x29, x30, [sp, #-144]!
    2f60:	910003fd 	mov	x29, sp
    2f64:	f90017e0 	str	x0, [sp, #40]
    2f68:	f90013e1 	str	x1, [sp, #32]
    2f6c:	f9000fe2 	str	x2, [sp, #24]
/home/scm4818/optee_project/optee_os/lib/libutee/tee_api_arith_mpi.c:535
    2f70:	52800041 	mov	w1, #0x2                   	// #2
    2f74:	f9400fe0 	ldr	x0, [sp, #24]
    2f78:	97fffd25 	bl	240c <TEE_BigIntCmpS32>
    2f7c:	7100001f 	cmp	w0, #0x0
    2f80:	540000cb 	b.lt	2f98 <TEE_BigIntInvMod+0x3c>  // b.tstop
/home/scm4818/optee_project/optee_os/lib/libutee/tee_api_arith_mpi.c:535 (discriminator 1)
    2f84:	52800001 	mov	w1, #0x0                   	// #0
    2f88:	f94013e0 	ldr	x0, [sp, #32]
    2f8c:	97fffd20 	bl	240c <TEE_BigIntCmpS32>
    2f90:	7100001f 	cmp	w0, #0x0
    2f94:	540000e1 	b.ne	2fb0 <TEE_BigIntInvMod+0x54>  // b.any
/home/scm4818/optee_project/optee_os/lib/libutee/tee_api_arith_mpi.c:536
    2f98:	90000080 	adrp	x0, 12000 <__text_end+0x1164>
    2f9c:	91352002 	add	x2, x0, #0xd48
    2fa0:	52804301 	mov	w1, #0x218                 	// #536
    2fa4:	90000080 	adrp	x0, 12000 <__text_end+0x1164>
    2fa8:	91396000 	add	x0, x0, #0xe58
    2fac:	97fffb7a 	bl	1d94 <api_panic>
/home/scm4818/optee_project/optee_os/lib/libutee/tee_api_arith_mpi.c:541
    2fb0:	910143e0 	add	x0, sp, #0x50
    2fb4:	f90047e0 	str	x0, [sp, #136]
/home/scm4818/optee_project/optee_os/lib/libutee/tee_api_arith_mpi.c:543
    2fb8:	9101a3e0 	add	x0, sp, #0x68
    2fbc:	f94017e1 	ldr	x1, [sp, #40]
    2fc0:	97fffbe3 	bl	1f4c <get_mpi>
/home/scm4818/optee_project/optee_os/lib/libutee/tee_api_arith_mpi.c:544
    2fc4:	9100e3e0 	add	x0, sp, #0x38
    2fc8:	f9400fe1 	ldr	x1, [sp, #24]
    2fcc:	97fffbe0 	bl	1f4c <get_mpi>
/home/scm4818/optee_project/optee_os/lib/libutee/tee_api_arith_mpi.c:546
    2fd0:	f94013e1 	ldr	x1, [sp, #32]
    2fd4:	f94017e0 	ldr	x0, [sp, #40]
    2fd8:	eb00003f 	cmp	x1, x0
    2fdc:	54000081 	b.ne	2fec <TEE_BigIntInvMod+0x90>  // b.any
/home/scm4818/optee_project/optee_os/lib/libutee/tee_api_arith_mpi.c:547
    2fe0:	9101a3e0 	add	x0, sp, #0x68
    2fe4:	f90047e0 	str	x0, [sp, #136]
    2fe8:	14000004 	b	2ff8 <TEE_BigIntInvMod+0x9c>
/home/scm4818/optee_project/optee_os/lib/libutee/tee_api_arith_mpi.c:549
    2fec:	910143e0 	add	x0, sp, #0x50
    2ff0:	f94013e1 	ldr	x1, [sp, #32]
    2ff4:	97fffbd6 	bl	1f4c <get_mpi>
/home/scm4818/optee_project/optee_os/lib/libutee/tee_api_arith_mpi.c:551
    2ff8:	9100e3e1 	add	x1, sp, #0x38
    2ffc:	9101a3e0 	add	x0, sp, #0x68
    3000:	aa0103e2 	mov	x2, x1
    3004:	f94047e1 	ldr	x1, [sp, #136]
    3008:	94001e2c 	bl	a8b8 <mbedtls_mpi_inv_mod>
    300c:	b90087e0 	str	w0, [sp, #132]
    3010:	b94087e0 	ldr	w0, [sp, #132]
    3014:	7100001f 	cmp	w0, #0x0
    3018:	540000c0 	b.eq	3030 <TEE_BigIntInvMod+0xd4>  // b.none
/home/scm4818/optee_project/optee_os/lib/libutee/tee_api_arith_mpi.c:551 (discriminator 1)
    301c:	b94087e2 	ldr	w2, [sp, #132]
    3020:	528044e1 	mov	w1, #0x227                 	// #551
    3024:	f0000060 	adrp	x0, 12000 <__text_end+0x1164>
    3028:	91396000 	add	x0, x0, #0xe58
    302c:	97fffb69 	bl	1dd0 <mpi_panic>
/home/scm4818/optee_project/optee_os/lib/libutee/tee_api_arith_mpi.c:553
    3030:	9101a3e0 	add	x0, sp, #0x68
    3034:	f94017e1 	ldr	x1, [sp, #40]
    3038:	97fffb8e 	bl	1e70 <copy_mpi_to_bigint>
    303c:	b90083e0 	str	w0, [sp, #128]
    3040:	b94083e0 	ldr	w0, [sp, #128]
    3044:	7100001f 	cmp	w0, #0x0
    3048:	540000c0 	b.eq	3060 <TEE_BigIntInvMod+0x104>  // b.none
/home/scm4818/optee_project/optee_os/lib/libutee/tee_api_arith_mpi.c:553 (discriminator 1)
    304c:	b94083e2 	ldr	w2, [sp, #128]
    3050:	52804521 	mov	w1, #0x229                 	// #553
    3054:	f0000060 	adrp	x0, 12000 <__text_end+0x1164>
    3058:	91396000 	add	x0, x0, #0xe58
    305c:	97fffb5d 	bl	1dd0 <mpi_panic>
/home/scm4818/optee_project/optee_os/lib/libutee/tee_api_arith_mpi.c:554
    3060:	9101a3e0 	add	x0, sp, #0x68
    3064:	94000524 	bl	44f4 <mbedtls_mpi_free>
/home/scm4818/optee_project/optee_os/lib/libutee/tee_api_arith_mpi.c:555
    3068:	9100e3e0 	add	x0, sp, #0x38
    306c:	94000522 	bl	44f4 <mbedtls_mpi_free>
/home/scm4818/optee_project/optee_os/lib/libutee/tee_api_arith_mpi.c:556
    3070:	910143e0 	add	x0, sp, #0x50
    3074:	f94047e1 	ldr	x1, [sp, #136]
    3078:	eb00003f 	cmp	x1, x0
    307c:	54000061 	b.ne	3088 <TEE_BigIntInvMod+0x12c>  // b.any
/home/scm4818/optee_project/optee_os/lib/libutee/tee_api_arith_mpi.c:557
    3080:	910143e0 	add	x0, sp, #0x50
    3084:	9400051c 	bl	44f4 <mbedtls_mpi_free>
/home/scm4818/optee_project/optee_os/lib/libutee/tee_api_arith_mpi.c:558
    3088:	d503201f 	nop
    308c:	a8c97bfd 	ldp	x29, x30, [sp], #144
    3090:	d65f03c0 	ret

0000000000003094 <TEE_BigIntRelativePrime>:
TEE_BigIntRelativePrime():
/home/scm4818/optee_project/optee_os/lib/libutee/tee_api_arith_mpi.c:561
    3094:	a9b87bfd 	stp	x29, x30, [sp, #-128]!
    3098:	910003fd 	mov	x29, sp
    309c:	f9000fe0 	str	x0, [sp, #24]
    30a0:	f9000be1 	str	x1, [sp, #16]
/home/scm4818/optee_project/optee_os/lib/libutee/tee_api_arith_mpi.c:565
    30a4:	910103e0 	add	x0, sp, #0x40
    30a8:	f9003fe0 	str	x0, [sp, #120]
/home/scm4818/optee_project/optee_os/lib/libutee/tee_api_arith_mpi.c:568
    30ac:	910163e0 	add	x0, sp, #0x58
    30b0:	f9400fe1 	ldr	x1, [sp, #24]
    30b4:	97fffba6 	bl	1f4c <get_mpi>
/home/scm4818/optee_project/optee_os/lib/libutee/tee_api_arith_mpi.c:570
    30b8:	f9400be1 	ldr	x1, [sp, #16]
    30bc:	f9400fe0 	ldr	x0, [sp, #24]
    30c0:	eb00003f 	cmp	x1, x0
    30c4:	54000081 	b.ne	30d4 <TEE_BigIntRelativePrime+0x40>  // b.any
/home/scm4818/optee_project/optee_os/lib/libutee/tee_api_arith_mpi.c:571
    30c8:	910163e0 	add	x0, sp, #0x58
    30cc:	f9003fe0 	str	x0, [sp, #120]
    30d0:	14000004 	b	30e0 <TEE_BigIntRelativePrime+0x4c>
/home/scm4818/optee_project/optee_os/lib/libutee/tee_api_arith_mpi.c:573
    30d4:	910103e0 	add	x0, sp, #0x40
    30d8:	f9400be1 	ldr	x1, [sp, #16]
    30dc:	97fffb9c 	bl	1f4c <get_mpi>
/home/scm4818/optee_project/optee_os/lib/libutee/tee_api_arith_mpi.c:575
    30e0:	9100a3e0 	add	x0, sp, #0x28
    30e4:	d2800001 	mov	x1, #0x0                   	// #0
    30e8:	97fffb99 	bl	1f4c <get_mpi>
/home/scm4818/optee_project/optee_os/lib/libutee/tee_api_arith_mpi.c:577
    30ec:	910103e2 	add	x2, sp, #0x40
    30f0:	910163e1 	add	x1, sp, #0x58
    30f4:	9100a3e0 	add	x0, sp, #0x28
    30f8:	94001d10 	bl	a538 <mbedtls_mpi_gcd>
    30fc:	b90077e0 	str	w0, [sp, #116]
    3100:	b94077e0 	ldr	w0, [sp, #116]
    3104:	7100001f 	cmp	w0, #0x0
    3108:	540000c0 	b.eq	3120 <TEE_BigIntRelativePrime+0x8c>  // b.none
/home/scm4818/optee_project/optee_os/lib/libutee/tee_api_arith_mpi.c:577 (discriminator 1)
    310c:	b94077e2 	ldr	w2, [sp, #116]
    3110:	52804821 	mov	w1, #0x241                 	// #577
    3114:	f0000060 	adrp	x0, 12000 <__text_end+0x1164>
    3118:	9139c000 	add	x0, x0, #0xe70
    311c:	97fffb2d 	bl	1dd0 <mpi_panic>
/home/scm4818/optee_project/optee_os/lib/libutee/tee_api_arith_mpi.c:579
    3120:	9100a3e0 	add	x0, sp, #0x28
    3124:	52800021 	mov	w1, #0x1                   	// #1
    3128:	94000ec0 	bl	6c28 <mbedtls_mpi_cmp_int>
    312c:	7100001f 	cmp	w0, #0x0
    3130:	1a9f17e0 	cset	w0, eq  // eq = none
    3134:	3901cfe0 	strb	w0, [sp, #115]
/home/scm4818/optee_project/optee_os/lib/libutee/tee_api_arith_mpi.c:581
    3138:	9100a3e0 	add	x0, sp, #0x28
    313c:	940004ee 	bl	44f4 <mbedtls_mpi_free>
/home/scm4818/optee_project/optee_os/lib/libutee/tee_api_arith_mpi.c:582
    3140:	910163e0 	add	x0, sp, #0x58
    3144:	940004ec 	bl	44f4 <mbedtls_mpi_free>
/home/scm4818/optee_project/optee_os/lib/libutee/tee_api_arith_mpi.c:583
    3148:	910103e0 	add	x0, sp, #0x40
    314c:	f9403fe1 	ldr	x1, [sp, #120]
    3150:	eb00003f 	cmp	x1, x0
    3154:	54000061 	b.ne	3160 <TEE_BigIntRelativePrime+0xcc>  // b.any
/home/scm4818/optee_project/optee_os/lib/libutee/tee_api_arith_mpi.c:584
    3158:	910103e0 	add	x0, sp, #0x40
    315c:	940004e6 	bl	44f4 <mbedtls_mpi_free>
/home/scm4818/optee_project/optee_os/lib/libutee/tee_api_arith_mpi.c:586
    3160:	3941cfe0 	ldrb	w0, [sp, #115]
/home/scm4818/optee_project/optee_os/lib/libutee/tee_api_arith_mpi.c:587
    3164:	a8c87bfd 	ldp	x29, x30, [sp], #128
    3168:	d65f03c0 	ret

000000000000316c <mpi_is_odd>:
mpi_is_odd():
/home/scm4818/optee_project/optee_os/lib/libutee/tee_api_arith_mpi.c:590
    316c:	a9be7bfd 	stp	x29, x30, [sp, #-32]!
    3170:	910003fd 	mov	x29, sp
    3174:	f9000fe0 	str	x0, [sp, #24]
/home/scm4818/optee_project/optee_os/lib/libutee/tee_api_arith_mpi.c:591
    3178:	d2800001 	mov	x1, #0x0                   	// #0
    317c:	f9400fe0 	ldr	x0, [sp, #24]
    3180:	9400077b 	bl	4f6c <mbedtls_mpi_get_bit>
    3184:	7100001f 	cmp	w0, #0x0
    3188:	1a9f07e0 	cset	w0, ne  // ne = any
    318c:	12001c00 	and	w0, w0, #0xff
/home/scm4818/optee_project/optee_os/lib/libutee/tee_api_arith_mpi.c:592
    3190:	a8c27bfd 	ldp	x29, x30, [sp], #32
    3194:	d65f03c0 	ret

0000000000003198 <mpi_is_even>:
mpi_is_even():
/home/scm4818/optee_project/optee_os/lib/libutee/tee_api_arith_mpi.c:595
    3198:	a9be7bfd 	stp	x29, x30, [sp, #-32]!
    319c:	910003fd 	mov	x29, sp
    31a0:	f9000fe0 	str	x0, [sp, #24]
/home/scm4818/optee_project/optee_os/lib/libutee/tee_api_arith_mpi.c:596
    31a4:	f9400fe0 	ldr	x0, [sp, #24]
    31a8:	97fffff1 	bl	316c <mpi_is_odd>
    31ac:	12001c00 	and	w0, w0, #0xff
    31b0:	7100001f 	cmp	w0, #0x0
    31b4:	1a9f07e0 	cset	w0, ne  // ne = any
    31b8:	12001c00 	and	w0, w0, #0xff
    31bc:	52000000 	eor	w0, w0, #0x1
    31c0:	12001c00 	and	w0, w0, #0xff
    31c4:	12000000 	and	w0, w0, #0x1
    31c8:	12001c00 	and	w0, w0, #0xff
/home/scm4818/optee_project/optee_os/lib/libutee/tee_api_arith_mpi.c:597
    31cc:	a8c27bfd 	ldp	x29, x30, [sp], #32
    31d0:	d65f03c0 	ret

00000000000031d4 <mpi_egcd>:
mpi_egcd():
/home/scm4818/optee_project/optee_os/lib/libutee/tee_api_arith_mpi.c:605
    31d4:	a9a97bfd 	stp	x29, x30, [sp, #-368]!
    31d8:	910003fd 	mov	x29, sp
    31dc:	f9001fe0 	str	x0, [sp, #56]
    31e0:	f9001be1 	str	x1, [sp, #48]
    31e4:	f90017e2 	str	x2, [sp, #40]
    31e8:	f90013e3 	str	x3, [sp, #32]
    31ec:	f9000fe4 	str	x4, [sp, #24]
/home/scm4818/optee_project/optee_os/lib/libutee/tee_api_arith_mpi.c:615
    31f0:	910343e0 	add	x0, sp, #0xd0
    31f4:	d2800001 	mov	x1, #0x0                   	// #0
    31f8:	97fffb55 	bl	1f4c <get_mpi>
/home/scm4818/optee_project/optee_os/lib/libutee/tee_api_arith_mpi.c:616
    31fc:	9102e3e0 	add	x0, sp, #0xb8
    3200:	d2800001 	mov	x1, #0x0                   	// #0
    3204:	97fffb52 	bl	1f4c <get_mpi>
/home/scm4818/optee_project/optee_os/lib/libutee/tee_api_arith_mpi.c:617
    3208:	910283e0 	add	x0, sp, #0xa0
    320c:	d2800001 	mov	x1, #0x0                   	// #0
    3210:	97fffb4f 	bl	1f4c <get_mpi>
/home/scm4818/optee_project/optee_os/lib/libutee/tee_api_arith_mpi.c:618
    3214:	910223e0 	add	x0, sp, #0x88
    3218:	d2800001 	mov	x1, #0x0                   	// #0
    321c:	97fffb4c 	bl	1f4c <get_mpi>
/home/scm4818/optee_project/optee_os/lib/libutee/tee_api_arith_mpi.c:619
    3220:	9101c3e0 	add	x0, sp, #0x70
    3224:	d2800001 	mov	x1, #0x0                   	// #0
    3228:	97fffb49 	bl	1f4c <get_mpi>
/home/scm4818/optee_project/optee_os/lib/libutee/tee_api_arith_mpi.c:620
    322c:	910163e0 	add	x0, sp, #0x58
    3230:	d2800001 	mov	x1, #0x0                   	// #0
    3234:	97fffb46 	bl	1f4c <get_mpi>
/home/scm4818/optee_project/optee_os/lib/libutee/tee_api_arith_mpi.c:621
    3238:	910103e0 	add	x0, sp, #0x40
    323c:	d2800001 	mov	x1, #0x0                   	// #0
    3240:	97fffb43 	bl	1f4c <get_mpi>
/home/scm4818/optee_project/optee_os/lib/libutee/tee_api_arith_mpi.c:624
    3244:	52800001 	mov	w1, #0x0                   	// #0
    3248:	f9400fe0 	ldr	x0, [sp, #24]
    324c:	94000e77 	bl	6c28 <mbedtls_mpi_cmp_int>
    3250:	7100001f 	cmp	w0, #0x0
    3254:	540004a1 	b.ne	32e8 <mpi_egcd+0x114>  // b.any
/home/scm4818/optee_project/optee_os/lib/libutee/tee_api_arith_mpi.c:625
    3258:	52800021 	mov	w1, #0x1                   	// #1
    325c:	f9401be0 	ldr	x0, [sp, #48]
    3260:	9400071a 	bl	4ec8 <mbedtls_mpi_lset>
    3264:	b9016be0 	str	w0, [sp, #360]
    3268:	b9416be0 	ldr	w0, [sp, #360]
    326c:	7100001f 	cmp	w0, #0x0
    3270:	540000c0 	b.eq	3288 <mpi_egcd+0xb4>  // b.none
/home/scm4818/optee_project/optee_os/lib/libutee/tee_api_arith_mpi.c:625 (discriminator 1)
    3274:	b9416be2 	ldr	w2, [sp, #360]
    3278:	52804e21 	mov	w1, #0x271                 	// #625
    327c:	f0000060 	adrp	x0, 12000 <__text_end+0x1164>
    3280:	913a2000 	add	x0, x0, #0xe88
    3284:	97fffad3 	bl	1dd0 <mpi_panic>
/home/scm4818/optee_project/optee_os/lib/libutee/tee_api_arith_mpi.c:626
    3288:	52800001 	mov	w1, #0x0                   	// #0
    328c:	f94017e0 	ldr	x0, [sp, #40]
    3290:	9400070e 	bl	4ec8 <mbedtls_mpi_lset>
    3294:	b90167e0 	str	w0, [sp, #356]
    3298:	b94167e0 	ldr	w0, [sp, #356]
    329c:	7100001f 	cmp	w0, #0x0
    32a0:	540000c0 	b.eq	32b8 <mpi_egcd+0xe4>  // b.none
/home/scm4818/optee_project/optee_os/lib/libutee/tee_api_arith_mpi.c:626 (discriminator 1)
    32a4:	b94167e2 	ldr	w2, [sp, #356]
    32a8:	52804e41 	mov	w1, #0x272                 	// #626
    32ac:	f0000060 	adrp	x0, 12000 <__text_end+0x1164>
    32b0:	913a2000 	add	x0, x0, #0xe88
    32b4:	97fffac7 	bl	1dd0 <mpi_panic>
/home/scm4818/optee_project/optee_os/lib/libutee/tee_api_arith_mpi.c:627
    32b8:	f94013e1 	ldr	x1, [sp, #32]
    32bc:	f9401fe0 	ldr	x0, [sp, #56]
    32c0:	94000594 	bl	4910 <mbedtls_mpi_copy>
    32c4:	b90163e0 	str	w0, [sp, #352]
    32c8:	b94163e0 	ldr	w0, [sp, #352]
    32cc:	7100001f 	cmp	w0, #0x0
    32d0:	54003520 	b.eq	3974 <mpi_egcd+0x7a0>  // b.none
/home/scm4818/optee_project/optee_os/lib/libutee/tee_api_arith_mpi.c:627 (discriminator 1)
    32d4:	b94163e2 	ldr	w2, [sp, #352]
    32d8:	52804e61 	mov	w1, #0x273                 	// #627
    32dc:	f0000060 	adrp	x0, 12000 <__text_end+0x1164>
    32e0:	913a2000 	add	x0, x0, #0xe88
    32e4:	97fffabb 	bl	1dd0 <mpi_panic>
/home/scm4818/optee_project/optee_os/lib/libutee/tee_api_arith_mpi.c:631
    32e8:	9101c3e0 	add	x0, sp, #0x70
    32ec:	f94013e1 	ldr	x1, [sp, #32]
    32f0:	94000588 	bl	4910 <mbedtls_mpi_copy>
    32f4:	b9015fe0 	str	w0, [sp, #348]
    32f8:	b9415fe0 	ldr	w0, [sp, #348]
    32fc:	7100001f 	cmp	w0, #0x0
    3300:	540000c0 	b.eq	3318 <mpi_egcd+0x144>  // b.none
/home/scm4818/optee_project/optee_os/lib/libutee/tee_api_arith_mpi.c:631 (discriminator 1)
    3304:	b9415fe2 	ldr	w2, [sp, #348]
    3308:	52804ee1 	mov	w1, #0x277                 	// #631
    330c:	f0000060 	adrp	x0, 12000 <__text_end+0x1164>
    3310:	913a2000 	add	x0, x0, #0xe88
    3314:	97fffaaf 	bl	1dd0 <mpi_panic>
/home/scm4818/optee_project/optee_os/lib/libutee/tee_api_arith_mpi.c:632
    3318:	910163e0 	add	x0, sp, #0x58
    331c:	f9400fe1 	ldr	x1, [sp, #24]
    3320:	9400057c 	bl	4910 <mbedtls_mpi_copy>
    3324:	b9015be0 	str	w0, [sp, #344]
    3328:	b9415be0 	ldr	w0, [sp, #344]
    332c:	7100001f 	cmp	w0, #0x0
    3330:	540000c0 	b.eq	3348 <mpi_egcd+0x174>  // b.none
/home/scm4818/optee_project/optee_os/lib/libutee/tee_api_arith_mpi.c:632 (discriminator 1)
    3334:	b9415be2 	ldr	w2, [sp, #344]
    3338:	52804f01 	mov	w1, #0x278                 	// #632
    333c:	f0000060 	adrp	x0, 12000 <__text_end+0x1164>
    3340:	913a2000 	add	x0, x0, #0xe88
    3344:	97fffaa3 	bl	1dd0 <mpi_panic>
/home/scm4818/optee_project/optee_os/lib/libutee/tee_api_arith_mpi.c:634
    3348:	b9016fff 	str	wzr, [sp, #364]
/home/scm4818/optee_project/optee_os/lib/libutee/tee_api_arith_mpi.c:635
    334c:	1400001c 	b	33bc <mpi_egcd+0x1e8>
/home/scm4818/optee_project/optee_os/lib/libutee/tee_api_arith_mpi.c:636
    3350:	b9416fe0 	ldr	w0, [sp, #364]
    3354:	11000400 	add	w0, w0, #0x1
    3358:	b9016fe0 	str	w0, [sp, #364]
/home/scm4818/optee_project/optee_os/lib/libutee/tee_api_arith_mpi.c:637
    335c:	9101c3e0 	add	x0, sp, #0x70
    3360:	d2800021 	mov	x1, #0x1                   	// #1
    3364:	94000c20 	bl	63e4 <mbedtls_mpi_shift_r>
    3368:	b90157e0 	str	w0, [sp, #340]
    336c:	b94157e0 	ldr	w0, [sp, #340]
    3370:	7100001f 	cmp	w0, #0x0
    3374:	540000c0 	b.eq	338c <mpi_egcd+0x1b8>  // b.none
/home/scm4818/optee_project/optee_os/lib/libutee/tee_api_arith_mpi.c:637 (discriminator 1)
    3378:	b94157e2 	ldr	w2, [sp, #340]
    337c:	52804fa1 	mov	w1, #0x27d                 	// #637
    3380:	f0000060 	adrp	x0, 12000 <__text_end+0x1164>
    3384:	913a2000 	add	x0, x0, #0xe88
    3388:	97fffa92 	bl	1dd0 <mpi_panic>
/home/scm4818/optee_project/optee_os/lib/libutee/tee_api_arith_mpi.c:638
    338c:	910163e0 	add	x0, sp, #0x58
    3390:	d2800021 	mov	x1, #0x1                   	// #1
    3394:	94000c14 	bl	63e4 <mbedtls_mpi_shift_r>
    3398:	b90153e0 	str	w0, [sp, #336]
    339c:	b94153e0 	ldr	w0, [sp, #336]
    33a0:	7100001f 	cmp	w0, #0x0
    33a4:	540000c0 	b.eq	33bc <mpi_egcd+0x1e8>  // b.none
/home/scm4818/optee_project/optee_os/lib/libutee/tee_api_arith_mpi.c:638 (discriminator 1)
    33a8:	b94153e2 	ldr	w2, [sp, #336]
    33ac:	52804fc1 	mov	w1, #0x27e                 	// #638
    33b0:	f0000060 	adrp	x0, 12000 <__text_end+0x1164>
    33b4:	913a2000 	add	x0, x0, #0xe88
    33b8:	97fffa86 	bl	1dd0 <mpi_panic>
/home/scm4818/optee_project/optee_os/lib/libutee/tee_api_arith_mpi.c:635
    33bc:	9101c3e0 	add	x0, sp, #0x70
    33c0:	97ffff76 	bl	3198 <mpi_is_even>
    33c4:	12001c00 	and	w0, w0, #0xff
    33c8:	7100001f 	cmp	w0, #0x0
    33cc:	540000c0 	b.eq	33e4 <mpi_egcd+0x210>  // b.none
/home/scm4818/optee_project/optee_os/lib/libutee/tee_api_arith_mpi.c:635 (discriminator 1)
    33d0:	910163e0 	add	x0, sp, #0x58
    33d4:	97ffff71 	bl	3198 <mpi_is_even>
    33d8:	12001c00 	and	w0, w0, #0xff
    33dc:	7100001f 	cmp	w0, #0x0
    33e0:	54fffb81 	b.ne	3350 <mpi_egcd+0x17c>  // b.any
/home/scm4818/optee_project/optee_os/lib/libutee/tee_api_arith_mpi.c:641
    33e4:	9101c3e1 	add	x1, sp, #0x70
    33e8:	910103e0 	add	x0, sp, #0x40
    33ec:	94000549 	bl	4910 <mbedtls_mpi_copy>
    33f0:	b9014fe0 	str	w0, [sp, #332]
    33f4:	b9414fe0 	ldr	w0, [sp, #332]
    33f8:	7100001f 	cmp	w0, #0x0
    33fc:	540000c0 	b.eq	3414 <mpi_egcd+0x240>  // b.none
/home/scm4818/optee_project/optee_os/lib/libutee/tee_api_arith_mpi.c:641 (discriminator 1)
    3400:	b9414fe2 	ldr	w2, [sp, #332]
    3404:	52805021 	mov	w1, #0x281                 	// #641
    3408:	f0000060 	adrp	x0, 12000 <__text_end+0x1164>
    340c:	913a2000 	add	x0, x0, #0xe88
    3410:	97fffa70 	bl	1dd0 <mpi_panic>
/home/scm4818/optee_project/optee_os/lib/libutee/tee_api_arith_mpi.c:642
    3414:	910163e0 	add	x0, sp, #0x58
    3418:	aa0003e1 	mov	x1, x0
    341c:	f9401fe0 	ldr	x0, [sp, #56]
    3420:	9400053c 	bl	4910 <mbedtls_mpi_copy>
    3424:	b9014be0 	str	w0, [sp, #328]
    3428:	b9414be0 	ldr	w0, [sp, #328]
    342c:	7100001f 	cmp	w0, #0x0
    3430:	540000c0 	b.eq	3448 <mpi_egcd+0x274>  // b.none
/home/scm4818/optee_project/optee_os/lib/libutee/tee_api_arith_mpi.c:642 (discriminator 1)
    3434:	b9414be2 	ldr	w2, [sp, #328]
    3438:	52805041 	mov	w1, #0x282                 	// #642
    343c:	f0000060 	adrp	x0, 12000 <__text_end+0x1164>
    3440:	913a2000 	add	x0, x0, #0xe88
    3444:	97fffa63 	bl	1dd0 <mpi_panic>
/home/scm4818/optee_project/optee_os/lib/libutee/tee_api_arith_mpi.c:643
    3448:	910343e0 	add	x0, sp, #0xd0
    344c:	52800021 	mov	w1, #0x1                   	// #1
    3450:	9400069e 	bl	4ec8 <mbedtls_mpi_lset>
    3454:	b90147e0 	str	w0, [sp, #324]
    3458:	b94147e0 	ldr	w0, [sp, #324]
    345c:	7100001f 	cmp	w0, #0x0
    3460:	540000c0 	b.eq	3478 <mpi_egcd+0x2a4>  // b.none
/home/scm4818/optee_project/optee_os/lib/libutee/tee_api_arith_mpi.c:643 (discriminator 1)
    3464:	b94147e2 	ldr	w2, [sp, #324]
    3468:	52805061 	mov	w1, #0x283                 	// #643
    346c:	f0000060 	adrp	x0, 12000 <__text_end+0x1164>
    3470:	913a2000 	add	x0, x0, #0xe88
    3474:	97fffa57 	bl	1dd0 <mpi_panic>
/home/scm4818/optee_project/optee_os/lib/libutee/tee_api_arith_mpi.c:644
    3478:	9102e3e0 	add	x0, sp, #0xb8
    347c:	52800001 	mov	w1, #0x0                   	// #0
    3480:	94000692 	bl	4ec8 <mbedtls_mpi_lset>
    3484:	b90143e0 	str	w0, [sp, #320]
    3488:	b94143e0 	ldr	w0, [sp, #320]
    348c:	7100001f 	cmp	w0, #0x0
    3490:	540000c0 	b.eq	34a8 <mpi_egcd+0x2d4>  // b.none
/home/scm4818/optee_project/optee_os/lib/libutee/tee_api_arith_mpi.c:644 (discriminator 1)
    3494:	b94143e2 	ldr	w2, [sp, #320]
    3498:	52805081 	mov	w1, #0x284                 	// #644
    349c:	f0000060 	adrp	x0, 12000 <__text_end+0x1164>
    34a0:	913a2000 	add	x0, x0, #0xe88
    34a4:	97fffa4b 	bl	1dd0 <mpi_panic>
/home/scm4818/optee_project/optee_os/lib/libutee/tee_api_arith_mpi.c:645
    34a8:	910283e0 	add	x0, sp, #0xa0
    34ac:	52800001 	mov	w1, #0x0                   	// #0
    34b0:	94000686 	bl	4ec8 <mbedtls_mpi_lset>
    34b4:	b9013fe0 	str	w0, [sp, #316]
    34b8:	b9413fe0 	ldr	w0, [sp, #316]
    34bc:	7100001f 	cmp	w0, #0x0
    34c0:	540000c0 	b.eq	34d8 <mpi_egcd+0x304>  // b.none
/home/scm4818/optee_project/optee_os/lib/libutee/tee_api_arith_mpi.c:645 (discriminator 1)
    34c4:	b9413fe2 	ldr	w2, [sp, #316]
    34c8:	528050a1 	mov	w1, #0x285                 	// #645
    34cc:	f0000060 	adrp	x0, 12000 <__text_end+0x1164>
    34d0:	913a2000 	add	x0, x0, #0xe88
    34d4:	97fffa3f 	bl	1dd0 <mpi_panic>
/home/scm4818/optee_project/optee_os/lib/libutee/tee_api_arith_mpi.c:646
    34d8:	910223e0 	add	x0, sp, #0x88
    34dc:	52800021 	mov	w1, #0x1                   	// #1
    34e0:	9400067a 	bl	4ec8 <mbedtls_mpi_lset>
    34e4:	b9013be0 	str	w0, [sp, #312]
    34e8:	b9413be0 	ldr	w0, [sp, #312]
    34ec:	7100001f 	cmp	w0, #0x0
    34f0:	54001ea0 	b.eq	38c4 <mpi_egcd+0x6f0>  // b.none
/home/scm4818/optee_project/optee_os/lib/libutee/tee_api_arith_mpi.c:646 (discriminator 1)
    34f4:	b9413be2 	ldr	w2, [sp, #312]
    34f8:	528050c1 	mov	w1, #0x286                 	// #646
    34fc:	f0000060 	adrp	x0, 12000 <__text_end+0x1164>
    3500:	913a2000 	add	x0, x0, #0xe88
    3504:	97fffa33 	bl	1dd0 <mpi_panic>
/home/scm4818/optee_project/optee_os/lib/libutee/tee_api_arith_mpi.c:650
    3508:	910103e0 	add	x0, sp, #0x40
    350c:	d2800021 	mov	x1, #0x1                   	// #1
    3510:	94000bb5 	bl	63e4 <mbedtls_mpi_shift_r>
    3514:	b90137e0 	str	w0, [sp, #308]
    3518:	b94137e0 	ldr	w0, [sp, #308]
    351c:	7100001f 	cmp	w0, #0x0
    3520:	540000c0 	b.eq	3538 <mpi_egcd+0x364>  // b.none
/home/scm4818/optee_project/optee_os/lib/libutee/tee_api_arith_mpi.c:650 (discriminator 1)
    3524:	b94137e2 	ldr	w2, [sp, #308]
    3528:	52805141 	mov	w1, #0x28a                 	// #650
    352c:	f0000060 	adrp	x0, 12000 <__text_end+0x1164>
    3530:	913a2000 	add	x0, x0, #0xe88
    3534:	97fffa27 	bl	1dd0 <mpi_panic>
/home/scm4818/optee_project/optee_os/lib/libutee/tee_api_arith_mpi.c:651
    3538:	910343e0 	add	x0, sp, #0xd0
    353c:	97ffff0c 	bl	316c <mpi_is_odd>
    3540:	12001c00 	and	w0, w0, #0xff
    3544:	7100001f 	cmp	w0, #0x0
    3548:	540000c1 	b.ne	3560 <mpi_egcd+0x38c>  // b.any
/home/scm4818/optee_project/optee_os/lib/libutee/tee_api_arith_mpi.c:651 (discriminator 1)
    354c:	9102e3e0 	add	x0, sp, #0xb8
    3550:	97ffff07 	bl	316c <mpi_is_odd>
    3554:	12001c00 	and	w0, w0, #0xff
    3558:	7100001f 	cmp	w0, #0x0
    355c:	54000360 	b.eq	35c8 <mpi_egcd+0x3f4>  // b.none
/home/scm4818/optee_project/optee_os/lib/libutee/tee_api_arith_mpi.c:652
    3560:	910163e2 	add	x2, sp, #0x58
    3564:	910343e1 	add	x1, sp, #0xd0
    3568:	910343e0 	add	x0, sp, #0xd0
    356c:	94000f0a 	bl	7194 <mbedtls_mpi_add_mpi>
    3570:	b90133e0 	str	w0, [sp, #304]
    3574:	b94133e0 	ldr	w0, [sp, #304]
    3578:	7100001f 	cmp	w0, #0x0
    357c:	540000c0 	b.eq	3594 <mpi_egcd+0x3c0>  // b.none
/home/scm4818/optee_project/optee_os/lib/libutee/tee_api_arith_mpi.c:652 (discriminator 1)
    3580:	b94133e2 	ldr	w2, [sp, #304]
    3584:	52805181 	mov	w1, #0x28c                 	// #652
    3588:	f0000060 	adrp	x0, 12000 <__text_end+0x1164>
    358c:	913a2000 	add	x0, x0, #0xe88
    3590:	97fffa10 	bl	1dd0 <mpi_panic>
/home/scm4818/optee_project/optee_os/lib/libutee/tee_api_arith_mpi.c:653
    3594:	9101c3e2 	add	x2, sp, #0x70
    3598:	9102e3e1 	add	x1, sp, #0xb8
    359c:	9102e3e0 	add	x0, sp, #0xb8
    35a0:	94000f44 	bl	72b0 <mbedtls_mpi_sub_mpi>
    35a4:	b9012fe0 	str	w0, [sp, #300]
    35a8:	b9412fe0 	ldr	w0, [sp, #300]
    35ac:	7100001f 	cmp	w0, #0x0
    35b0:	540000c0 	b.eq	35c8 <mpi_egcd+0x3f4>  // b.none
/home/scm4818/optee_project/optee_os/lib/libutee/tee_api_arith_mpi.c:653 (discriminator 1)
    35b4:	b9412fe2 	ldr	w2, [sp, #300]
    35b8:	528051a1 	mov	w1, #0x28d                 	// #653
    35bc:	f0000060 	adrp	x0, 12000 <__text_end+0x1164>
    35c0:	913a2000 	add	x0, x0, #0xe88
    35c4:	97fffa03 	bl	1dd0 <mpi_panic>
/home/scm4818/optee_project/optee_os/lib/libutee/tee_api_arith_mpi.c:655
    35c8:	910343e0 	add	x0, sp, #0xd0
    35cc:	d2800021 	mov	x1, #0x1                   	// #1
    35d0:	94000b85 	bl	63e4 <mbedtls_mpi_shift_r>
    35d4:	b9012be0 	str	w0, [sp, #296]
    35d8:	b9412be0 	ldr	w0, [sp, #296]
    35dc:	7100001f 	cmp	w0, #0x0
    35e0:	540000c0 	b.eq	35f8 <mpi_egcd+0x424>  // b.none
/home/scm4818/optee_project/optee_os/lib/libutee/tee_api_arith_mpi.c:655 (discriminator 1)
    35e4:	b9412be2 	ldr	w2, [sp, #296]
    35e8:	528051e1 	mov	w1, #0x28f                 	// #655
    35ec:	f0000060 	adrp	x0, 12000 <__text_end+0x1164>
    35f0:	913a2000 	add	x0, x0, #0xe88
    35f4:	97fff9f7 	bl	1dd0 <mpi_panic>
/home/scm4818/optee_project/optee_os/lib/libutee/tee_api_arith_mpi.c:656
    35f8:	9102e3e0 	add	x0, sp, #0xb8
    35fc:	d2800021 	mov	x1, #0x1                   	// #1
    3600:	94000b79 	bl	63e4 <mbedtls_mpi_shift_r>
    3604:	b90127e0 	str	w0, [sp, #292]
    3608:	b94127e0 	ldr	w0, [sp, #292]
    360c:	7100001f 	cmp	w0, #0x0
    3610:	540000c0 	b.eq	3628 <mpi_egcd+0x454>  // b.none
/home/scm4818/optee_project/optee_os/lib/libutee/tee_api_arith_mpi.c:656 (discriminator 1)
    3614:	b94127e2 	ldr	w2, [sp, #292]
    3618:	52805201 	mov	w1, #0x290                 	// #656
    361c:	f0000060 	adrp	x0, 12000 <__text_end+0x1164>
    3620:	913a2000 	add	x0, x0, #0xe88
    3624:	97fff9eb 	bl	1dd0 <mpi_panic>
/home/scm4818/optee_project/optee_os/lib/libutee/tee_api_arith_mpi.c:649
    3628:	910103e0 	add	x0, sp, #0x40
    362c:	97fffedb 	bl	3198 <mpi_is_even>
    3630:	12001c00 	and	w0, w0, #0xff
    3634:	7100001f 	cmp	w0, #0x0
    3638:	54fff681 	b.ne	3508 <mpi_egcd+0x334>  // b.any
/home/scm4818/optee_project/optee_os/lib/libutee/tee_api_arith_mpi.c:659
