
8aaaf200-2450-11e4-abe2-0002a5d5c51b.elf:     file format elf64-littleaarch64
8aaaf200-2450-11e4-abe2-0002a5d5c51b.elf
architecture: aarch64, flags 0x00000150:
HAS_SYMS, DYNAMIC, D_PAGED
start address 0x0000000000000198

Program Header:
    LOAD off    0x0000000000001000 vaddr 0x0000000000000000 paddr 0x0000000000000000 align 2**12
         filesz 0x000000000000b750 memsz 0x000000000000b750 flags r-x
    LOAD off    0x000000000000d000 vaddr 0x000000000000c000 paddr 0x000000000000c000 align 2**12
         filesz 0x0000000000000444 memsz 0x000000000000b4c0 flags rw-
 DYNAMIC off    0x000000000000d000 vaddr 0x000000000000c000 paddr 0x000000000000c000 align 2**3
         filesz 0x0000000000000110 memsz 0x0000000000000110 flags rw-
   STACK off    0x0000000000000000 vaddr 0x0000000000000000 paddr 0x0000000000000000 align 2**4
         filesz 0x0000000000000000 memsz 0x0000000000000000 flags rw-

Dynamic Section:
  HASH                 0x000000000000b520
  GNU_HASH             0x000000000000b480
  STRTAB               0x000000000000b508
  SYMTAB               0x000000000000b4a8
  STRSZ                0x0000000000000012
  SYMENT               0x0000000000000018
  DEBUG                0x0000000000000000
  RELA                 0x000000000000b540
  RELASZ               0x0000000000000348
  RELAENT              0x0000000000000018
  FLAGS_1              0x0000000008000000
  RELACOUNT            0x0000000000000016
private flags = 0:

Sections:
Idx Name          Size      VMA               LMA               File off  Algn
  0 .ta_head      00000020  0000000000000000  0000000000000000  00001000  2**3
                  CONTENTS, ALLOC, LOAD, READONLY, DATA
  1 .text         00008a4c  0000000000000020  0000000000000020  00001020  2**3
                  CONTENTS, ALLOC, LOAD, READONLY, CODE
  2 .eh_frame     00001af0  0000000000008a70  0000000000008a70  00009a70  2**3
                  CONTENTS, ALLOC, LOAD, READONLY, DATA
  3 .rodata       00000f1b  000000000000a560  000000000000a560  0000b560  2**3
                  CONTENTS, ALLOC, LOAD, READONLY, DATA
  4 .gnu.hash     00000024  000000000000b480  000000000000b480  0000c480  2**3
                  CONTENTS, ALLOC, LOAD, READONLY, DATA
  5 .dynsym       00000060  000000000000b4a8  000000000000b4a8  0000c4a8  2**3
                  CONTENTS, ALLOC, LOAD, READONLY, DATA
  6 .dynstr       00000012  000000000000b508  000000000000b508  0000c508  2**0
                  CONTENTS, ALLOC, LOAD, READONLY, DATA
  7 .hash         0000001c  000000000000b520  000000000000b520  0000c520  2**3
                  CONTENTS, ALLOC, LOAD, READONLY, DATA
  8 .rela.dyn     00000210  000000000000b540  000000000000b540  0000c540  2**3
                  CONTENTS, ALLOC, LOAD, READONLY, DATA
  9 .dynamic      00000110  000000000000c000  000000000000c000  0000d000  2**3
                  CONTENTS, ALLOC, LOAD, DATA
 10 .got          00000088  000000000000c110  000000000000c110  0000d110  2**3
                  CONTENTS, ALLOC, LOAD, DATA
 11 .rela.got     00000138  000000000000c198  000000000000c198  0000d198  2**3
                  CONTENTS, ALLOC, LOAD, READONLY, DATA
 12 .data         00000174  000000000000c2d0  000000000000c2d0  0000d2d0  2**3
                  CONTENTS, ALLOC, LOAD, DATA
 13 .bss          0000b078  000000000000c448  000000000000c448  0000d444  2**3
                  ALLOC
 14 .debug_info   00011831  0000000000000000  0000000000000000  0000d444  2**0
                  CONTENTS, READONLY, DEBUGGING
 15 .debug_abbrev 00002d98  0000000000000000  0000000000000000  0001ec75  2**0
                  CONTENTS, READONLY, DEBUGGING
 16 .debug_loc    0001a672  0000000000000000  0000000000000000  00021a0d  2**0
                  CONTENTS, READONLY, DEBUGGING
 17 .debug_aranges 000007d0  0000000000000000  0000000000000000  0003c080  2**4
                  CONTENTS, READONLY, DEBUGGING
 18 .debug_ranges 000018c0  0000000000000000  0000000000000000  0003c850  2**4
                  CONTENTS, READONLY, DEBUGGING
 19 .debug_macro  00010234  0000000000000000  0000000000000000  0003e110  2**0
                  CONTENTS, READONLY, DEBUGGING
 20 .debug_line   00009e5e  0000000000000000  0000000000000000  0004e344  2**0
                  CONTENTS, READONLY, DEBUGGING
 21 .debug_str    00012330  0000000000000000  0000000000000000  000581a2  2**0
                  CONTENTS, READONLY, DEBUGGING
 22 .comment      00000055  0000000000000000  0000000000000000  0006a4d2  2**0
                  CONTENTS, READONLY
SYMBOL TABLE:
0000000000000000 l    d  .ta_head	0000000000000000 .ta_head
0000000000000020 l    d  .text	0000000000000000 .text
0000000000008a70 l    d  .eh_frame	0000000000000000 .eh_frame
000000000000a560 l    d  .rodata	0000000000000000 .rodata
000000000000b480 l    d  .gnu.hash	0000000000000000 .gnu.hash
000000000000b4a8 l    d  .dynsym	0000000000000000 .dynsym
000000000000b508 l    d  .dynstr	0000000000000000 .dynstr
000000000000b520 l    d  .hash	0000000000000000 .hash
000000000000b540 l    d  .rela.dyn	0000000000000000 .rela.dyn
000000000000c000 l    d  .dynamic	0000000000000000 .dynamic
000000000000c110 l    d  .got	0000000000000000 .got
000000000000c198 l    d  .rela.got	0000000000000000 .rela.got
000000000000c2d0 l    d  .data	0000000000000000 .data
000000000000c448 l    d  .bss	0000000000000000 .bss
0000000000000000 l    d  .debug_info	0000000000000000 .debug_info
0000000000000000 l    d  .debug_abbrev	0000000000000000 .debug_abbrev
0000000000000000 l    d  .debug_loc	0000000000000000 .debug_loc
0000000000000000 l    d  .debug_aranges	0000000000000000 .debug_aranges
0000000000000000 l    d  .debug_ranges	0000000000000000 .debug_ranges
0000000000000000 l    d  .debug_macro	0000000000000000 .debug_macro
0000000000000000 l    d  .debug_line	0000000000000000 .debug_line
0000000000000000 l    d  .debug_str	0000000000000000 .debug_str
0000000000000000 l    d  .comment	0000000000000000 .comment
0000000000000000 l    df *ABS*	0000000000000000 user_ta_header.c
000000000000a568 l     O .rodata	0000000000000004 __compound_literal.5
000000000000a56c l     O .rodata	0000000000000004 __compound_literal.4
000000000000a570 l     O .rodata	0000000000000004 __compound_literal.3
000000000000a574 l     O .rodata	0000000000000001 __compound_literal.2
000000000000a575 l     O .rodata	0000000000000001 __compound_literal.1
000000000000a576 l     O .rodata	0000000000000001 __compound_literal.0
0000000000000000 l    df *ABS*	0000000000000000 memcpy.c
0000000000000000 l    df *ABS*	0000000000000000 hello_world_ta.c
0000000000000000 l    df *ABS*	0000000000000000 utee_syscalls_a64.o
0000000000000000 l    df *ABS*	0000000000000000 user_ta_entry.c
0000000000000460 l     F .text	0000000000000028 ta_header_get_session
0000000000000488 l     F .text	0000000000000078 to_utee_params
0000000000000500 l     F .text	0000000000000068 from_utee_params
0000000000000568 l     F .text	0000000000000014 ta_header_save_params.part.0
00000000000006d4 l     F .text	0000000000000098 ta_header_remove_session
00000000000174b8 l     O .bss	0000000000000001 init_done
000000000000c3a8 l     O .data	0000000000000010 ta_sessions
0000000000000000 l    df *ABS*	0000000000000000 tee_api.c
000000000000096c l     F .text	00000000000000b8 update_out_param
0000000000000ae4 l     F .text	00000000000001d0 copy_param.constprop.1
000000000000c4a0 l     O .bss	0000000000000008 tee_api_instance_data
000000000000a5a3 l     O .rodata	000000000000000b __func__.4733
0000000000000000 l    df *ABS*	0000000000000000 tee_api_arith_mpi.c
0000000000001088 l     F .text	0000000000000030 api_panic
00000000000010b8 l     F .text	0000000000000030 mpi_panic
00000000000010e8 l     F .text	0000000000000098 get_mpi
0000000000001180 l     F .text	0000000000000064 copy_mpi_to_bigint
00000000000011e4 l     F .text	0000000000000118 bigint_binary
00000000000012fc l     F .text	0000000000000020 mpi_is_odd
000000000000131c l     F .text	0000000000000028 rng_read
0000000000001344 l     F .text	000000000000054c mpi_egcd
000000000000c4a8 l     O .bss	0000000000003000 data.4724
0000000000001c2c l     F .text	0000000000000194 bigint_binary_mod
000000000000a9c9 l     O .rodata	0000000000000008 __func__.4758
000000000000a9d1 l     O .rodata	000000000000000e __func__.4855
000000000000a9df l     O .rodata	0000000000000009 __func__.5001
000000000000a9e8 l     O .rodata	0000000000000012 __func__.4725
000000000000a9fa l     O .rodata	000000000000000f __func__.4764
000000000000aa09 l     O .rodata	000000000000001f __func__.4782
000000000000aa28 l     O .rodata	0000000000000019 __func__.4789
000000000000aa41 l     O .rodata	0000000000000012 __func__.4867
000000000000aa53 l     O .rodata	0000000000000015 __func__.4820
000000000000aa68 l     O .rodata	000000000000000e __func__.4895
000000000000aa76 l     O .rodata	000000000000000e __func__.4924
000000000000aa84 l     O .rodata	000000000000000e __func__.4932
000000000000aa92 l     O .rodata	0000000000000011 __func__.4961
000000000000aaa3 l     O .rodata	0000000000000018 __func__.4978
000000000000aabb l     O .rodata	000000000000001d __func__.5058
000000000000aad8 l     O .rodata	0000000000000019 __func__.5111
000000000000aaf1 l     O .rodata	0000000000000015 __func__.5126
0000000000000000 l    df *ABS*	0000000000000000 tee_api_panic.c
0000000000000000 l    df *ABS*	0000000000000000 tee_system_pta.c
00000000000029d4 l     F .text	0000000000000088 invoke_system_pta
000000000000a5b0 l     O .rodata	0000000000000010 uuid.4142
000000000000a5c0 l     O .rodata	000000000000000a __func__.4162
000000000000f4a8 l     O .bss	0000000000000008 sess.4141
0000000000000000 l    df *ABS*	0000000000000000 trace_ext.c
0000000000000000 l    df *ABS*	0000000000000000 bignum.c
0000000000002cd0 l     F .text	0000000000000064 mpi_get_digit
0000000000002d34 l     F .text	0000000000000060 mpi_sub_hlp
0000000000002d94 l     F .text	00000000000004d4 mpi_mul_hlp
0000000000003268 l     F .text	0000000000000074 mpi_bigendian_to_host.part.0
0000000000005128 l     F .text	0000000000000098 mpi_check_small_factors
0000000000005c60 l     F .text	0000000000000280 mpi_miller_rabin
000000000000a5cc l     O .rodata	00000000000002a0 small_prime
000000000000a86c l     O .rodata	0000000000000024 gcd_pairs
0000000000000000 l    df *ABS*	0000000000000000 platform_util.c
000000000000c3b8 l     O .data	0000000000000008 memset_func
0000000000000000 l    df *ABS*	0000000000000000 bget_malloc.c
0000000000006ad4 l     F .text	0000000000000044 raw_malloc_return_hook.constprop.21
000000000000b044 l     O .rodata	0000000000000005 __func__.3641
000000000000b049 l     O .rodata	0000000000000006 __func__.3656
000000000000b04f l     O .rodata	0000000000000005 __func__.3674
000000000000b054 l     O .rodata	0000000000000006 __func__.3665
000000000000b05a l     O .rodata	0000000000000006 __func__.3683
000000000000b060 l     O .rodata	0000000000000007 __func__.3693
000000000000b067 l     O .rodata	0000000000000014 __func__.3857
000000000000b07b l     O .rodata	000000000000000e __func__.3808
000000000000b089 l     O .rodata	0000000000000013 __func__.3755
000000000000c3c0 l     O .data	0000000000000080 malloc_ctx
0000000000000000 l    df *ABS*	0000000000000000 snprintf.c
0000000000000000 l    df *ABS*	0000000000000000 memmove.c
0000000000000000 l    df *ABS*	0000000000000000 memset.c
0000000000000000 l    df *ABS*	0000000000000000 strlen.c
0000000000000000 l    df *ABS*	0000000000000000 snprintk.c
000000000000b340 l     O .rodata	0000000000000011 hexdigits
000000000000b351 l     O .rodata	0000000000000011 HEXDIGITS
0000000000000000 l    df *ABS*	0000000000000000 trace.c
000000000000b39a l     O .rodata	0000000000000005 lvl_strs.3494
0000000000000000 l    df *ABS*	0000000000000000 mempool.c
000000000000b3b9 l     O .rodata	0000000000000013 __func__.3549
000000000000b3cc l     O .rodata	000000000000000e __func__.3558
0000000000000000 l    df *ABS*	0000000000000000 consttime_memcmp.c
0000000000000000 l    df *ABS*	0000000000000000 memchr.c
0000000000000000 l    df *ABS*	0000000000000000 assert.c
0000000000000000 l    df *ABS*	0000000000000000 
000000000000c000 l     O *ABS*	0000000000000000 _DYNAMIC
000000000000c128 l     O *ABS*	0000000000000000 _GLOBAL_OFFSET_TABLE_
0000000000002c94 g     F .text	000000000000003c putchar
0000000000002814 g     F .text	0000000000000004 TEE_BigIntConvertToFMM
0000000000002370 g     F .text	000000000000000c TEE_BigIntSquareMod
0000000000001dc0 g     F .text	000000000000016c TEE_BigIntShiftRight
00000000000003b8 g     F .text	000000000000000c utee_storage_obj_create
0000000000003380 g     F .text	00000000000000f8 mbedtls_mpi_grow
00000000000001c0 g     F .text	000000000000000c utee_return
0000000000001064 g     F .text	0000000000000008 TEE_Realloc
0000000000002b8c g     F .text	00000000000000c8 printf
00000000000001cc g     F .text	000000000000000c utee_log
0000000000000cb4 g     F .text	0000000000000104 TEE_InvokeTACommand
00000000000032ec g     F .text	0000000000000028 mbedtls_mpi_init_mempool
0000000000003c60 g     F .text	00000000000000c4 mbedtls_mpi_write_binary
0000000000008478 g     F .text	0000000000000054 vsnprintk
00000000000044cc g     F .text	0000000000000040 mbedtls_mpi_sub_int
00000000000077b0 g     F .text	000000000000005c memmove
00000000000076e4 g     F .text	0000000000000078 snprintf
0000000000001be4 g     F .text	0000000000000048 TEE_BigIntCmpS32
0000000000003478 g     F .text	0000000000000120 mbedtls_mpi_shrink
0000000000001fb8 g     F .text	000000000000000c TEE_BigIntAdd
00000000000001f0 g     F .text	000000000000000c utee_get_property_name_to_index
000000000000a578 g     O .rodata	0000000000000008 ta_heap_size
0000000000000274 g     F .text	000000000000000c utee_cryp_state_alloc
000000000000037c g     F .text	000000000000000c utee_authenc_enc_final
0000000000004690 g     F .text	00000000000001e4 mbedtls_mpi_read_string
0000000000001fd0 g     F .text	00000000000000b0 TEE_BigIntNeg
0000000000000020 g       .text	0000000000000000 __text_start
0000000000003e24 g     F .text	00000000000000c8 mbedtls_mpi_shift_r
0000000000007678 g     F .text	000000000000006c malloc_buffer_overlaps_heap
0000000000002358 g     F .text	000000000000000c TEE_BigIntSubMod
00000000000063d0 g     F .text	000000000000030c mbedtls_mpi_gen_prime
00000000000038b8 g     F .text	000000000000002c mbedtls_mpi_get_bit
0000000000003ae0 g     F .text	00000000000000c8 mbedtls_mpi_read_binary
000000000000875c g     F .text	0000000000000070 trace_printf
00000000000051fc g     F .text	0000000000000134 mbedtls_mpi_montmul
0000000000000020 g     F .text	00000000000000ec memcpy
000000000000028c g     F .text	000000000000000c utee_cryp_state_free
0000000000002818 g     F .text	000000000000009c TEE_BigIntConvertFromFMM
00000000000029cc g     F .text	0000000000000008 TEE_Panic
0000000000002c54 g     F .text	0000000000000040 puts
00000000000028b4 g     F .text	0000000000000118 TEE_BigIntComputeFMM
0000000000007270 g     F .text	0000000000000038 malloc_get_stats
00000000000002d4 g     F .text	000000000000000c utee_cipher_final
0000000000000fe0 g     F .text	0000000000000028 TEE_GetREETime
000000000000c2d0 g     O .data	00000000000000d8 ta_props
00000000000072a8 g     F .text	0000000000000050 malloc
0000000000000310 g     F .text	000000000000000c utee_cryp_obj_close
000000000000775c g     F .text	0000000000000054 vsnprintf
000000000000c440 g     O .data	0000000000000004 trace_level
0000000000001b7c g     F .text	0000000000000068 TEE_BigIntCmp
000000000000a560 g     O .rodata	0000000000000008 ta_num_props
0000000000007020 g     F .text	00000000000000cc bgetr
0000000000000370 g     F .text	000000000000000c utee_authenc_update_payload
0000000000008934 g     F .text	0000000000000044 mempool_free
00000000000019dc g     F .text	0000000000000094 TEE_BigIntConvertToOctetString
0000000000000454 g     F .text	000000000000000c utee_cache_operation
00000000000039c4 g     F .text	000000000000005c mbedtls_mpi_bitlen
0000000000000358 g     F .text	000000000000000c utee_authenc_init
0000000000001f2c g     F .text	000000000000004c TEE_BigIntGetBit
000000000000a580 g     O .rodata	0000000000000003 trace_ext_prefix
0000000000006cd8 g     F .text	000000000000008c bgetz
0000000000000ea0 g     F .text	000000000000000c TEE_GetInstanceData
0000000000000eec g     F .text	000000000000003c TEE_Wait
0000000000000424 g     F .text	000000000000000c utee_storage_obj_write
000000000000450c g     F .text	0000000000000150 mbedtls_mpi_mul_mpi
0000000000001078 g     F .text	0000000000000008 TEE_CacheFlush
000000000000856c g     F .text	00000000000001f0 trace_vprintf
0000000000000114 g     F .text	0000000000000004 TA_DestroyEntryPoint
00000000000032dc g     F .text	0000000000000010 mbedtls_mpi_init
0000000000003970 g     F .text	0000000000000054 mbedtls_mpi_lsb
0000000000008a14 g     F .text	0000000000000044 _assert_log
000000000000280c g     F .text	0000000000000008 TEE_BigIntFMMContextSizeInU32
0000000000002ad0 g     F .text	000000000000008c tee_unmap
0000000000001890 g     F .text	0000000000000050 _TEE_MathAPI_Init
0000000000004378 g     F .text	0000000000000088 mbedtls_mpi_add_mpi
000000000000040c g     F .text	000000000000000c utee_storage_next_enum
000000000000f4b8 g     O .bss	0000000000008000 ta_heap
000000000000237c g     F .text	000000000000011c TEE_BigIntInvMod
000000000000057c g     F .text	00000000000000b4 __utee_call_elf_init_fn
0000000000000128 g     F .text	0000000000000004 TA_CloseSessionEntryPoint
0000000000004400 g     F .text	000000000000008c mbedtls_mpi_sub_mpi
0000000000008978 g     F .text	0000000000000070 consttime_memcmp
00000000000001d8 g     F .text	000000000000000c __utee_panic
0000000000000280 g     F .text	000000000000000c utee_cryp_state_copy
000000000000012c g     F .text	000000000000006c TA_InvokeCommandEntryPoint
0000000000000630 g     F .text	00000000000000a4 __utee_call_elf_fini_fn
00000000000073c4 g     F .text	0000000000000018 free_wipe
0000000000008838 g     F .text	00000000000000ac mempool_alloc
0000000000000304 g     F .text	000000000000000c utee_cryp_obj_alloc
0000000000000268 g     F .text	000000000000000c utee_set_ta_time
00000000000002f8 g     F .text	000000000000000c utee_cryp_obj_get_attr
00000000000088e4 g     F .text	0000000000000050 mempool_calloc
00000000000072f8 g     F .text	0000000000000064 calloc
000000000000c448 g     O .bss	0000000000000010 __init_fini_info
0000000000001008 g     F .text	000000000000005c TEE_Malloc
0000000000000244 g     F .text	000000000000000c utee_mask_cancellation
000000000000031c g     F .text	000000000000000c utee_cryp_obj_reset
0000000000000ad0 g     F .text	0000000000000014 TEE_CheckMemoryAccessRights
0000000000003850 g     F .text	0000000000000068 mbedtls_mpi_lset
0000000000000118 g     F .text	0000000000000010 TA_OpenSessionEntryPoint
0000000000000400 g     F .text	000000000000000c utee_storage_start_enum
00000000000003d0 g     F .text	000000000000000c utee_storage_obj_rename
00000000000174c0 g       .bss	0000000000000000 __ftrace_buf_end
000000000000c458 g     O .bss	0000000000000004 ta_param_types
0000000000004d58 g     F .text	0000000000000040 mbedtls_mpi_div_int
0000000000006318 g     F .text	00000000000000a8 mbedtls_mpi_is_prime_ext
00000000000027a4 g     F .text	0000000000000050 TEE_BigIntIsProbablePrime
000000000000465c g     F .text	0000000000000034 mbedtls_mpi_mul_int
0000000000005370 g     F .text	000000000000068c mbedtls_mpi_exp_mod
00000000000036ac g     F .text	00000000000000c0 mbedtls_mpi_safe_cond_assign
00000000000001e4 g     F .text	000000000000000c utee_get_property
0000000000004060 g     F .text	00000000000000d8 mbedtls_mpi_lt_mpi_ct
00000000000018e0 g     F .text	0000000000000070 TEE_BigIntInit
0000000000000eac g     F .text	0000000000000008 TEE_MemMove
0000000000006ab8 g     F .text	000000000000001c mbedtls_platform_zeroize
0000000000001950 g     F .text	000000000000008c TEE_BigIntConvertFromOctetString
0000000000003eec g     F .text	000000000000009c mbedtls_mpi_cmp_abs
00000000000089e8 g     F .text	000000000000002c memchr
0000000000000a78 g     F .text	000000000000002c TEE_UnmaskCancellation
00000000000066dc g     F .text	00000000000003dc mbedtls_mpi_self_test
00000000000003c4 g     F .text	000000000000000c utee_storage_obj_del
000000000000043c g     F .text	000000000000000c utee_storage_obj_seek
0000000000004138 g     F .text	0000000000000040 mbedtls_mpi_cmp_int
00000000000002a4 g     F .text	000000000000000c utee_hash_update
00000000000022e8 g     F .text	0000000000000064 TEE_BigIntMod
0000000000004e4c g     F .text	00000000000000a0 mbedtls_mpi_mod_int
0000000000003a3c g     F .text	00000000000000a4 mbedtls_mpi_read_binary_le
0000000000000208 g     F .text	000000000000000c utee_close_ta_session
0000000000002170 g     F .text	0000000000000178 TEE_BigIntDiv
00000000000174c0 g       .bss	0000000000000000 __ftrace_buf_start
0000000000003598 g     F .text	00000000000000b4 mbedtls_mpi_copy
0000000000007258 g     F .text	0000000000000018 malloc_reset_stats
00000000000002c8 g     F .text	000000000000000c utee_cipher_update
000000000000735c g     F .text	0000000000000050 realloc
000000000000364c g     F .text	0000000000000060 mbedtls_mpi_swap
00000000000087d0 g     F .text	0000000000000068 mempool_alloc_pool
00000000000003a0 g     F .text	000000000000000c utee_asymm_verify
0000000000002080 g     F .text	00000000000000e8 TEE_BigIntMul
0000000000003d24 g     F .text	0000000000000100 mbedtls_mpi_shift_l
0000000000003f88 g     F .text	00000000000000d8 mbedtls_mpi_cmp_mpi
0000000000000ebc g     F .text	0000000000000008 TEE_MemFill
00000000000073dc g     F .text	000000000000011c malloc_add_pool
000000000000855c g     F .text	0000000000000010 trace_get_level
0000000000004178 g     F .text	000000000000012c mbedtls_mpi_add_abs
000000000000034c g     F .text	000000000000000c utee_cryp_random_number_generate
00000000000027fc g     F .text	0000000000000010 TEE_BigIntFMMSizeInU32
00000000000027f4 g     F .text	0000000000000004 TEE_BigIntInitFMM
0000000000000394 g     F .text	000000000000000c utee_asymm_operate
000000000000076c g     F .text	0000000000000200 __utee_entry
0000000000008a6c g       .text	0000000000000000 __text_end
0000000000002498 g     F .text	00000000000000d4 TEE_BigIntRelativePrime
0000000000004d98 g     F .text	00000000000000b4 mbedtls_mpi_mod_mpi
00000000000070ec g     F .text	00000000000000d4 bpool
0000000000000a4c g     F .text	000000000000002c TEE_GetCancellationFlag
00000000000059fc g     F .text	00000000000001a8 mbedtls_mpi_gcd
0000000000000f9c g     F .text	0000000000000044 TEE_SetTAPersistentTime
0000000000003ba8 g     F .text	00000000000000b8 mbedtls_mpi_write_binary_le
000000000000780c g     F .text	000000000000001c memset
0000000000000f28 g     F .text	0000000000000074 TEE_GetTAPersistentTime
00000000000087cc g     F .text	0000000000000004 dhex_dump
0000000000000aa4 g     F .text	000000000000002c TEE_MaskCancellation
0000000000000418 g     F .text	000000000000000c utee_storage_obj_read
0000000000000328 g     F .text	000000000000000c utee_cryp_obj_populate
0000000000008540 g     F .text	000000000000001c trace_set_level
00000000000002e0 g     F .text	000000000000000c utee_cryp_obj_get_info
00000000000003dc g     F .text	000000000000000c utee_storage_alloc_enum
00000000000003f4 g     F .text	000000000000000c utee_storage_reset_enum
0000000000000430 g     F .text	000000000000000c utee_storage_obj_trunc
0000000000001af4 g     F .text	0000000000000088 TEE_BigIntConvertToS32
0000000000001fc4 g     F .text	000000000000000c TEE_BigIntSub
0000000000000220 g     F .text	000000000000000c utee_get_cancellation_flag
0000000000000298 g     F .text	000000000000000c utee_hash_init
00000000000001ac g     F .text	0000000000000008 tahead_get_trace_level
0000000000002a5c g     F .text	0000000000000074 tee_map_zi
0000000000005330 g     F .text	0000000000000040 mbedtls_mpi_montred
0000000000001a70 g     F .text	0000000000000084 TEE_BigIntConvertFromS32
000000000000448c g     F .text	0000000000000040 mbedtls_mpi_add_int
00000000000002ec g     F .text	000000000000000c utee_cryp_obj_restrict_usage
00000000000074f8 g     F .text	0000000000000180 malloc_buffer_is_within_alloced
0000000000000334 g     F .text	000000000000000c utee_cryp_obj_copy
00000000000027f8 g     F .text	0000000000000004 TEE_BigIntInitFMMContext
0000000000000340 g     F .text	000000000000000c utee_cryp_derive_key
0000000000000388 g     F .text	000000000000000c utee_authenc_dec_final
0000000000002168 g     F .text	0000000000000008 TEE_BigIntSquare
000000000000010c g     F .text	0000000000000008 TA_CreateEntryPoint
0000000000000198 g     F .text	0000000000000014 __ta_entry
00000000000084cc g     F .text	0000000000000074 snprintk
00000000000051c0 g     F .text	000000000000003c mbedtls_mpi_montg_init
0000000000001f78 g     F .text	0000000000000040 TEE_BigIntGetBitCount
0000000000002364 g     F .text	000000000000000c TEE_BigIntMulMod
0000000000005ee0 g     F .text	0000000000000438 mbedtls_mpi_inv_mod
000000000000c460 g     O .bss	0000000000000040 ta_params
0000000000004874 g     F .text	00000000000004e4 mbedtls_mpi_div_mpi
0000000000003a20 g     F .text	000000000000001c mbedtls_mpi_size
0000000000006b18 g     F .text	00000000000001c0 bget
00000000000038e4 g     F .text	000000000000008c mbedtls_mpi_set_bit
000000000000106c g     F .text	0000000000000004 TEE_Free
00000000000063c0 g     F .text	0000000000000010 mbedtls_mpi_is_prime
0000000000001080 g     F .text	0000000000000008 TEE_CacheInvalidate
00000000000002bc g     F .text	000000000000000c utee_cipher_init
0000000000008a58 g     F .text	0000000000000014 _assert_break
000000000000234c g     F .text	000000000000000c TEE_BigIntAddMod
00000000000003e8 g     F .text	000000000000000c utee_storage_free_enum
0000000000000364 g     F .text	000000000000000c utee_authenc_update_aad
0000000000000eb4 g     F .text	0000000000000008 TEE_MemCompare
0000000000007844 g     F .text	0000000000000c34 __vsnprintf
0000000000000db8 g     F .text	00000000000000dc TEE_OpenTASession
00000000000001b4 g     F .text	000000000000000c utee_panic
0000000000002b5c g     F .text	0000000000000028 trace_ext_puts
0000000000002b84 g     F .text	0000000000000008 trace_ext_get_thread_id
0000000000003314 g     F .text	000000000000006c mbedtls_mpi_free
0000000000001070 g     F .text	0000000000000008 TEE_CacheClean
00000000000001fc g     F .text	000000000000000c utee_open_ta_session
000000000000376c g     F .text	00000000000000e4 mbedtls_mpi_safe_cond_swap
00000000000002b0 g     F .text	000000000000000c utee_hash_final
0000000000007828 g     F .text	000000000000001c strlen
000000000000256c g     F .text	0000000000000238 TEE_BigIntComputeExtendedGcd
00000000000003ac g     F .text	000000000000000c utee_storage_obj_open
0000000000000214 g     F .text	000000000000000c utee_invoke_ta_command
0000000000000250 g     F .text	000000000000000c utee_wait
0000000000000ec4 g     F .text	0000000000000028 TEE_GetSystemTime
0000000000000000 g     O .ta_head	0000000000000020 ta_head
0000000000006d64 g     F .text	00000000000002bc brel
00000000000042a4 g     F .text	00000000000000d4 mbedtls_mpi_sub_abs
000000000000025c g     F .text	000000000000000c utee_get_time
0000000000005ba4 g     F .text	00000000000000bc mbedtls_mpi_fill_random
0000000000000e94 g     F .text	000000000000000c TEE_SetInstanceData
0000000000000238 g     F .text	000000000000000c utee_unmask_cancellation
000000000000022c g     F .text	000000000000000c utee_check_access_rights
0000000000004eec g     F .text	000000000000023c mbedtls_mpi_write_string
0000000000000448 g     F .text	000000000000000c utee_cryp_obj_generate_key
0000000000000a24 g     F .text	0000000000000028 TEE_CloseTASession
00000000000073ac g     F .text	0000000000000018 free
00000000000071c0 g     F .text	0000000000000098 bstats
000000000000f4b0 g     O .bss	0000000000000008 mbedtls_mpi_mempool



Disassembly of section .text:

0000000000000020 <memcpy>:
memcpy():
/home/nbshenxm/optee-project/rpi3/optee_os/lib/libutils/isoc/newlib/memcpy.c:106
      20:	f1007c5f 	cmp	x2, #0x1f
      24:	54000629 	b.ls	e8 <memcpy+0xc8>  // b.plast
/home/nbshenxm/optee-project/rpi3/optee_os/lib/libutils/isoc/newlib/memcpy.c:106 (discriminator 1)
      28:	aa000025 	orr	x5, x1, x0
      2c:	f24008a5 	ands	x5, x5, #0x7
      30:	54000641 	b.ne	f8 <memcpy+0xd8>  // b.any
      34:	d1008048 	sub	x8, x2, #0x20
/home/nbshenxm/optee-project/rpi3/optee_os/lib/libutils/isoc/newlib/memcpy.c:108
      38:	aa0103e4 	mov	x4, x1
      3c:	927be908 	and	x8, x8, #0xffffffffffffffe0
/home/nbshenxm/optee-project/rpi3/optee_os/lib/libutils/isoc/newlib/memcpy.c:107
      40:	aa0003e3 	mov	x3, x0
      44:	91008108 	add	x8, x8, #0x20
      48:	8b080007 	add	x7, x0, x8
      4c:	d503201f 	nop
/home/nbshenxm/optee-project/rpi3/optee_os/lib/libutils/isoc/newlib/memcpy.c:112
      50:	f9400086 	ldr	x6, [x4]
      54:	f9000066 	str	x6, [x3]
/home/nbshenxm/optee-project/rpi3/optee_os/lib/libutils/isoc/newlib/memcpy.c:113
      58:	91008084 	add	x4, x4, #0x20
      5c:	91008063 	add	x3, x3, #0x20
      60:	f85e8086 	ldur	x6, [x4, #-24]
      64:	f81e8066 	stur	x6, [x3, #-24]
/home/nbshenxm/optee-project/rpi3/optee_os/lib/libutils/isoc/newlib/memcpy.c:114
      68:	f85f0086 	ldur	x6, [x4, #-16]
      6c:	f81f0066 	stur	x6, [x3, #-16]
/home/nbshenxm/optee-project/rpi3/optee_os/lib/libutils/isoc/newlib/memcpy.c:111
      70:	eb0300ff 	cmp	x7, x3
/home/nbshenxm/optee-project/rpi3/optee_os/lib/libutils/isoc/newlib/memcpy.c:115
      74:	f85f8086 	ldur	x6, [x4, #-8]
      78:	f81f8066 	stur	x6, [x3, #-8]
/home/nbshenxm/optee-project/rpi3/optee_os/lib/libutils/isoc/newlib/memcpy.c:111
      7c:	54fffea1 	b.ne	50 <memcpy+0x30>  // b.any
      80:	8b080021 	add	x1, x1, x8
/home/nbshenxm/optee-project/rpi3/optee_os/lib/libutils/isoc/newlib/memcpy.c:120
      84:	f27d045f 	tst	x2, #0x18
      88:	92401044 	and	x4, x2, #0x1f
      8c:	540003c0 	b.eq	104 <memcpy+0xe4>  // b.none
/home/nbshenxm/optee-project/rpi3/optee_os/lib/libutils/isoc/newlib/memcpy.c:121
      90:	f8656826 	ldr	x6, [x1, x5]
      94:	f8256866 	str	x6, [x3, x5]
/home/nbshenxm/optee-project/rpi3/optee_os/lib/libutils/isoc/newlib/memcpy.c:122
      98:	910020a5 	add	x5, x5, #0x8
/home/nbshenxm/optee-project/rpi3/optee_os/lib/libutils/isoc/newlib/memcpy.c:120
      9c:	cb050086 	sub	x6, x4, x5
      a0:	f1001cdf 	cmp	x6, #0x7
      a4:	54ffff68 	b.hi	90 <memcpy+0x70>  // b.pmore
      a8:	d1002084 	sub	x4, x4, #0x8
      ac:	92400842 	and	x2, x2, #0x7
      b0:	927df084 	and	x4, x4, #0xfffffffffffffff8
/home/nbshenxm/optee-project/rpi3/optee_os/lib/libutils/isoc/newlib/memcpy.c:130
      b4:	d1000445 	sub	x5, x2, #0x1
      b8:	91002084 	add	x4, x4, #0x8
      bc:	8b040063 	add	x3, x3, x4
      c0:	8b040021 	add	x1, x1, x4
      c4:	b4000102 	cbz	x2, e4 <memcpy+0xc4>
/home/nbshenxm/optee-project/rpi3/optee_os/lib/libutils/isoc/newlib/memcpy.c:99
      c8:	d2800002 	mov	x2, #0x0                   	// #0
      cc:	d503201f 	nop
/home/nbshenxm/optee-project/rpi3/optee_os/lib/libutils/isoc/newlib/memcpy.c:131
      d0:	38626824 	ldrb	w4, [x1, x2]
/home/nbshenxm/optee-project/rpi3/optee_os/lib/libutils/isoc/newlib/memcpy.c:130
      d4:	eb0200bf 	cmp	x5, x2
/home/nbshenxm/optee-project/rpi3/optee_os/lib/libutils/isoc/newlib/memcpy.c:131
      d8:	38226864 	strb	w4, [x3, x2]
      dc:	91000442 	add	x2, x2, #0x1
/home/nbshenxm/optee-project/rpi3/optee_os/lib/libutils/isoc/newlib/memcpy.c:130
      e0:	54ffff81 	b.ne	d0 <memcpy+0xb0>  // b.any
/home/nbshenxm/optee-project/rpi3/optee_os/lib/libutils/isoc/newlib/memcpy.c:135
      e4:	d65f03c0 	ret
/home/nbshenxm/optee-project/rpi3/optee_os/lib/libutils/isoc/newlib/memcpy.c:99
      e8:	aa0003e3 	mov	x3, x0
/home/nbshenxm/optee-project/rpi3/optee_os/lib/libutils/isoc/newlib/memcpy.c:130
      ec:	d1000445 	sub	x5, x2, #0x1
      f0:	b5fffec2 	cbnz	x2, c8 <memcpy+0xa8>
/home/nbshenxm/optee-project/rpi3/optee_os/lib/libutils/isoc/newlib/memcpy.c:135
      f4:	d65f03c0 	ret
/home/nbshenxm/optee-project/rpi3/optee_os/lib/libutils/isoc/newlib/memcpy.c:130
      f8:	d1000445 	sub	x5, x2, #0x1
/home/nbshenxm/optee-project/rpi3/optee_os/lib/libutils/isoc/newlib/memcpy.c:99
      fc:	aa0003e3 	mov	x3, x0
     100:	17fffff2 	b	c8 <memcpy+0xa8>
/home/nbshenxm/optee-project/rpi3/optee_os/lib/libutils/isoc/newlib/memcpy.c:120
     104:	aa0403e2 	mov	x2, x4
     108:	17fffff9 	b	ec <memcpy+0xcc>

000000000000010c <TA_CreateEntryPoint>:
TA_CreateEntryPoint():
/home/nbshenxm/optee-project/rpi3/optee_examples/hello_world/ta/hello_world_ta.c:42
     10c:	52800000 	mov	w0, #0x0                   	// #0
     110:	d65f03c0 	ret

0000000000000114 <TA_DestroyEntryPoint>:
TA_DestroyEntryPoint():
/home/nbshenxm/optee-project/rpi3/optee_examples/hello_world/ta/hello_world_ta.c:51
     114:	d65f03c0 	ret

0000000000000118 <TA_OpenSessionEntryPoint>:
TA_OpenSessionEntryPoint():
/home/nbshenxm/optee-project/rpi3/optee_examples/hello_world/ta/hello_world_ta.c:71
     118:	7100001f 	cmp	w0, #0x0
/home/nbshenxm/optee-project/rpi3/optee_examples/hello_world/ta/hello_world_ta.c:85
     11c:	129fff21 	mov	w1, #0xffff0006            	// #-65530
     120:	1a810000 	csel	w0, w0, w1, eq  // eq = none
     124:	d65f03c0 	ret

0000000000000128 <TA_CloseSessionEntryPoint>:
TA_CloseSessionEntryPoint():
/home/nbshenxm/optee-project/rpi3/optee_examples/hello_world/ta/hello_world_ta.c:95
     128:	d65f03c0 	ret

000000000000012c <TA_InvokeCommandEntryPoint>:
TA_InvokeCommandEntryPoint():
/home/nbshenxm/optee-project/rpi3/optee_examples/hello_world/ta/hello_world_ta.c:164
     12c:	2a0103e0 	mov	w0, w1
/home/nbshenxm/optee-project/rpi3/optee_examples/hello_world/ta/hello_world_ta.c:167
     130:	7100043f 	cmp	w1, #0x1
     134:	54000180 	b.eq	164 <TA_InvokeCommandEntryPoint+0x38>  // b.none
     138:	340000a1 	cbz	w1, 14c <TA_InvokeCommandEntryPoint+0x20>
     13c:	7100083f 	cmp	w1, #0x2
     140:	54000200 	b.eq	180 <TA_InvokeCommandEntryPoint+0x54>  // b.none
inc_value():
/home/nbshenxm/optee-project/rpi3/optee_examples/hello_world/ta/hello_world_ta.c:108
     144:	129fff20 	mov	w0, #0xffff0006            	// #-65530
     148:	14000006 	b	160 <TA_InvokeCommandEntryPoint+0x34>
/home/nbshenxm/optee-project/rpi3/optee_examples/hello_world/ta/hello_world_ta.c:107
     14c:	71000c5f 	cmp	w2, #0x3
     150:	54ffffa1 	b.ne	144 <TA_InvokeCommandEntryPoint+0x18>  // b.any
/home/nbshenxm/optee-project/rpi3/optee_examples/hello_world/ta/hello_world_ta.c:111
     154:	b9400061 	ldr	w1, [x3]
     158:	11000421 	add	w1, w1, #0x1
     15c:	b9000061 	str	w1, [x3]
TA_InvokeCommandEntryPoint():
/home/nbshenxm/optee-project/rpi3/optee_examples/hello_world/ta/hello_world_ta.c:177
     160:	d65f03c0 	ret
dec_value():
/home/nbshenxm/optee-project/rpi3/optee_examples/hello_world/ta/hello_world_ta.c:127
     164:	71000c5f 	cmp	w2, #0x3
     168:	54fffee1 	b.ne	144 <TA_InvokeCommandEntryPoint+0x18>  // b.any
/home/nbshenxm/optee-project/rpi3/optee_examples/hello_world/ta/hello_world_ta.c:131
     16c:	b9400060 	ldr	w0, [x3]
     170:	51000400 	sub	w0, w0, #0x1
add_value():
/home/nbshenxm/optee-project/rpi3/optee_examples/hello_world/ta/hello_world_ta.c:151
     174:	b9000060 	str	w0, [x3]
/home/nbshenxm/optee-project/rpi3/optee_examples/hello_world/ta/hello_world_ta.c:154
     178:	52800000 	mov	w0, #0x0                   	// #0
     17c:	17fffff9 	b	160 <TA_InvokeCommandEntryPoint+0x34>
/home/nbshenxm/optee-project/rpi3/optee_examples/hello_world/ta/hello_world_ta.c:146
     180:	7100cc5f 	cmp	w2, #0x33
     184:	54fffe01 	b.ne	144 <TA_InvokeCommandEntryPoint+0x18>  // b.any
/home/nbshenxm/optee-project/rpi3/optee_examples/hello_world/ta/hello_world_ta.c:151
     188:	b9400060 	ldr	w0, [x3]
     18c:	b9401061 	ldr	w1, [x3, #16]
     190:	0b010000 	add	w0, w0, w1
     194:	17fffff8 	b	174 <TA_InvokeCommandEntryPoint+0x48>

0000000000000198 <__ta_entry>:
__ta_entry():
/home/nbshenxm/optee-project/rpi3/optee_os/out/arm/export-ta_arm64/src/user_ta_header.c:47
     198:	a9bf7bfd 	stp	x29, x30, [sp, #-16]!
     19c:	910003fd 	mov	x29, sp
/home/nbshenxm/optee-project/rpi3/optee_os/out/arm/export-ta_arm64/src/user_ta_header.c:48
     1a0:	94000173 	bl	76c <__utee_entry>
/home/nbshenxm/optee-project/rpi3/optee_os/out/arm/export-ta_arm64/src/user_ta_header.c:59
     1a4:	2a0003e0 	mov	w0, w0
     1a8:	94000006 	bl	1c0 <utee_return>

00000000000001ac <tahead_get_trace_level>:
tahead_get_trace_level():
/home/nbshenxm/optee-project/rpi3/optee_os/out/arm/export-ta_arm64/src/user_ta_header.c:149
     1ac:	52800020 	mov	w0, #0x1                   	// #1
     1b0:	d65f03c0 	ret

00000000000001b4 <utee_panic>:
utee_panic():
/home/nbshenxm/optee-project/rpi3/optee_os/lib/libutee/arch/arm/utee_syscalls_a64.S:41
     1b4:	a9bf7bfd 	stp	x29, x30, [sp, #-16]!
/home/nbshenxm/optee-project/rpi3/optee_os/lib/libutee/arch/arm/utee_syscalls_a64.S:42
     1b8:	910003e1 	mov	x1, sp
/home/nbshenxm/optee-project/rpi3/optee_os/lib/libutee/arch/arm/utee_syscalls_a64.S:43
     1bc:	94000007 	bl	1d8 <__utee_panic>

00000000000001c0 <utee_return>:
utee_return():
/home/nbshenxm/optee-project/rpi3/optee_os/lib/libutee/arch/arm/utee_syscalls_asm.S:8
     1c0:	d2800008 	mov	x8, #0x0                   	// #0
     1c4:	d4000001 	svc	#0x0
     1c8:	d65f03c0 	ret

00000000000001cc <utee_log>:
utee_log():
/home/nbshenxm/optee-project/rpi3/optee_os/lib/libutee/arch/arm/utee_syscalls_asm.S:10
     1cc:	d2800028 	mov	x8, #0x1                   	// #1
     1d0:	d4000001 	svc	#0x0
     1d4:	d65f03c0 	ret

00000000000001d8 <__utee_panic>:
__utee_panic():
/home/nbshenxm/optee-project/rpi3/optee_os/lib/libutee/arch/arm/utee_syscalls_asm.S:12
     1d8:	d2800048 	mov	x8, #0x2                   	// #2
     1dc:	d4000001 	svc	#0x0
     1e0:	d65f03c0 	ret

00000000000001e4 <utee_get_property>:
utee_get_property():
/home/nbshenxm/optee-project/rpi3/optee_os/lib/libutee/arch/arm/utee_syscalls_asm.S:14
     1e4:	d2800068 	mov	x8, #0x3                   	// #3
     1e8:	d4000001 	svc	#0x0
     1ec:	d65f03c0 	ret

00000000000001f0 <utee_get_property_name_to_index>:
utee_get_property_name_to_index():
/home/nbshenxm/optee-project/rpi3/optee_os/lib/libutee/arch/arm/utee_syscalls_asm.S:16
     1f0:	d2800088 	mov	x8, #0x4                   	// #4
     1f4:	d4000001 	svc	#0x0
     1f8:	d65f03c0 	ret

00000000000001fc <utee_open_ta_session>:
utee_open_ta_session():
/home/nbshenxm/optee-project/rpi3/optee_os/lib/libutee/arch/arm/utee_syscalls_asm.S:19
     1fc:	d28000a8 	mov	x8, #0x5                   	// #5
     200:	d4000001 	svc	#0x0
     204:	d65f03c0 	ret

0000000000000208 <utee_close_ta_session>:
utee_close_ta_session():
/home/nbshenxm/optee-project/rpi3/optee_os/lib/libutee/arch/arm/utee_syscalls_asm.S:21
     208:	d28000c8 	mov	x8, #0x6                   	// #6
     20c:	d4000001 	svc	#0x0
     210:	d65f03c0 	ret

0000000000000214 <utee_invoke_ta_command>:
utee_invoke_ta_command():
/home/nbshenxm/optee-project/rpi3/optee_os/lib/libutee/arch/arm/utee_syscalls_asm.S:23
     214:	d28000e8 	mov	x8, #0x7                   	// #7
     218:	d4000001 	svc	#0x0
     21c:	d65f03c0 	ret

0000000000000220 <utee_get_cancellation_flag>:
utee_get_cancellation_flag():
/home/nbshenxm/optee-project/rpi3/optee_os/lib/libutee/arch/arm/utee_syscalls_asm.S:25
     220:	d2800128 	mov	x8, #0x9                   	// #9
     224:	d4000001 	svc	#0x0
     228:	d65f03c0 	ret

000000000000022c <utee_check_access_rights>:
utee_check_access_rights():
/home/nbshenxm/optee-project/rpi3/optee_os/lib/libutee/arch/arm/utee_syscalls_asm.S:28
     22c:	d2800108 	mov	x8, #0x8                   	// #8
     230:	d4000001 	svc	#0x0
     234:	d65f03c0 	ret

0000000000000238 <utee_unmask_cancellation>:
utee_unmask_cancellation():
/home/nbshenxm/optee-project/rpi3/optee_os/lib/libutee/arch/arm/utee_syscalls_asm.S:30
     238:	d2800148 	mov	x8, #0xa                   	// #10
     23c:	d4000001 	svc	#0x0
     240:	d65f03c0 	ret

0000000000000244 <utee_mask_cancellation>:
utee_mask_cancellation():
/home/nbshenxm/optee-project/rpi3/optee_os/lib/libutee/arch/arm/utee_syscalls_asm.S:32
     244:	d2800168 	mov	x8, #0xb                   	// #11
     248:	d4000001 	svc	#0x0
     24c:	d65f03c0 	ret

0000000000000250 <utee_wait>:
utee_wait():
/home/nbshenxm/optee-project/rpi3/optee_os/lib/libutee/arch/arm/utee_syscalls_asm.S:34
     250:	d2800188 	mov	x8, #0xc                   	// #12
     254:	d4000001 	svc	#0x0
     258:	d65f03c0 	ret

000000000000025c <utee_get_time>:
utee_get_time():
/home/nbshenxm/optee-project/rpi3/optee_os/lib/libutee/arch/arm/utee_syscalls_asm.S:36
     25c:	d28001a8 	mov	x8, #0xd                   	// #13
     260:	d4000001 	svc	#0x0
     264:	d65f03c0 	ret

0000000000000268 <utee_set_ta_time>:
utee_set_ta_time():
/home/nbshenxm/optee-project/rpi3/optee_os/lib/libutee/arch/arm/utee_syscalls_asm.S:38
     268:	d28001c8 	mov	x8, #0xe                   	// #14
     26c:	d4000001 	svc	#0x0
     270:	d65f03c0 	ret

0000000000000274 <utee_cryp_state_alloc>:
utee_cryp_state_alloc():
/home/nbshenxm/optee-project/rpi3/optee_os/lib/libutee/arch/arm/utee_syscalls_asm.S:40
     274:	d28001e8 	mov	x8, #0xf                   	// #15
     278:	d4000001 	svc	#0x0
     27c:	d65f03c0 	ret

0000000000000280 <utee_cryp_state_copy>:
utee_cryp_state_copy():
/home/nbshenxm/optee-project/rpi3/optee_os/lib/libutee/arch/arm/utee_syscalls_asm.S:42
     280:	d2800208 	mov	x8, #0x10                  	// #16
     284:	d4000001 	svc	#0x0
     288:	d65f03c0 	ret

000000000000028c <utee_cryp_state_free>:
utee_cryp_state_free():
/home/nbshenxm/optee-project/rpi3/optee_os/lib/libutee/arch/arm/utee_syscalls_asm.S:44
     28c:	d2800228 	mov	x8, #0x11                  	// #17
     290:	d4000001 	svc	#0x0
     294:	d65f03c0 	ret

0000000000000298 <utee_hash_init>:
utee_hash_init():
/home/nbshenxm/optee-project/rpi3/optee_os/lib/libutee/arch/arm/utee_syscalls_asm.S:46
     298:	d2800248 	mov	x8, #0x12                  	// #18
     29c:	d4000001 	svc	#0x0
     2a0:	d65f03c0 	ret

00000000000002a4 <utee_hash_update>:
utee_hash_update():
/home/nbshenxm/optee-project/rpi3/optee_os/lib/libutee/arch/arm/utee_syscalls_asm.S:48
     2a4:	d2800268 	mov	x8, #0x13                  	// #19
     2a8:	d4000001 	svc	#0x0
     2ac:	d65f03c0 	ret

00000000000002b0 <utee_hash_final>:
utee_hash_final():
/home/nbshenxm/optee-project/rpi3/optee_os/lib/libutee/arch/arm/utee_syscalls_asm.S:50
     2b0:	d2800288 	mov	x8, #0x14                  	// #20
     2b4:	d4000001 	svc	#0x0
     2b8:	d65f03c0 	ret

00000000000002bc <utee_cipher_init>:
utee_cipher_init():
/home/nbshenxm/optee-project/rpi3/optee_os/lib/libutee/arch/arm/utee_syscalls_asm.S:52
     2bc:	d28002a8 	mov	x8, #0x15                  	// #21
     2c0:	d4000001 	svc	#0x0
     2c4:	d65f03c0 	ret

00000000000002c8 <utee_cipher_update>:
utee_cipher_update():
/home/nbshenxm/optee-project/rpi3/optee_os/lib/libutee/arch/arm/utee_syscalls_asm.S:54
     2c8:	d28002c8 	mov	x8, #0x16                  	// #22
     2cc:	d4000001 	svc	#0x0
     2d0:	d65f03c0 	ret

00000000000002d4 <utee_cipher_final>:
utee_cipher_final():
/home/nbshenxm/optee-project/rpi3/optee_os/lib/libutee/arch/arm/utee_syscalls_asm.S:56
     2d4:	d28002e8 	mov	x8, #0x17                  	// #23
     2d8:	d4000001 	svc	#0x0
     2dc:	d65f03c0 	ret

00000000000002e0 <utee_cryp_obj_get_info>:
utee_cryp_obj_get_info():
/home/nbshenxm/optee-project/rpi3/optee_os/lib/libutee/arch/arm/utee_syscalls_asm.S:58
     2e0:	d2800308 	mov	x8, #0x18                  	// #24
     2e4:	d4000001 	svc	#0x0
     2e8:	d65f03c0 	ret

00000000000002ec <utee_cryp_obj_restrict_usage>:
utee_cryp_obj_restrict_usage():
/home/nbshenxm/optee-project/rpi3/optee_os/lib/libutee/arch/arm/utee_syscalls_asm.S:60
     2ec:	d2800328 	mov	x8, #0x19                  	// #25
     2f0:	d4000001 	svc	#0x0
     2f4:	d65f03c0 	ret

00000000000002f8 <utee_cryp_obj_get_attr>:
utee_cryp_obj_get_attr():
/home/nbshenxm/optee-project/rpi3/optee_os/lib/libutee/arch/arm/utee_syscalls_asm.S:63
     2f8:	d2800348 	mov	x8, #0x1a                  	// #26
     2fc:	d4000001 	svc	#0x0
     300:	d65f03c0 	ret

0000000000000304 <utee_cryp_obj_alloc>:
utee_cryp_obj_alloc():
/home/nbshenxm/optee-project/rpi3/optee_os/lib/libutee/arch/arm/utee_syscalls_asm.S:65
     304:	d2800368 	mov	x8, #0x1b                  	// #27
     308:	d4000001 	svc	#0x0
     30c:	d65f03c0 	ret

0000000000000310 <utee_cryp_obj_close>:
utee_cryp_obj_close():
/home/nbshenxm/optee-project/rpi3/optee_os/lib/libutee/arch/arm/utee_syscalls_asm.S:67
     310:	d2800388 	mov	x8, #0x1c                  	// #28
     314:	d4000001 	svc	#0x0
     318:	d65f03c0 	ret

000000000000031c <utee_cryp_obj_reset>:
utee_cryp_obj_reset():
/home/nbshenxm/optee-project/rpi3/optee_os/lib/libutee/arch/arm/utee_syscalls_asm.S:69
     31c:	d28003a8 	mov	x8, #0x1d                  	// #29
     320:	d4000001 	svc	#0x0
     324:	d65f03c0 	ret

0000000000000328 <utee_cryp_obj_populate>:
utee_cryp_obj_populate():
/home/nbshenxm/optee-project/rpi3/optee_os/lib/libutee/arch/arm/utee_syscalls_asm.S:71
     328:	d28003c8 	mov	x8, #0x1e                  	// #30
     32c:	d4000001 	svc	#0x0
     330:	d65f03c0 	ret

0000000000000334 <utee_cryp_obj_copy>:
utee_cryp_obj_copy():
/home/nbshenxm/optee-project/rpi3/optee_os/lib/libutee/arch/arm/utee_syscalls_asm.S:73
     334:	d28003e8 	mov	x8, #0x1f                  	// #31
     338:	d4000001 	svc	#0x0
     33c:	d65f03c0 	ret

0000000000000340 <utee_cryp_derive_key>:
utee_cryp_derive_key():
/home/nbshenxm/optee-project/rpi3/optee_os/lib/libutee/arch/arm/utee_syscalls_asm.S:75
     340:	d2800408 	mov	x8, #0x20                  	// #32
     344:	d4000001 	svc	#0x0
     348:	d65f03c0 	ret

000000000000034c <utee_cryp_random_number_generate>:
utee_cryp_random_number_generate():
/home/nbshenxm/optee-project/rpi3/optee_os/lib/libutee/arch/arm/utee_syscalls_asm.S:77
     34c:	d2800428 	mov	x8, #0x21                  	// #33
     350:	d4000001 	svc	#0x0
     354:	d65f03c0 	ret

0000000000000358 <utee_authenc_init>:
utee_authenc_init():
/home/nbshenxm/optee-project/rpi3/optee_os/lib/libutee/arch/arm/utee_syscalls_asm.S:80
     358:	d2800448 	mov	x8, #0x22                  	// #34
     35c:	d4000001 	svc	#0x0
     360:	d65f03c0 	ret

0000000000000364 <utee_authenc_update_aad>:
utee_authenc_update_aad():
/home/nbshenxm/optee-project/rpi3/optee_os/lib/libutee/arch/arm/utee_syscalls_asm.S:82
     364:	d2800468 	mov	x8, #0x23                  	// #35
     368:	d4000001 	svc	#0x0
     36c:	d65f03c0 	ret

0000000000000370 <utee_authenc_update_payload>:
utee_authenc_update_payload():
/home/nbshenxm/optee-project/rpi3/optee_os/lib/libutee/arch/arm/utee_syscalls_asm.S:84
     370:	d2800488 	mov	x8, #0x24                  	// #36
     374:	d4000001 	svc	#0x0
     378:	d65f03c0 	ret

000000000000037c <utee_authenc_enc_final>:
utee_authenc_enc_final():
/home/nbshenxm/optee-project/rpi3/optee_os/lib/libutee/arch/arm/utee_syscalls_asm.S:87
     37c:	d28004a8 	mov	x8, #0x25                  	// #37
     380:	d4000001 	svc	#0x0
     384:	d65f03c0 	ret

0000000000000388 <utee_authenc_dec_final>:
utee_authenc_dec_final():
/home/nbshenxm/optee-project/rpi3/optee_os/lib/libutee/arch/arm/utee_syscalls_asm.S:89
     388:	d28004c8 	mov	x8, #0x26                  	// #38
     38c:	d4000001 	svc	#0x0
     390:	d65f03c0 	ret

0000000000000394 <utee_asymm_operate>:
utee_asymm_operate():
/home/nbshenxm/optee-project/rpi3/optee_os/lib/libutee/arch/arm/utee_syscalls_asm.S:91
     394:	d28004e8 	mov	x8, #0x27                  	// #39
     398:	d4000001 	svc	#0x0
     39c:	d65f03c0 	ret

00000000000003a0 <utee_asymm_verify>:
utee_asymm_verify():
/home/nbshenxm/optee-project/rpi3/optee_os/lib/libutee/arch/arm/utee_syscalls_asm.S:93
     3a0:	d2800508 	mov	x8, #0x28                  	// #40
     3a4:	d4000001 	svc	#0x0
     3a8:	d65f03c0 	ret

00000000000003ac <utee_storage_obj_open>:
utee_storage_obj_open():
/home/nbshenxm/optee-project/rpi3/optee_os/lib/libutee/arch/arm/utee_syscalls_asm.S:95
     3ac:	d2800528 	mov	x8, #0x29                  	// #41
     3b0:	d4000001 	svc	#0x0
     3b4:	d65f03c0 	ret

00000000000003b8 <utee_storage_obj_create>:
utee_storage_obj_create():
/home/nbshenxm/optee-project/rpi3/optee_os/lib/libutee/arch/arm/utee_syscalls_asm.S:97
     3b8:	d2800548 	mov	x8, #0x2a                  	// #42
     3bc:	d4000001 	svc	#0x0
     3c0:	d65f03c0 	ret

00000000000003c4 <utee_storage_obj_del>:
utee_storage_obj_del():
/home/nbshenxm/optee-project/rpi3/optee_os/lib/libutee/arch/arm/utee_syscalls_asm.S:99
     3c4:	d2800568 	mov	x8, #0x2b                  	// #43
     3c8:	d4000001 	svc	#0x0
     3cc:	d65f03c0 	ret

00000000000003d0 <utee_storage_obj_rename>:
utee_storage_obj_rename():
/home/nbshenxm/optee-project/rpi3/optee_os/lib/libutee/arch/arm/utee_syscalls_asm.S:101
     3d0:	d2800588 	mov	x8, #0x2c                  	// #44
     3d4:	d4000001 	svc	#0x0
     3d8:	d65f03c0 	ret

00000000000003dc <utee_storage_alloc_enum>:
utee_storage_alloc_enum():
/home/nbshenxm/optee-project/rpi3/optee_os/lib/libutee/arch/arm/utee_syscalls_asm.S:103
     3dc:	d28005a8 	mov	x8, #0x2d                  	// #45
     3e0:	d4000001 	svc	#0x0
     3e4:	d65f03c0 	ret

00000000000003e8 <utee_storage_free_enum>:
utee_storage_free_enum():
/home/nbshenxm/optee-project/rpi3/optee_os/lib/libutee/arch/arm/utee_syscalls_asm.S:105
     3e8:	d28005c8 	mov	x8, #0x2e                  	// #46
     3ec:	d4000001 	svc	#0x0
     3f0:	d65f03c0 	ret

00000000000003f4 <utee_storage_reset_enum>:
utee_storage_reset_enum():
/home/nbshenxm/optee-project/rpi3/optee_os/lib/libutee/arch/arm/utee_syscalls_asm.S:107
     3f4:	d28005e8 	mov	x8, #0x2f                  	// #47
     3f8:	d4000001 	svc	#0x0
     3fc:	d65f03c0 	ret

0000000000000400 <utee_storage_start_enum>:
utee_storage_start_enum():
/home/nbshenxm/optee-project/rpi3/optee_os/lib/libutee/arch/arm/utee_syscalls_asm.S:109
     400:	d2800608 	mov	x8, #0x30                  	// #48
     404:	d4000001 	svc	#0x0
     408:	d65f03c0 	ret

000000000000040c <utee_storage_next_enum>:
utee_storage_next_enum():
/home/nbshenxm/optee-project/rpi3/optee_os/lib/libutee/arch/arm/utee_syscalls_asm.S:111
     40c:	d2800628 	mov	x8, #0x31                  	// #49
     410:	d4000001 	svc	#0x0
     414:	d65f03c0 	ret

0000000000000418 <utee_storage_obj_read>:
utee_storage_obj_read():
/home/nbshenxm/optee-project/rpi3/optee_os/lib/libutee/arch/arm/utee_syscalls_asm.S:113
     418:	d2800648 	mov	x8, #0x32                  	// #50
     41c:	d4000001 	svc	#0x0
     420:	d65f03c0 	ret

0000000000000424 <utee_storage_obj_write>:
utee_storage_obj_write():
/home/nbshenxm/optee-project/rpi3/optee_os/lib/libutee/arch/arm/utee_syscalls_asm.S:115
     424:	d2800668 	mov	x8, #0x33                  	// #51
     428:	d4000001 	svc	#0x0
     42c:	d65f03c0 	ret

0000000000000430 <utee_storage_obj_trunc>:
utee_storage_obj_trunc():
/home/nbshenxm/optee-project/rpi3/optee_os/lib/libutee/arch/arm/utee_syscalls_asm.S:117
     430:	d2800688 	mov	x8, #0x34                  	// #52
     434:	d4000001 	svc	#0x0
     438:	d65f03c0 	ret

000000000000043c <utee_storage_obj_seek>:
utee_storage_obj_seek():
/home/nbshenxm/optee-project/rpi3/optee_os/lib/libutee/arch/arm/utee_syscalls_asm.S:119
     43c:	d28006a8 	mov	x8, #0x35                  	// #53
     440:	d4000001 	svc	#0x0
     444:	d65f03c0 	ret

0000000000000448 <utee_cryp_obj_generate_key>:
utee_cryp_obj_generate_key():
/home/nbshenxm/optee-project/rpi3/optee_os/lib/libutee/arch/arm/utee_syscalls_asm.S:121
     448:	d28006c8 	mov	x8, #0x36                  	// #54
     44c:	d4000001 	svc	#0x0
     450:	d65f03c0 	ret

0000000000000454 <utee_cache_operation>:
utee_cache_operation():
/home/nbshenxm/optee-project/rpi3/optee_os/lib/libutee/arch/arm/utee_syscalls_asm.S:124
     454:	d28008c8 	mov	x8, #0x46                  	// #70
     458:	d4000001 	svc	#0x0
     45c:	d65f03c0 	ret

0000000000000460 <ta_header_get_session>:
ta_header_get_session():
/home/nbshenxm/optee-project/rpi3/optee_os/lib/libutee/arch/arm/user_ta_entry.c:102
     460:	2a0003e1 	mov	w1, w0
/home/nbshenxm/optee-project/rpi3/optee_os/lib/libutee/arch/arm/user_ta_entry.c:105
     464:	90000060 	adrp	x0, c000 <_DYNAMIC>
     468:	f941d400 	ldr	x0, [x0, #936]
/home/nbshenxm/optee-project/rpi3/optee_os/lib/libutee/arch/arm/user_ta_entry.c:105 (discriminator 1)
     46c:	b5000040 	cbnz	x0, 474 <ta_header_get_session+0x14>
/home/nbshenxm/optee-project/rpi3/optee_os/lib/libutee/arch/arm/user_ta_entry.c:110
     470:	d65f03c0 	ret
/home/nbshenxm/optee-project/rpi3/optee_os/lib/libutee/arch/arm/user_ta_entry.c:106
     474:	b9400002 	ldr	w2, [x0]
     478:	6b01005f 	cmp	w2, w1
     47c:	54ffffa0 	b.eq	470 <ta_header_get_session+0x10>  // b.none
/home/nbshenxm/optee-project/rpi3/optee_os/lib/libutee/arch/arm/user_ta_entry.c:105 (discriminator 2)
     480:	f9400800 	ldr	x0, [x0, #16]
     484:	17fffffa 	b	46c <ta_header_get_session+0xc>

0000000000000488 <to_utee_params>:
to_utee_params():
/home/nbshenxm/optee-project/rpi3/optee_os/lib/libutee/arch/arm/user_ta_entry.c:166
     488:	d0000045 	adrp	x5, a000 <__text_end+0x1594>
     48c:	911610a5 	add	x5, x5, #0x584
/home/nbshenxm/optee-project/rpi3/optee_os/lib/libutee/arch/arm/user_ta_entry.c:164
     490:	2a0103e3 	mov	w3, w1
     494:	52800004 	mov	w4, #0x0                   	// #0
     498:	f8008403 	str	x3, [x0], #8
/home/nbshenxm/optee-project/rpi3/optee_os/lib/libutee/arch/arm/user_ta_entry.c:166
     49c:	1ac42423 	lsr	w3, w1, w4
     4a0:	12000c63 	and	w3, w3, #0xf
     4a4:	51000463 	sub	w3, w3, #0x1
     4a8:	7100187f 	cmp	w3, #0x6
     4ac:	54000268 	b.hi	4f8 <to_utee_params+0x70>  // b.pmore
     4b0:	386348a3 	ldrb	w3, [x5, w3, uxtw]
     4b4:	10000066 	adr	x6, 4c0 <to_utee_params+0x38>
     4b8:	8b2388c3 	add	x3, x6, w3, sxtb #2
     4bc:	d61f0060 	br	x3
/home/nbshenxm/optee-project/rpi3/optee_os/lib/libutee/arch/arm/user_ta_entry.c:170
     4c0:	b9400043 	ldr	w3, [x2]
     4c4:	f9000003 	str	x3, [x0]
/home/nbshenxm/optee-project/rpi3/optee_os/lib/libutee/arch/arm/user_ta_entry.c:171
     4c8:	b9400443 	ldr	w3, [x2, #4]
/home/nbshenxm/optee-project/rpi3/optee_os/lib/libutee/arch/arm/user_ta_entry.c:177
     4cc:	f9000403 	str	x3, [x0, #8]
/home/nbshenxm/optee-project/rpi3/optee_os/lib/libutee/arch/arm/user_ta_entry.c:178
     4d0:	11001084 	add	w4, w4, #0x4
     4d4:	91004042 	add	x2, x2, #0x10
     4d8:	91004000 	add	x0, x0, #0x10
/home/nbshenxm/optee-project/rpi3/optee_os/lib/libutee/arch/arm/user_ta_entry.c:165 (discriminator 2)
     4dc:	7100409f 	cmp	w4, #0x10
     4e0:	54fffde1 	b.ne	49c <to_utee_params+0x14>  // b.any
/home/nbshenxm/optee-project/rpi3/optee_os/lib/libutee/arch/arm/user_ta_entry.c:185
     4e4:	d65f03c0 	ret
/home/nbshenxm/optee-project/rpi3/optee_os/lib/libutee/arch/arm/user_ta_entry.c:176
     4e8:	f9400043 	ldr	x3, [x2]
     4ec:	f9000003 	str	x3, [x0]
/home/nbshenxm/optee-project/rpi3/optee_os/lib/libutee/arch/arm/user_ta_entry.c:177
     4f0:	b9400843 	ldr	w3, [x2, #8]
     4f4:	17fffff6 	b	4cc <to_utee_params+0x44>
/home/nbshenxm/optee-project/rpi3/optee_os/lib/libutee/arch/arm/user_ta_entry.c:181
     4f8:	a9007c1f 	stp	xzr, xzr, [x0]
/home/nbshenxm/optee-project/rpi3/optee_os/lib/libutee/arch/arm/user_ta_entry.c:182
     4fc:	17fffff5 	b	4d0 <to_utee_params+0x48>

0000000000000500 <from_utee_params>:
from_utee_params():
/home/nbshenxm/optee-project/rpi3/optee_os/lib/libutee/arch/arm/user_ta_entry.c:192
     500:	f8408446 	ldr	x6, [x2], #8
/home/nbshenxm/optee-project/rpi3/optee_os/lib/libutee/arch/arm/user_ta_entry.c:198
     504:	d0000045 	adrp	x5, a000 <__text_end+0x1594>
     508:	911630a5 	add	x5, x5, #0x58c
/home/nbshenxm/optee-project/rpi3/optee_os/lib/libutee/arch/arm/user_ta_entry.c:192
     50c:	52800004 	mov	w4, #0x0                   	// #0
     510:	2a0603e9 	mov	w9, w6
/home/nbshenxm/optee-project/rpi3/optee_os/lib/libutee/arch/arm/user_ta_entry.c:198
     514:	1ac42523 	lsr	w3, w9, w4
     518:	12000c63 	and	w3, w3, #0xf
     51c:	51000463 	sub	w3, w3, #0x1
     520:	7100187f 	cmp	w3, #0x6
/home/nbshenxm/optee-project/rpi3/optee_os/lib/libutee/arch/arm/user_ta_entry.c:196
     524:	a9401c48 	ldp	x8, x7, [x2]
/home/nbshenxm/optee-project/rpi3/optee_os/lib/libutee/arch/arm/user_ta_entry.c:198
     528:	540000c8 	b.hi	540 <from_utee_params+0x40>  // b.pmore
     52c:	386348a3 	ldrb	w3, [x5, w3, uxtw]
     530:	1000006a 	adr	x10, 53c <from_utee_params+0x3c>
     534:	8b238943 	add	x3, x10, w3, sxtb #2
     538:	d61f0060 	br	x3
/home/nbshenxm/optee-project/rpi3/optee_os/lib/libutee/arch/arm/user_ta_entry.c:203
     53c:	29001c08 	stp	w8, w7, [x0]
/home/nbshenxm/optee-project/rpi3/optee_os/lib/libutee/arch/arm/user_ta_entry.c:204
     540:	11001084 	add	w4, w4, #0x4
     544:	91004042 	add	x2, x2, #0x10
     548:	91004000 	add	x0, x0, #0x10
/home/nbshenxm/optee-project/rpi3/optee_os/lib/libutee/arch/arm/user_ta_entry.c:194 (discriminator 2)
     54c:	7100409f 	cmp	w4, #0x10
     550:	54fffe21 	b.ne	514 <from_utee_params+0x14>  // b.any
/home/nbshenxm/optee-project/rpi3/optee_os/lib/libutee/arch/arm/user_ta_entry.c:217
     554:	b9000026 	str	w6, [x1]
/home/nbshenxm/optee-project/rpi3/optee_os/lib/libutee/arch/arm/user_ta_entry.c:218
     558:	d65f03c0 	ret
/home/nbshenxm/optee-project/rpi3/optee_os/lib/libutee/arch/arm/user_ta_entry.c:208
     55c:	f9000008 	str	x8, [x0]
/home/nbshenxm/optee-project/rpi3/optee_os/lib/libutee/arch/arm/user_ta_entry.c:209
     560:	b9000807 	str	w7, [x0, #8]
/home/nbshenxm/optee-project/rpi3/optee_os/lib/libutee/arch/arm/user_ta_entry.c:210
     564:	17fffff7 	b	540 <from_utee_params+0x40>

0000000000000568 <ta_header_save_params.part.0>:
ta_header_save_params():
/home/nbshenxm/optee-project/rpi3/optee_os/lib/libutee/arch/arm/user_ta_entry.c:98
     568:	90000060 	adrp	x0, c000 <_DYNAMIC>
     56c:	d2800802 	mov	x2, #0x40                  	// #64
     570:	52800001 	mov	w1, #0x0                   	// #0
     574:	f940c000 	ldr	x0, [x0, #384]
     578:	14001ca5 	b	780c <memset>

000000000000057c <__utee_call_elf_init_fn>:
__utee_call_elf_init_fn():
/home/nbshenxm/optee-project/rpi3/optee_os/lib/libutee/arch/arm/user_ta_entry.c:39
     57c:	a9ba7bfd 	stp	x29, x30, [sp, #-96]!
/home/nbshenxm/optee-project/rpi3/optee_os/lib/libutee/arch/arm/user_ta_entry.c:40
     580:	90000061 	adrp	x1, c000 <_DYNAMIC>
/home/nbshenxm/optee-project/rpi3/optee_os/lib/libutee/arch/arm/user_ta_entry.c:39
     584:	910003fd 	mov	x29, sp
/home/nbshenxm/optee-project/rpi3/optee_os/lib/libutee/arch/arm/user_ta_entry.c:40
     588:	f940b421 	ldr	x1, [x1, #360]
/home/nbshenxm/optee-project/rpi3/optee_os/lib/libutee/arch/arm/user_ta_entry.c:39
     58c:	a90153f3 	stp	x19, x20, [sp, #16]
     590:	52800314 	mov	w20, #0x18                  	// #24
     594:	a9025bf5 	stp	x21, x22, [sp, #32]
/home/nbshenxm/optee-project/rpi3/optee_os/lib/libutee/arch/arm/user_ta_entry.c:46
     598:	aa0103f5 	mov	x21, x1
/home/nbshenxm/optee-project/rpi3/optee_os/lib/libutee/arch/arm/user_ta_entry.c:40
     59c:	79400820 	ldrh	w0, [x1, #4]
/home/nbshenxm/optee-project/rpi3/optee_os/lib/libutee/arch/arm/user_ta_entry.c:39
     5a0:	a9046bf9 	stp	x25, x26, [sp, #64]
/home/nbshenxm/optee-project/rpi3/optee_os/lib/libutee/arch/arm/user_ta_entry.c:44
     5a4:	d2800033 	mov	x19, #0x1                   	// #1
/home/nbshenxm/optee-project/rpi3/optee_os/lib/libutee/arch/arm/user_ta_entry.c:40
     5a8:	92403c1a 	and	x26, x0, #0xffff
/home/nbshenxm/optee-project/rpi3/optee_os/lib/libutee/arch/arm/user_ta_entry.c:39
     5ac:	a90363f7 	stp	x23, x24, [sp, #48]
     5b0:	9bb47c14 	umull	x20, w0, w20
     5b4:	f9002bfb 	str	x27, [sp, #80]
/home/nbshenxm/optee-project/rpi3/optee_os/lib/libutee/arch/arm/user_ta_entry.c:46
     5b8:	928002fb 	mov	x27, #0xffffffffffffffe8    	// #-24
/home/nbshenxm/optee-project/rpi3/optee_os/lib/libutee/arch/arm/user_ta_entry.c:44 (discriminator 1)
     5bc:	eb1a027f 	cmp	x19, x26
     5c0:	54000109 	b.ls	5e0 <__utee_call_elf_init_fn+0x64>  // b.plast
/home/nbshenxm/optee-project/rpi3/optee_os/lib/libutee/arch/arm/user_ta_entry.c:54
     5c4:	a94153f3 	ldp	x19, x20, [sp, #16]
     5c8:	a9425bf5 	ldp	x21, x22, [sp, #32]
     5cc:	a94363f7 	ldp	x23, x24, [sp, #48]
     5d0:	a9446bf9 	ldp	x25, x26, [sp, #64]
     5d4:	f9402bfb 	ldr	x27, [sp, #80]
     5d8:	a8c67bfd 	ldp	x29, x30, [sp], #96
     5dc:	d65f03c0 	ret
/home/nbshenxm/optee-project/rpi3/optee_os/lib/libutee/arch/arm/user_ta_entry.c:46
     5e0:	9b1b5276 	madd	x22, x19, x27, x20
     5e4:	f94006b7 	ldr	x23, [x21, #8]
     5e8:	8b1602f9 	add	x25, x23, x22
/home/nbshenxm/optee-project/rpi3/optee_os/lib/libutee/arch/arm/user_ta_entry.c:48
     5ec:	b8766ae0 	ldr	w0, [x23, x22]
     5f0:	360801c0 	tbz	w0, #1, 628 <__utee_call_elf_init_fn+0xac>
/home/nbshenxm/optee-project/rpi3/optee_os/lib/libutee/arch/arm/user_ta_entry.c:52
     5f4:	b8766ae0 	ldr	w0, [x23, x22]
/home/nbshenxm/optee-project/rpi3/optee_os/lib/libutee/arch/arm/user_ta_entry.c:44
     5f8:	91000673 	add	x19, x19, #0x1
/home/nbshenxm/optee-project/rpi3/optee_os/lib/libutee/arch/arm/user_ta_entry.c:52
     5fc:	321f0000 	orr	w0, w0, #0x2
     600:	b8366ae0 	str	w0, [x23, x22]
     604:	17ffffee 	b	5bc <__utee_call_elf_init_fn+0x40>
/home/nbshenxm/optee-project/rpi3/optee_os/lib/libutee/arch/arm/user_ta_entry.c:50 (discriminator 3)
     608:	f9400720 	ldr	x0, [x25, #8]
     60c:	f8787800 	ldr	x0, [x0, x24, lsl #3]
/home/nbshenxm/optee-project/rpi3/optee_os/lib/libutee/arch/arm/user_ta_entry.c:49 (discriminator 3)
     610:	91000718 	add	x24, x24, #0x1
/home/nbshenxm/optee-project/rpi3/optee_os/lib/libutee/arch/arm/user_ta_entry.c:50 (discriminator 3)
     614:	d63f0000 	blr	x0
/home/nbshenxm/optee-project/rpi3/optee_os/lib/libutee/arch/arm/user_ta_entry.c:49 (discriminator 1)
     618:	79400b20 	ldrh	w0, [x25, #4]
     61c:	eb18001f 	cmp	x0, x24
     620:	54ffff48 	b.hi	608 <__utee_call_elf_init_fn+0x8c>  // b.pmore
     624:	17fffff4 	b	5f4 <__utee_call_elf_init_fn+0x78>
/home/nbshenxm/optee-project/rpi3/optee_os/lib/libutee/arch/arm/user_ta_entry.c:49
     628:	d2800018 	mov	x24, #0x0                   	// #0
     62c:	17fffffb 	b	618 <__utee_call_elf_init_fn+0x9c>

0000000000000630 <__utee_call_elf_fini_fn>:
__utee_call_elf_fini_fn():
/home/nbshenxm/optee-project/rpi3/optee_os/lib/libutee/arch/arm/user_ta_entry.c:57
     630:	a9bb7bfd 	stp	x29, x30, [sp, #-80]!
/home/nbshenxm/optee-project/rpi3/optee_os/lib/libutee/arch/arm/user_ta_entry.c:58
     634:	90000060 	adrp	x0, c000 <_DYNAMIC>
/home/nbshenxm/optee-project/rpi3/optee_os/lib/libutee/arch/arm/user_ta_entry.c:57
     638:	910003fd 	mov	x29, sp
/home/nbshenxm/optee-project/rpi3/optee_os/lib/libutee/arch/arm/user_ta_entry.c:58
     63c:	f940b400 	ldr	x0, [x0, #360]
/home/nbshenxm/optee-project/rpi3/optee_os/lib/libutee/arch/arm/user_ta_entry.c:57
     640:	a9046bf9 	stp	x25, x26, [sp, #64]
/home/nbshenxm/optee-project/rpi3/optee_os/lib/libutee/arch/arm/user_ta_entry.c:63
     644:	d280031a 	mov	x26, #0x18                  	// #24
/home/nbshenxm/optee-project/rpi3/optee_os/lib/libutee/arch/arm/user_ta_entry.c:57
     648:	a90153f3 	stp	x19, x20, [sp, #16]
/home/nbshenxm/optee-project/rpi3/optee_os/lib/libutee/arch/arm/user_ta_entry.c:63
     64c:	aa0003f4 	mov	x20, x0
/home/nbshenxm/optee-project/rpi3/optee_os/lib/libutee/arch/arm/user_ta_entry.c:58
     650:	79400819 	ldrh	w25, [x0, #4]
/home/nbshenxm/optee-project/rpi3/optee_os/lib/libutee/arch/arm/user_ta_entry.c:62
     654:	d2800013 	mov	x19, #0x0                   	// #0
/home/nbshenxm/optee-project/rpi3/optee_os/lib/libutee/arch/arm/user_ta_entry.c:57
     658:	a9025bf5 	stp	x21, x22, [sp, #32]
     65c:	a90363f7 	stp	x23, x24, [sp, #48]
/home/nbshenxm/optee-project/rpi3/optee_os/lib/libutee/arch/arm/user_ta_entry.c:62 (discriminator 1)
     660:	eb19027f 	cmp	x19, x25
     664:	540000e3 	b.cc	680 <__utee_call_elf_fini_fn+0x50>  // b.lo, b.ul, b.last
/home/nbshenxm/optee-project/rpi3/optee_os/lib/libutee/arch/arm/user_ta_entry.c:71
     668:	a94153f3 	ldp	x19, x20, [sp, #16]
     66c:	a9425bf5 	ldp	x21, x22, [sp, #32]
     670:	a94363f7 	ldp	x23, x24, [sp, #48]
     674:	a9446bf9 	ldp	x25, x26, [sp, #64]
     678:	a8c57bfd 	ldp	x29, x30, [sp], #80
     67c:	d65f03c0 	ret
/home/nbshenxm/optee-project/rpi3/optee_os/lib/libutee/arch/arm/user_ta_entry.c:63
     680:	9b1a7e75 	mul	x21, x19, x26
     684:	f9400696 	ldr	x22, [x20, #8]
     688:	8b1502d8 	add	x24, x22, x21
/home/nbshenxm/optee-project/rpi3/optee_os/lib/libutee/arch/arm/user_ta_entry.c:65
     68c:	b8756ac0 	ldr	w0, [x22, x21]
     690:	361001e0 	tbz	w0, #2, 6cc <__utee_call_elf_fini_fn+0x9c>
/home/nbshenxm/optee-project/rpi3/optee_os/lib/libutee/arch/arm/user_ta_entry.c:69
     694:	b8756ac0 	ldr	w0, [x22, x21]
/home/nbshenxm/optee-project/rpi3/optee_os/lib/libutee/arch/arm/user_ta_entry.c:62
     698:	91000673 	add	x19, x19, #0x1
/home/nbshenxm/optee-project/rpi3/optee_os/lib/libutee/arch/arm/user_ta_entry.c:69
     69c:	321e0000 	orr	w0, w0, #0x4
     6a0:	b8356ac0 	str	w0, [x22, x21]
     6a4:	17ffffef 	b	660 <__utee_call_elf_fini_fn+0x30>
/home/nbshenxm/optee-project/rpi3/optee_os/lib/libutee/arch/arm/user_ta_entry.c:67 (discriminator 3)
     6a8:	f9400b01 	ldr	x1, [x24, #16]
     6ac:	cb170000 	sub	x0, x0, x23
/home/nbshenxm/optee-project/rpi3/optee_os/lib/libutee/arch/arm/user_ta_entry.c:66 (discriminator 3)
     6b0:	910006f7 	add	x23, x23, #0x1
/home/nbshenxm/optee-project/rpi3/optee_os/lib/libutee/arch/arm/user_ta_entry.c:67 (discriminator 3)
     6b4:	f8607820 	ldr	x0, [x1, x0, lsl #3]
     6b8:	d63f0000 	blr	x0
/home/nbshenxm/optee-project/rpi3/optee_os/lib/libutee/arch/arm/user_ta_entry.c:66 (discriminator 1)
     6bc:	79400f00 	ldrh	w0, [x24, #6]
     6c0:	eb17001f 	cmp	x0, x23
     6c4:	54ffff22 	b.cs	6a8 <__utee_call_elf_fini_fn+0x78>  // b.hs, b.nlast
     6c8:	17fffff3 	b	694 <__utee_call_elf_fini_fn+0x64>
/home/nbshenxm/optee-project/rpi3/optee_os/lib/libutee/arch/arm/user_ta_entry.c:66
     6cc:	d2800037 	mov	x23, #0x1                   	// #1
     6d0:	17fffffb 	b	6bc <__utee_call_elf_fini_fn+0x8c>

00000000000006d4 <ta_header_remove_session>:
ta_header_remove_session():
/home/nbshenxm/optee-project/rpi3/optee_os/lib/libutee/arch/arm/user_ta_entry.c:139
     6d4:	a9be7bfd 	stp	x29, x30, [sp, #-32]!
     6d8:	2a0003e2 	mov	w2, w0
     6dc:	910003fd 	mov	x29, sp
     6e0:	f9000bf3 	str	x19, [sp, #16]
/home/nbshenxm/optee-project/rpi3/optee_os/lib/libutee/arch/arm/user_ta_entry.c:143
     6e4:	90000073 	adrp	x19, c000 <_DYNAMIC>
     6e8:	f941d660 	ldr	x0, [x19, #936]
/home/nbshenxm/optee-project/rpi3/optee_os/lib/libutee/arch/arm/user_ta_entry.c:143 (discriminator 1)
     6ec:	b5000080 	cbnz	x0, 6fc <ta_header_remove_session+0x28>
/home/nbshenxm/optee-project/rpi3/optee_os/lib/libutee/arch/arm/user_ta_entry.c:157
     6f0:	f9400bf3 	ldr	x19, [sp, #16]
     6f4:	a8c27bfd 	ldp	x29, x30, [sp], #32
     6f8:	d65f03c0 	ret
/home/nbshenxm/optee-project/rpi3/optee_os/lib/libutee/arch/arm/user_ta_entry.c:144
     6fc:	b9400003 	ldr	w3, [x0]
     700:	f9400801 	ldr	x1, [x0, #16]
     704:	6b02007f 	cmp	w3, w2
     708:	540002e1 	b.ne	764 <ta_header_remove_session+0x90>  // b.any
/home/nbshenxm/optee-project/rpi3/optee_os/lib/libutee/arch/arm/user_ta_entry.c:145
     70c:	f9400c02 	ldr	x2, [x0, #24]
     710:	b4000241 	cbz	x1, 758 <ta_header_remove_session+0x84>
/home/nbshenxm/optee-project/rpi3/optee_os/lib/libutee/arch/arm/user_ta_entry.c:145 (discriminator 1)
     714:	f9000c22 	str	x2, [x1, #24]
/home/nbshenxm/optee-project/rpi3/optee_os/lib/libutee/arch/arm/user_ta_entry.c:145 (discriminator 4)
     718:	f9400c02 	ldr	x2, [x0, #24]
     71c:	f9000041 	str	x1, [x2]
/home/nbshenxm/optee-project/rpi3/optee_os/lib/libutee/arch/arm/user_ta_entry.c:146 (discriminator 4)
     720:	94000253 	bl	106c <TEE_Free>
/home/nbshenxm/optee-project/rpi3/optee_os/lib/libutee/arch/arm/user_ta_entry.c:151 (discriminator 4)
     724:	f941d660 	ldr	x0, [x19, #936]
     728:	b5fffe40 	cbnz	x0, 6f0 <ta_header_remove_session+0x1c>
/home/nbshenxm/optee-project/rpi3/optee_os/lib/libutee/arch/arm/user_ta_entry.c:149 (discriminator 1)
     72c:	90000060 	adrp	x0, c000 <_DYNAMIC>
     730:	52800281 	mov	w1, #0x14                  	// #20
     734:	f940c400 	ldr	x0, [x0, #392]
     738:	b9401400 	ldr	w0, [x0, #20]
     73c:	0a010000 	and	w0, w0, w1
/home/nbshenxm/optee-project/rpi3/optee_os/lib/libutee/arch/arm/user_ta_entry.c:151 (discriminator 1)
     740:	6b01001f 	cmp	w0, w1
     744:	54fffd60 	b.eq	6f0 <ta_header_remove_session+0x1c>  // b.none
uninit_instance():
/home/nbshenxm/optee-project/rpi3/optee_os/lib/libutee/arch/arm/user_ta_entry.c:86
     748:	97fffe73 	bl	114 <TA_DestroyEntryPoint>
ta_header_remove_session():
/home/nbshenxm/optee-project/rpi3/optee_os/lib/libutee/arch/arm/user_ta_entry.c:157
     74c:	f9400bf3 	ldr	x19, [sp, #16]
     750:	a8c27bfd 	ldp	x29, x30, [sp], #32
uninit_instance():
/home/nbshenxm/optee-project/rpi3/optee_os/lib/libutee/arch/arm/user_ta_entry.c:87
     754:	17ffffb7 	b	630 <__utee_call_elf_fini_fn>
ta_header_remove_session():
/home/nbshenxm/optee-project/rpi3/optee_os/lib/libutee/arch/arm/user_ta_entry.c:145 (discriminator 2)
     758:	910ea263 	add	x3, x19, #0x3a8
     75c:	f9000462 	str	x2, [x3, #8]
     760:	17ffffee 	b	718 <ta_header_remove_session+0x44>
     764:	aa0103e0 	mov	x0, x1
     768:	17ffffe1 	b	6ec <ta_header_remove_session+0x18>

000000000000076c <__utee_entry>:
__utee_entry():
/home/nbshenxm/optee-project/rpi3/optee_os/lib/libutee/arch/arm/user_ta_entry.c:285
     76c:	a9b77bfd 	stp	x29, x30, [sp, #-144]!
/home/nbshenxm/optee-project/rpi3/optee_os/lib/libutee/arch/arm/user_ta_entry.c:288
     770:	f100041f 	cmp	x0, #0x1
/home/nbshenxm/optee-project/rpi3/optee_os/lib/libutee/arch/arm/user_ta_entry.c:285
     774:	910003fd 	mov	x29, sp
     778:	a90153f3 	stp	x19, x20, [sp, #16]
     77c:	90000074 	adrp	x20, c000 <_DYNAMIC>
     780:	a9025bf5 	stp	x21, x22, [sp, #32]
     784:	aa0103f5 	mov	x21, x1
     788:	a90363f7 	stp	x23, x24, [sp, #48]
/home/nbshenxm/optee-project/rpi3/optee_os/lib/libutee/arch/arm/user_ta_entry.c:288
     78c:	54000a20 	b.eq	8d0 <__utee_entry+0x164>  // b.none
     790:	aa0203f7 	mov	x23, x2
     794:	b40000e0 	cbz	x0, 7b0 <__utee_entry+0x44>
     798:	f100081f 	cmp	x0, #0x2
     79c:	54000ac0 	b.eq	8f4 <__utee_entry+0x188>  // b.none
/home/nbshenxm/optee-project/rpi3/optee_os/lib/libutee/arch/arm/user_ta_entry.c:300
     7a0:	52800000 	mov	w0, #0x0                   	// #0
/home/nbshenxm/optee-project/rpi3/optee_os/lib/libutee/arch/arm/user_ta_entry.c:299
     7a4:	12800013 	mov	w19, #0xffffffff            	// #-1
/home/nbshenxm/optee-project/rpi3/optee_os/lib/libutee/arch/arm/user_ta_entry.c:300
     7a8:	94000889 	bl	29cc <TEE_Panic>
/home/nbshenxm/optee-project/rpi3/optee_os/lib/libutee/arch/arm/user_ta_entry.c:301
     7ac:	1400001a 	b	814 <__utee_entry+0xa8>
ta_header_add_session():
/home/nbshenxm/optee-project/rpi3/optee_os/lib/libutee/arch/arm/user_ta_entry.c:114
     7b0:	2a0103e0 	mov	w0, w1
     7b4:	97ffff2b 	bl	460 <ta_header_get_session>
/home/nbshenxm/optee-project/rpi3/optee_os/lib/libutee/arch/arm/user_ta_entry.c:117
     7b8:	b5000520 	cbnz	x0, 85c <__utee_entry+0xf0>
/home/nbshenxm/optee-project/rpi3/optee_os/lib/libutee/arch/arm/user_ta_entry.c:120
     7bc:	f00000a0 	adrp	x0, 17000 <ta_heap+0x7b48>
     7c0:	3952e001 	ldrb	w1, [x0, #1208]
     7c4:	340000e1 	cbz	w1, 7e0 <__utee_entry+0x74>
/home/nbshenxm/optee-project/rpi3/optee_os/lib/libutee/arch/arm/user_ta_entry.c:127
     7c8:	52b00001 	mov	w1, #0x80000000            	// #-2147483648
     7cc:	52800400 	mov	w0, #0x20                  	// #32
     7d0:	9400020e 	bl	1008 <TEE_Malloc>
/home/nbshenxm/optee-project/rpi3/optee_os/lib/libutee/arch/arm/user_ta_entry.c:129
     7d4:	b5000320 	cbnz	x0, 838 <__utee_entry+0xcc>
/home/nbshenxm/optee-project/rpi3/optee_os/lib/libutee/arch/arm/user_ta_entry.c:130
     7d8:	129ffe73 	mov	w19, #0xffff000c            	// #-65524
     7dc:	1400000e 	b	814 <__utee_entry+0xa8>
/home/nbshenxm/optee-project/rpi3/optee_os/lib/libutee/arch/arm/user_ta_entry.c:121
     7e0:	52800021 	mov	w1, #0x1                   	// #1
     7e4:	3912e001 	strb	w1, [x0, #1208]
init_instance():
/home/nbshenxm/optee-project/rpi3/optee_os/lib/libutee/arch/arm/user_ta_entry.c:75
     7e8:	97fffe71 	bl	1ac <tahead_get_trace_level>
     7ec:	94001f55 	bl	8540 <trace_set_level>
/home/nbshenxm/optee-project/rpi3/optee_os/lib/libutee/arch/arm/user_ta_entry.c:77
     7f0:	f9409a80 	ldr	x0, [x20, #304]
     7f4:	f9400001 	ldr	x1, [x0]
     7f8:	f940ae80 	ldr	x0, [x20, #344]
     7fc:	94001af8 	bl	73dc <malloc_add_pool>
/home/nbshenxm/optee-project/rpi3/optee_os/lib/libutee/arch/arm/user_ta_entry.c:78
     800:	94000424 	bl	1890 <_TEE_MathAPI_Init>
/home/nbshenxm/optee-project/rpi3/optee_os/lib/libutee/arch/arm/user_ta_entry.c:79
     804:	97ffff5e 	bl	57c <__utee_call_elf_init_fn>
/home/nbshenxm/optee-project/rpi3/optee_os/lib/libutee/arch/arm/user_ta_entry.c:80
     808:	97fffe41 	bl	10c <TA_CreateEntryPoint>
     80c:	2a0003f3 	mov	w19, w0
ta_header_add_session():
/home/nbshenxm/optee-project/rpi3/optee_os/lib/libutee/arch/arm/user_ta_entry.c:123
     810:	34fffdc0 	cbz	w0, 7c8 <__utee_entry+0x5c>
ta_header_save_params():
/home/nbshenxm/optee-project/rpi3/optee_os/lib/libutee/arch/arm/user_ta_entry.c:93
     814:	f940ba94 	ldr	x20, [x20, #368]
     818:	b900029f 	str	wzr, [x20]
/home/nbshenxm/optee-project/rpi3/optee_os/lib/libutee/arch/arm/user_ta_entry.c:95
     81c:	97ffff53 	bl	568 <ta_header_save_params.part.0>
__utee_entry():
/home/nbshenxm/optee-project/rpi3/optee_os/lib/libutee/arch/arm/user_ta_entry.c:306
     820:	2a1303e0 	mov	w0, w19
     824:	a94153f3 	ldp	x19, x20, [sp, #16]
     828:	a9425bf5 	ldp	x21, x22, [sp, #32]
     82c:	a94363f7 	ldp	x23, x24, [sp, #48]
     830:	a8c97bfd 	ldp	x29, x30, [sp], #144
     834:	d65f03c0 	ret
ta_header_add_session():
/home/nbshenxm/optee-project/rpi3/optee_os/lib/libutee/arch/arm/user_ta_entry.c:133
     838:	90000061 	adrp	x1, c000 <_DYNAMIC>
     83c:	910ea021 	add	x1, x1, #0x3a8
     840:	f9400422 	ldr	x2, [x1, #8]
/home/nbshenxm/optee-project/rpi3/optee_os/lib/libutee/arch/arm/user_ta_entry.c:131
     844:	b9000015 	str	w21, [x0]
/home/nbshenxm/optee-project/rpi3/optee_os/lib/libutee/arch/arm/user_ta_entry.c:133
     848:	a900fc1f 	stp	xzr, xzr, [x0, #8]
     84c:	f9000c02 	str	x2, [x0, #24]
     850:	f9000040 	str	x0, [x2]
     854:	91004000 	add	x0, x0, #0x10
     858:	f9000420 	str	x0, [x1, #8]
entry_open_session():
/home/nbshenxm/optee-project/rpi3/optee_os/lib/libutee/arch/arm/user_ta_entry.c:232
     85c:	2a1503e0 	mov	w0, w21
     860:	97ffff00 	bl	460 <ta_header_get_session>
     864:	aa0003f8 	mov	x24, x0
/home/nbshenxm/optee-project/rpi3/optee_os/lib/libutee/arch/arm/user_ta_entry.c:233
     868:	b40007e0 	cbz	x0, 964 <__utee_entry+0x1f8>
/home/nbshenxm/optee-project/rpi3/optee_os/lib/libutee/arch/arm/user_ta_entry.c:236
     86c:	910143f6 	add	x22, sp, #0x50
     870:	aa1703e2 	mov	x2, x23
     874:	910133e1 	add	x1, sp, #0x4c
     878:	aa1603e0 	mov	x0, x22
     87c:	97ffff21 	bl	500 <from_utee_params>
/home/nbshenxm/optee-project/rpi3/optee_os/lib/libutee/arch/arm/user_ta_entry.c:237
     880:	b9404ff3 	ldr	w19, [sp, #76]
ta_header_save_params():
/home/nbshenxm/optee-project/rpi3/optee_os/lib/libutee/arch/arm/user_ta_entry.c:93
     884:	f940ba80 	ldr	x0, [x20, #368]
/home/nbshenxm/optee-project/rpi3/optee_os/lib/libutee/arch/arm/user_ta_entry.c:96
     888:	d2800802 	mov	x2, #0x40                  	// #64
     88c:	aa1603e1 	mov	x1, x22
/home/nbshenxm/optee-project/rpi3/optee_os/lib/libutee/arch/arm/user_ta_entry.c:93
     890:	b9000013 	str	w19, [x0]
/home/nbshenxm/optee-project/rpi3/optee_os/lib/libutee/arch/arm/user_ta_entry.c:96
     894:	f940c280 	ldr	x0, [x20, #384]
     898:	97fffde2 	bl	20 <memcpy>
entry_open_session():
/home/nbshenxm/optee-project/rpi3/optee_os/lib/libutee/arch/arm/user_ta_entry.c:239
     89c:	91002302 	add	x2, x24, #0x8
     8a0:	aa1603e1 	mov	x1, x22
     8a4:	2a1303e0 	mov	w0, w19
     8a8:	97fffe1c 	bl	118 <TA_OpenSessionEntryPoint>
/home/nbshenxm/optee-project/rpi3/optee_os/lib/libutee/arch/arm/user_ta_entry.c:242
     8ac:	b9404fe1 	ldr	w1, [sp, #76]
/home/nbshenxm/optee-project/rpi3/optee_os/lib/libutee/arch/arm/user_ta_entry.c:239
     8b0:	2a0003f3 	mov	w19, w0
/home/nbshenxm/optee-project/rpi3/optee_os/lib/libutee/arch/arm/user_ta_entry.c:242
     8b4:	aa1603e2 	mov	x2, x22
     8b8:	aa1703e0 	mov	x0, x23
     8bc:	97fffef3 	bl	488 <to_utee_params>
/home/nbshenxm/optee-project/rpi3/optee_os/lib/libutee/arch/arm/user_ta_entry.c:244
     8c0:	34fffab3 	cbz	w19, 814 <__utee_entry+0xa8>
/home/nbshenxm/optee-project/rpi3/optee_os/lib/libutee/arch/arm/user_ta_entry.c:245
     8c4:	2a1503e0 	mov	w0, w21
     8c8:	97ffff83 	bl	6d4 <ta_header_remove_session>
     8cc:	17ffffd2 	b	814 <__utee_entry+0xa8>
entry_close_session():
/home/nbshenxm/optee-project/rpi3/optee_os/lib/libutee/arch/arm/user_ta_entry.c:251
     8d0:	2a0103e0 	mov	w0, w1
     8d4:	97fffee3 	bl	460 <ta_header_get_session>
/home/nbshenxm/optee-project/rpi3/optee_os/lib/libutee/arch/arm/user_ta_entry.c:253
     8d8:	b4000460 	cbz	x0, 964 <__utee_entry+0x1f8>
/home/nbshenxm/optee-project/rpi3/optee_os/lib/libutee/arch/arm/user_ta_entry.c:256
     8dc:	f9400400 	ldr	x0, [x0, #8]
/home/nbshenxm/optee-project/rpi3/optee_os/lib/libutee/arch/arm/user_ta_entry.c:259
     8e0:	52800013 	mov	w19, #0x0                   	// #0
/home/nbshenxm/optee-project/rpi3/optee_os/lib/libutee/arch/arm/user_ta_entry.c:256
     8e4:	97fffe11 	bl	128 <TA_CloseSessionEntryPoint>
/home/nbshenxm/optee-project/rpi3/optee_os/lib/libutee/arch/arm/user_ta_entry.c:258
     8e8:	2a1503e0 	mov	w0, w21
     8ec:	97ffff7a 	bl	6d4 <ta_header_remove_session>
/home/nbshenxm/optee-project/rpi3/optee_os/lib/libutee/arch/arm/user_ta_entry.c:259
     8f0:	17ffffc9 	b	814 <__utee_entry+0xa8>
entry_invoke_command():
/home/nbshenxm/optee-project/rpi3/optee_os/lib/libutee/arch/arm/user_ta_entry.c:268
     8f4:	2a0103e0 	mov	w0, w1
     8f8:	97fffeda 	bl	460 <ta_header_get_session>
     8fc:	aa0003f3 	mov	x19, x0
/home/nbshenxm/optee-project/rpi3/optee_os/lib/libutee/arch/arm/user_ta_entry.c:270
     900:	b4000320 	cbz	x0, 964 <__utee_entry+0x1f8>
/home/nbshenxm/optee-project/rpi3/optee_os/lib/libutee/arch/arm/user_ta_entry.c:273
     904:	910143f5 	add	x21, sp, #0x50
     908:	aa0303f8 	mov	x24, x3
     90c:	aa1703e2 	mov	x2, x23
     910:	910133e1 	add	x1, sp, #0x4c
     914:	aa1503e0 	mov	x0, x21
     918:	97fffefa 	bl	500 <from_utee_params>
ta_header_save_params():
/home/nbshenxm/optee-project/rpi3/optee_os/lib/libutee/arch/arm/user_ta_entry.c:93
     91c:	f940ba80 	ldr	x0, [x20, #368]
/home/nbshenxm/optee-project/rpi3/optee_os/lib/libutee/arch/arm/user_ta_entry.c:96
     920:	aa1503e1 	mov	x1, x21
entry_invoke_command():
/home/nbshenxm/optee-project/rpi3/optee_os/lib/libutee/arch/arm/user_ta_entry.c:274
     924:	b9404ff6 	ldr	w22, [sp, #76]
ta_header_save_params():
/home/nbshenxm/optee-project/rpi3/optee_os/lib/libutee/arch/arm/user_ta_entry.c:96
     928:	d2800802 	mov	x2, #0x40                  	// #64
/home/nbshenxm/optee-project/rpi3/optee_os/lib/libutee/arch/arm/user_ta_entry.c:93
     92c:	b9000016 	str	w22, [x0]
/home/nbshenxm/optee-project/rpi3/optee_os/lib/libutee/arch/arm/user_ta_entry.c:96
     930:	f940c280 	ldr	x0, [x20, #384]
     934:	97fffdbb 	bl	20 <memcpy>
entry_invoke_command():
/home/nbshenxm/optee-project/rpi3/optee_os/lib/libutee/arch/arm/user_ta_entry.c:276
     938:	f9400660 	ldr	x0, [x19, #8]
     93c:	2a1603e2 	mov	w2, w22
     940:	2a1803e1 	mov	w1, w24
     944:	aa1503e3 	mov	x3, x21
     948:	97fffdf9 	bl	12c <TA_InvokeCommandEntryPoint>
     94c:	2a0003f3 	mov	w19, w0
/home/nbshenxm/optee-project/rpi3/optee_os/lib/libutee/arch/arm/user_ta_entry.c:279
     950:	b9404fe1 	ldr	w1, [sp, #76]
     954:	aa1503e2 	mov	x2, x21
     958:	aa1703e0 	mov	x0, x23
     95c:	97fffecb 	bl	488 <to_utee_params>
/home/nbshenxm/optee-project/rpi3/optee_os/lib/libutee/arch/arm/user_ta_entry.c:280
     960:	17ffffad 	b	814 <__utee_entry+0xa8>
entry_close_session():
/home/nbshenxm/optee-project/rpi3/optee_os/lib/libutee/arch/arm/user_ta_entry.c:254
     964:	129fff13 	mov	w19, #0xffff0007            	// #-65529
     968:	17ffffab 	b	814 <__utee_entry+0xa8>

000000000000096c <update_out_param>:
update_out_param():
/home/nbshenxm/optee-project/rpi3/optee_os/lib/libutee/tee_api.c:115
     96c:	a9bb7bfd 	stp	x29, x30, [sp, #-80]!
     970:	910003fd 	mov	x29, sp
     974:	a90153f3 	stp	x19, x20, [sp, #16]
/home/nbshenxm/optee-project/rpi3/optee_os/lib/libutee/tee_api.c:117
     978:	aa0203f4 	mov	x20, x2
     97c:	aa0003f3 	mov	x19, x0
/home/nbshenxm/optee-project/rpi3/optee_os/lib/libutee/tee_api.c:115
     980:	a90363f7 	stp	x23, x24, [sp, #48]
/home/nbshenxm/optee-project/rpi3/optee_os/lib/libutee/tee_api.c:123
     984:	d0000058 	adrp	x24, a000 <__text_end+0x1594>
     988:	91165318 	add	x24, x24, #0x594
/home/nbshenxm/optee-project/rpi3/optee_os/lib/libutee/tee_api.c:117
     98c:	f8408697 	ldr	x23, [x20], #8
/home/nbshenxm/optee-project/rpi3/optee_os/lib/libutee/tee_api.c:115
     990:	f90023f9 	str	x25, [sp, #64]
     994:	aa0103f9 	mov	x25, x1
     998:	a9025bf5 	stp	x21, x22, [sp, #32]
/home/nbshenxm/optee-project/rpi3/optee_os/lib/libutee/tee_api.c:119
     99c:	d2800015 	mov	x21, #0x0                   	// #0
/home/nbshenxm/optee-project/rpi3/optee_os/lib/libutee/tee_api.c:123
     9a0:	531e76a0 	lsl	w0, w21, #2
/home/nbshenxm/optee-project/rpi3/optee_os/lib/libutee/tee_api.c:121
     9a4:	f9400696 	ldr	x22, [x20, #8]
/home/nbshenxm/optee-project/rpi3/optee_os/lib/libutee/tee_api.c:123
     9a8:	1ac026e0 	lsr	w0, w23, w0
     9ac:	12000c00 	and	w0, w0, #0xf
     9b0:	51000800 	sub	w0, w0, #0x2
     9b4:	7100141f 	cmp	w0, #0x5
     9b8:	540000e8 	b.hi	9d4 <update_out_param+0x68>  // b.pmore
     9bc:	38604b00 	ldrb	w0, [x24, w0, uxtw]
     9c0:	10000061 	adr	x1, 9cc <update_out_param+0x60>
     9c4:	8b208820 	add	x0, x1, w0, sxtb #2
     9c8:	d61f0000 	br	x0
/home/nbshenxm/optee-project/rpi3/optee_os/lib/libutee/tee_api.c:126
     9cc:	f9400280 	ldr	x0, [x20]
/home/nbshenxm/optee-project/rpi3/optee_os/lib/libutee/tee_api.c:127
     9d0:	29005a60 	stp	w0, w22, [x19]
/home/nbshenxm/optee-project/rpi3/optee_os/lib/libutee/tee_api.c:119 (discriminator 2)
     9d4:	910006b5 	add	x21, x21, #0x1
     9d8:	91004294 	add	x20, x20, #0x10
     9dc:	91004273 	add	x19, x19, #0x10
     9e0:	f10012bf 	cmp	x21, #0x4
     9e4:	54fffde1 	b.ne	9a0 <update_out_param+0x34>  // b.any
/home/nbshenxm/optee-project/rpi3/optee_os/lib/libutee/tee_api.c:140
     9e8:	a94153f3 	ldp	x19, x20, [sp, #16]
     9ec:	a9425bf5 	ldp	x21, x22, [sp, #32]
     9f0:	a94363f7 	ldp	x23, x24, [sp, #48]
     9f4:	f94023f9 	ldr	x25, [sp, #64]
     9f8:	a8c57bfd 	ldp	x29, x30, [sp], #80
     9fc:	d65f03c0 	ret
/home/nbshenxm/optee-project/rpi3/optee_os/lib/libutee/tee_api.c:131
     a00:	f8757b21 	ldr	x1, [x25, x21, lsl #3]
     a04:	b40000c1 	cbz	x1, a1c <update_out_param+0xb0>
/home/nbshenxm/optee-project/rpi3/optee_os/lib/libutee/tee_api.c:133
     a08:	b9400a62 	ldr	w2, [x19, #8]
/home/nbshenxm/optee-project/rpi3/optee_os/lib/libutee/tee_api.c:132
     a0c:	f9400260 	ldr	x0, [x19]
/home/nbshenxm/optee-project/rpi3/optee_os/lib/libutee/tee_api.c:133
     a10:	eb16005f 	cmp	x2, x22
/home/nbshenxm/optee-project/rpi3/optee_os/lib/libutee/tee_api.c:132
     a14:	9a969042 	csel	x2, x2, x22, ls  // ls = plast
     a18:	97fffd82 	bl	20 <memcpy>
/home/nbshenxm/optee-project/rpi3/optee_os/lib/libutee/tee_api.c:134
     a1c:	b9000a76 	str	w22, [x19, #8]
/home/nbshenxm/optee-project/rpi3/optee_os/lib/libutee/tee_api.c:135
     a20:	17ffffed 	b	9d4 <update_out_param+0x68>

0000000000000a24 <TEE_CloseTASession>:
TEE_CloseTASession():
/home/nbshenxm/optee-project/rpi3/optee_os/lib/libutee/tee_api.c:184
     a24:	b4000120 	cbz	x0, a48 <TEE_CloseTASession+0x24>
/home/nbshenxm/optee-project/rpi3/optee_os/lib/libutee/tee_api.c:183
     a28:	a9bf7bfd 	stp	x29, x30, [sp, #-16]!
     a2c:	910003fd 	mov	x29, sp
/home/nbshenxm/optee-project/rpi3/optee_os/lib/libutee/tee_api.c:185
     a30:	97fffdf6 	bl	208 <utee_close_ta_session>
/home/nbshenxm/optee-project/rpi3/optee_os/lib/libutee/tee_api.c:187
     a34:	34000060 	cbz	w0, a40 <TEE_CloseTASession+0x1c>
/home/nbshenxm/optee-project/rpi3/optee_os/lib/libutee/tee_api.c:190
     a38:	a8c17bfd 	ldp	x29, x30, [sp], #16
/home/nbshenxm/optee-project/rpi3/optee_os/lib/libutee/tee_api.c:188
     a3c:	140007e4 	b	29cc <TEE_Panic>
/home/nbshenxm/optee-project/rpi3/optee_os/lib/libutee/tee_api.c:190
     a40:	a8c17bfd 	ldp	x29, x30, [sp], #16
     a44:	d65f03c0 	ret
     a48:	d65f03c0 	ret

0000000000000a4c <TEE_GetCancellationFlag>:
TEE_GetCancellationFlag():
/home/nbshenxm/optee-project/rpi3/optee_os/lib/libutee/tee_api.c:237
     a4c:	a9be7bfd 	stp	x29, x30, [sp, #-32]!
     a50:	910003fd 	mov	x29, sp
/home/nbshenxm/optee-project/rpi3/optee_os/lib/libutee/tee_api.c:239
     a54:	910073e0 	add	x0, sp, #0x1c
     a58:	97fffdf2 	bl	220 <utee_get_cancellation_flag>
/home/nbshenxm/optee-project/rpi3/optee_os/lib/libutee/tee_api.c:241
     a5c:	34000040 	cbz	w0, a64 <TEE_GetCancellationFlag+0x18>
/home/nbshenxm/optee-project/rpi3/optee_os/lib/libutee/tee_api.c:242
     a60:	b9001fff 	str	wzr, [sp, #28]
/home/nbshenxm/optee-project/rpi3/optee_os/lib/libutee/tee_api.c:243
     a64:	b9401fe0 	ldr	w0, [sp, #28]
/home/nbshenxm/optee-project/rpi3/optee_os/lib/libutee/tee_api.c:244
     a68:	a8c27bfd 	ldp	x29, x30, [sp], #32
/home/nbshenxm/optee-project/rpi3/optee_os/lib/libutee/tee_api.c:243
     a6c:	7100001f 	cmp	w0, #0x0
/home/nbshenxm/optee-project/rpi3/optee_os/lib/libutee/tee_api.c:244
     a70:	1a9f07e0 	cset	w0, ne  // ne = any
     a74:	d65f03c0 	ret

0000000000000a78 <TEE_UnmaskCancellation>:
TEE_UnmaskCancellation():
/home/nbshenxm/optee-project/rpi3/optee_os/lib/libutee/tee_api.c:247
     a78:	a9be7bfd 	stp	x29, x30, [sp, #-32]!
     a7c:	910003fd 	mov	x29, sp
/home/nbshenxm/optee-project/rpi3/optee_os/lib/libutee/tee_api.c:249
     a80:	910073e0 	add	x0, sp, #0x1c
     a84:	97fffded 	bl	238 <utee_unmask_cancellation>
/home/nbshenxm/optee-project/rpi3/optee_os/lib/libutee/tee_api.c:251
     a88:	34000040 	cbz	w0, a90 <TEE_UnmaskCancellation+0x18>
/home/nbshenxm/optee-project/rpi3/optee_os/lib/libutee/tee_api.c:252
     a8c:	940007d0 	bl	29cc <TEE_Panic>
/home/nbshenxm/optee-project/rpi3/optee_os/lib/libutee/tee_api.c:253
     a90:	b9401fe0 	ldr	w0, [sp, #28]
/home/nbshenxm/optee-project/rpi3/optee_os/lib/libutee/tee_api.c:254
     a94:	a8c27bfd 	ldp	x29, x30, [sp], #32
/home/nbshenxm/optee-project/rpi3/optee_os/lib/libutee/tee_api.c:253
     a98:	7100001f 	cmp	w0, #0x0
/home/nbshenxm/optee-project/rpi3/optee_os/lib/libutee/tee_api.c:254
     a9c:	1a9f07e0 	cset	w0, ne  // ne = any
     aa0:	d65f03c0 	ret

0000000000000aa4 <TEE_MaskCancellation>:
TEE_MaskCancellation():
/home/nbshenxm/optee-project/rpi3/optee_os/lib/libutee/tee_api.c:257
     aa4:	a9be7bfd 	stp	x29, x30, [sp, #-32]!
     aa8:	910003fd 	mov	x29, sp
/home/nbshenxm/optee-project/rpi3/optee_os/lib/libutee/tee_api.c:259
     aac:	910073e0 	add	x0, sp, #0x1c
     ab0:	97fffde5 	bl	244 <utee_mask_cancellation>
/home/nbshenxm/optee-project/rpi3/optee_os/lib/libutee/tee_api.c:261
     ab4:	34000040 	cbz	w0, abc <TEE_MaskCancellation+0x18>
/home/nbshenxm/optee-project/rpi3/optee_os/lib/libutee/tee_api.c:262
     ab8:	940007c5 	bl	29cc <TEE_Panic>
/home/nbshenxm/optee-project/rpi3/optee_os/lib/libutee/tee_api.c:263
     abc:	b9401fe0 	ldr	w0, [sp, #28]
/home/nbshenxm/optee-project/rpi3/optee_os/lib/libutee/tee_api.c:264
     ac0:	a8c27bfd 	ldp	x29, x30, [sp], #32
/home/nbshenxm/optee-project/rpi3/optee_os/lib/libutee/tee_api.c:263
     ac4:	7100001f 	cmp	w0, #0x0
/home/nbshenxm/optee-project/rpi3/optee_os/lib/libutee/tee_api.c:264
     ac8:	1a9f07e0 	cset	w0, ne  // ne = any
     acc:	d65f03c0 	ret

0000000000000ad0 <TEE_CheckMemoryAccessRights>:
TEE_CheckMemoryAccessRights():
/home/nbshenxm/optee-project/rpi3/optee_os/lib/libutee/tee_api.c:273
     ad0:	34000062 	cbz	w2, adc <TEE_CheckMemoryAccessRights+0xc>
/home/nbshenxm/optee-project/rpi3/optee_os/lib/libutee/tee_api.c:277
     ad4:	2a0203e2 	mov	w2, w2
     ad8:	17fffdd5 	b	22c <utee_check_access_rights>
/home/nbshenxm/optee-project/rpi3/optee_os/lib/libutee/tee_api.c:289
     adc:	52800000 	mov	w0, #0x0                   	// #0
     ae0:	d65f03c0 	ret

0000000000000ae4 <copy_param.constprop.1>:
copy_param():
/home/nbshenxm/optee-project/rpi3/optee_os/lib/libutee/tee_api.c:19
     ae4:	a9b87bfd 	stp	x29, x30, [sp, #-128]!
     ae8:	910003fd 	mov	x29, sp
     aec:	a9046bf9 	stp	x25, x26, [sp, #64]
     af0:	aa0303f9 	mov	x25, x3
/home/nbshenxm/optee-project/rpi3/optee_os/lib/libutee/tee_api.c:60
     af4:	9101e3e3 	add	x3, sp, #0x78
/home/nbshenxm/optee-project/rpi3/optee_os/lib/libutee/tee_api.c:19
     af8:	a90363f7 	stp	x23, x24, [sp, #48]
     afc:	aa0403f8 	mov	x24, x4
     b00:	aa0503f7 	mov	x23, x5
     b04:	a90153f3 	stp	x19, x20, [sp, #16]
     b08:	aa0003f3 	mov	x19, x0
     b0c:	aa0203f4 	mov	x20, x2
     b10:	a9025bf5 	stp	x21, x22, [sp, #32]
     b14:	2a0103f6 	mov	w22, w1
/home/nbshenxm/optee-project/rpi3/optee_os/lib/libutee/tee_api.c:41
     b18:	d2800015 	mov	x21, #0x0                   	// #0
/home/nbshenxm/optee-project/rpi3/optee_os/lib/libutee/tee_api.c:19
     b1c:	a90573fb 	stp	x27, x28, [sp, #80]
/home/nbshenxm/optee-project/rpi3/optee_os/lib/libutee/tee_api.c:48
     b20:	9100205c 	add	x28, x2, #0x8
/home/nbshenxm/optee-project/rpi3/optee_os/lib/libutee/tee_api.c:26
     b24:	d280001b 	mov	x27, #0x0                   	// #0
/home/nbshenxm/optee-project/rpi3/optee_os/lib/libutee/tee_api.c:39
     b28:	f900033f 	str	xzr, [x25]
/home/nbshenxm/optee-project/rpi3/optee_os/lib/libutee/tee_api.c:60
     b2c:	52800024 	mov	w4, #0x1                   	// #1
/home/nbshenxm/optee-project/rpi3/optee_os/lib/libutee/tee_api.c:40
     b30:	f900031f 	str	xzr, [x24]
/home/nbshenxm/optee-project/rpi3/optee_os/lib/libutee/tee_api.c:28
     b34:	b9007bff 	str	wzr, [sp, #120]
/home/nbshenxm/optee-project/rpi3/optee_os/lib/libutee/tee_api.c:43
     b38:	531e76a0 	lsl	w0, w21, #2
/home/nbshenxm/optee-project/rpi3/optee_os/lib/libutee/tee_api.c:42
     b3c:	f8357aff 	str	xzr, [x23, x21, lsl #3]
/home/nbshenxm/optee-project/rpi3/optee_os/lib/libutee/tee_api.c:43
     b40:	1ac026c0 	lsr	w0, w22, w0
     b44:	12000c00 	and	w0, w0, #0xf
     b48:	51001400 	sub	w0, w0, #0x5
     b4c:	7100081f 	cmp	w0, #0x2
     b50:	54000268 	b.hi	b9c <copy_param.constprop.1+0xb8>  // b.pmore
/home/nbshenxm/optee-project/rpi3/optee_os/lib/libutee/tee_api.c:47
     b54:	d37ceea0 	lsl	x0, x21, #4
/home/nbshenxm/optee-project/rpi3/optee_os/lib/libutee/tee_api.c:48
     b58:	b8606b82 	ldr	w2, [x28, x0]
/home/nbshenxm/optee-project/rpi3/optee_os/lib/libutee/tee_api.c:47
     b5c:	f8606a81 	ldr	x1, [x20, x0]
/home/nbshenxm/optee-project/rpi3/optee_os/lib/libutee/tee_api.c:48
     b60:	2a0203fa 	mov	w26, w2
/home/nbshenxm/optee-project/rpi3/optee_os/lib/libutee/tee_api.c:58
     b64:	f100003f 	cmp	x1, #0x0
     b68:	fa401b44 	ccmp	x26, #0x0, #0x4, ne  // ne = any
     b6c:	54000180 	b.eq	b9c <copy_param.constprop.1+0xb8>  // b.none
/home/nbshenxm/optee-project/rpi3/optee_os/lib/libutee/tee_api.c:59
     b70:	52800020 	mov	w0, #0x1                   	// #1
     b74:	f90033e3 	str	x3, [sp, #96]
     b78:	b9006fe4 	str	w4, [sp, #108]
     b7c:	97ffffd5 	bl	ad0 <TEE_CheckMemoryAccessRights>
/home/nbshenxm/optee-project/rpi3/optee_os/lib/libutee/tee_api.c:58
     b80:	b9406fe4 	ldr	w4, [sp, #108]
     b84:	f94033e3 	ldr	x3, [sp, #96]
     b88:	350000a0 	cbnz	w0, b9c <copy_param.constprop.1+0xb8>
/home/nbshenxm/optee-project/rpi3/optee_os/lib/libutee/tee_api.c:61
     b8c:	91003f5a 	add	x26, x26, #0xf
/home/nbshenxm/optee-project/rpi3/optee_os/lib/libutee/tee_api.c:60
     b90:	38236aa4 	strb	w4, [x21, x3]
/home/nbshenxm/optee-project/rpi3/optee_os/lib/libutee/tee_api.c:61
     b94:	927cef5a 	and	x26, x26, #0xfffffffffffffff0
     b98:	8b1a037b 	add	x27, x27, x26
/home/nbshenxm/optee-project/rpi3/optee_os/lib/libutee/tee_api.c:41
     b9c:	910006b5 	add	x21, x21, #0x1
     ba0:	f10012bf 	cmp	x21, #0x4
     ba4:	54fffca1 	b.ne	b38 <copy_param.constprop.1+0x54>  // b.any
/home/nbshenxm/optee-project/rpi3/optee_os/lib/libutee/tee_api.c:69
     ba8:	b400031b 	cbz	x27, c08 <copy_param.constprop.1+0x124>
/home/nbshenxm/optee-project/rpi3/optee_os/lib/libutee/tee_api.c:70
     bac:	2a1503e1 	mov	w1, w21
     bb0:	aa1b03e0 	mov	x0, x27
     bb4:	940007aa 	bl	2a5c <tee_map_zi>
     bb8:	aa0003e3 	mov	x3, x0
/home/nbshenxm/optee-project/rpi3/optee_os/lib/libutee/tee_api.c:71
     bbc:	b4000780 	cbz	x0, cac <copy_param.constprop.1+0x1c8>
/home/nbshenxm/optee-project/rpi3/optee_os/lib/libutee/tee_api.c:73
     bc0:	f9000320 	str	x0, [x25]
/home/nbshenxm/optee-project/rpi3/optee_os/lib/libutee/tee_api.c:74
     bc4:	f900031b 	str	x27, [x24]
/home/nbshenxm/optee-project/rpi3/optee_os/lib/libutee/tee_api.c:79
     bc8:	d0000059 	adrp	x25, a000 <__text_end+0x1594>
/home/nbshenxm/optee-project/rpi3/optee_os/lib/libutee/tee_api.c:89
     bcc:	9101e3fb 	add	x27, sp, #0x78
/home/nbshenxm/optee-project/rpi3/optee_os/lib/libutee/tee_api.c:79
     bd0:	91167339 	add	x25, x25, #0x59c
/home/nbshenxm/optee-project/rpi3/optee_os/lib/libutee/tee_api.c:77
     bd4:	2a1603e0 	mov	w0, w22
/home/nbshenxm/optee-project/rpi3/optee_os/lib/libutee/tee_api.c:78
     bd8:	d2800015 	mov	x21, #0x0                   	// #0
/home/nbshenxm/optee-project/rpi3/optee_os/lib/libutee/tee_api.c:77
     bdc:	f8008660 	str	x0, [x19], #8
/home/nbshenxm/optee-project/rpi3/optee_os/lib/libutee/tee_api.c:79
     be0:	531e76a0 	lsl	w0, w21, #2
     be4:	1ac026c0 	lsr	w0, w22, w0
     be8:	12000c00 	and	w0, w0, #0xf
     bec:	51000401 	sub	w1, w0, #0x1
     bf0:	7100183f 	cmp	w1, #0x6
     bf4:	54000588 	b.hi	ca4 <copy_param.constprop.1+0x1c0>  // b.pmore
     bf8:	38614b21 	ldrb	w1, [x25, w1, uxtw]
     bfc:	10000062 	adr	x2, c08 <copy_param.constprop.1+0x124>
     c00:	8b218841 	add	x1, x2, w1, sxtb #2
     c04:	d61f0020 	br	x1
/home/nbshenxm/optee-project/rpi3/optee_os/lib/libutee/tee_api.c:25
     c08:	d2800003 	mov	x3, #0x0                   	// #0
     c0c:	17ffffef 	b	bc8 <copy_param.constprop.1+0xe4>
/home/nbshenxm/optee-project/rpi3/optee_os/lib/libutee/tee_api.c:82
     c10:	b9400280 	ldr	w0, [x20]
     c14:	f9000260 	str	x0, [x19]
/home/nbshenxm/optee-project/rpi3/optee_os/lib/libutee/tee_api.c:83
     c18:	b9400680 	ldr	w0, [x20, #4]
     c1c:	f9000660 	str	x0, [x19, #8]
/home/nbshenxm/optee-project/rpi3/optee_os/lib/libutee/tee_api.c:78
     c20:	910006b5 	add	x21, x21, #0x1
     c24:	91004294 	add	x20, x20, #0x10
     c28:	91004273 	add	x19, x19, #0x10
     c2c:	f10012bf 	cmp	x21, #0x4
     c30:	54fffd81 	b.ne	be0 <copy_param.constprop.1+0xfc>  // b.any
/home/nbshenxm/optee-project/rpi3/optee_os/lib/libutee/tee_api.c:109
     c34:	52800000 	mov	w0, #0x0                   	// #0
/home/nbshenxm/optee-project/rpi3/optee_os/lib/libutee/tee_api.c:110
     c38:	a94153f3 	ldp	x19, x20, [sp, #16]
     c3c:	a9425bf5 	ldp	x21, x22, [sp, #32]
     c40:	a94363f7 	ldp	x23, x24, [sp, #48]
     c44:	a9446bf9 	ldp	x25, x26, [sp, #64]
     c48:	a94573fb 	ldp	x27, x28, [sp, #80]
     c4c:	a8c87bfd 	ldp	x29, x30, [sp], #128
     c50:	d65f03c0 	ret
/home/nbshenxm/optee-project/rpi3/optee_os/lib/libutee/tee_api.c:89
     c54:	387b6aa1 	ldrb	w1, [x21, x27]
/home/nbshenxm/optee-project/rpi3/optee_os/lib/libutee/tee_api.c:88
     c58:	b9400a9a 	ldr	w26, [x20, #8]
/home/nbshenxm/optee-project/rpi3/optee_os/lib/libutee/tee_api.c:89
     c5c:	340001e1 	cbz	w1, c98 <copy_param.constprop.1+0x1b4>
/home/nbshenxm/optee-project/rpi3/optee_os/lib/libutee/tee_api.c:92
     c60:	91003f58 	add	x24, x26, #0xf
/home/nbshenxm/optee-project/rpi3/optee_os/lib/libutee/tee_api.c:91
     c64:	f8357ae3 	str	x3, [x23, x21, lsl #3]
/home/nbshenxm/optee-project/rpi3/optee_os/lib/libutee/tee_api.c:92
     c68:	927cef18 	and	x24, x24, #0xfffffffffffffff0
/home/nbshenxm/optee-project/rpi3/optee_os/lib/libutee/tee_api.c:93
     c6c:	7100181f 	cmp	w0, #0x6
/home/nbshenxm/optee-project/rpi3/optee_os/lib/libutee/tee_api.c:92
     c70:	8b180078 	add	x24, x3, x24
/home/nbshenxm/optee-project/rpi3/optee_os/lib/libutee/tee_api.c:93
     c74:	540000c0 	b.eq	c8c <copy_param.constprop.1+0x1a8>  // b.none
/home/nbshenxm/optee-project/rpi3/optee_os/lib/libutee/tee_api.c:95
     c78:	f9400281 	ldr	x1, [x20]
     c7c:	aa0303e0 	mov	x0, x3
     c80:	aa1a03e2 	mov	x2, x26
     c84:	97fffce7 	bl	20 <memcpy>
     c88:	aa0003e3 	mov	x3, x0
/home/nbshenxm/optee-project/rpi3/optee_os/lib/libutee/tee_api.c:100
     c8c:	a9006a63 	stp	x3, x26, [x19]
     c90:	aa1803e3 	mov	x3, x24
     c94:	17ffffe3 	b	c20 <copy_param.constprop.1+0x13c>
/home/nbshenxm/optee-project/rpi3/optee_os/lib/libutee/tee_api.c:97
     c98:	aa0303f8 	mov	x24, x3
     c9c:	f9400283 	ldr	x3, [x20]
     ca0:	17fffffb 	b	c8c <copy_param.constprop.1+0x1a8>
/home/nbshenxm/optee-project/rpi3/optee_os/lib/libutee/tee_api.c:104
     ca4:	a9007e7f 	stp	xzr, xzr, [x19]
/home/nbshenxm/optee-project/rpi3/optee_os/lib/libutee/tee_api.c:105
     ca8:	17ffffde 	b	c20 <copy_param.constprop.1+0x13c>
/home/nbshenxm/optee-project/rpi3/optee_os/lib/libutee/tee_api.c:72
     cac:	129ffe60 	mov	w0, #0xffff000c            	// #-65524
     cb0:	17ffffe2 	b	c38 <copy_param.constprop.1+0x154>

0000000000000cb4 <TEE_InvokeTACommand>:
TEE_InvokeTACommand():
/home/nbshenxm/optee-project/rpi3/optee_os/lib/libutee/tee_api.c:197
     cb4:	a9b37bfd 	stp	x29, x30, [sp, #-208]!
     cb8:	910003fd 	mov	x29, sp
     cbc:	a90153f3 	stp	x19, x20, [sp, #16]
/home/nbshenxm/optee-project/rpi3/optee_os/lib/libutee/tee_api.c:205
     cc0:	910223f4 	add	x20, sp, #0x88
/home/nbshenxm/optee-project/rpi3/optee_os/lib/libutee/tee_api.c:197
     cc4:	a9025bf5 	stp	x21, x22, [sp, #32]
     cc8:	aa0403f6 	mov	x22, x4
     ccc:	aa0503f5 	mov	x21, x5
     cd0:	a90363f7 	stp	x23, x24, [sp, #48]
     cd4:	aa0003f8 	mov	x24, x0
/home/nbshenxm/optee-project/rpi3/optee_os/lib/libutee/tee_api.c:205
     cd8:	9101a3f7 	add	x23, sp, #0x68
/home/nbshenxm/optee-project/rpi3/optee_os/lib/libutee/tee_api.c:199
     cdc:	52800060 	mov	w0, #0x3                   	// #3
/home/nbshenxm/optee-project/rpi3/optee_os/lib/libutee/tee_api.c:205
     ce0:	aa1703e5 	mov	x5, x23
     ce4:	910183e4 	add	x4, sp, #0x60
/home/nbshenxm/optee-project/rpi3/optee_os/lib/libutee/tee_api.c:197
     ce8:	a9046bf9 	stp	x25, x26, [sp, #64]
     cec:	2a0103f9 	mov	w25, w1
     cf0:	2a0203fa 	mov	w26, w2
     cf4:	2a0303e1 	mov	w1, w3
/home/nbshenxm/optee-project/rpi3/optee_os/lib/libutee/tee_api.c:205
     cf8:	aa1603e2 	mov	x2, x22
     cfc:	910163e3 	add	x3, sp, #0x58
/home/nbshenxm/optee-project/rpi3/optee_os/lib/libutee/tee_api.c:199
     d00:	b90057e0 	str	w0, [sp, #84]
/home/nbshenxm/optee-project/rpi3/optee_os/lib/libutee/tee_api.c:205
     d04:	aa1403e0 	mov	x0, x20
/home/nbshenxm/optee-project/rpi3/optee_os/lib/libutee/tee_api.c:202
     d08:	a905ffff 	stp	xzr, xzr, [sp, #88]
/home/nbshenxm/optee-project/rpi3/optee_os/lib/libutee/tee_api.c:203
     d0c:	a906ffff 	stp	xzr, xzr, [sp, #104]
     d10:	a907ffff 	stp	xzr, xzr, [sp, #120]
/home/nbshenxm/optee-project/rpi3/optee_os/lib/libutee/tee_api.c:205
     d14:	97ffff74 	bl	ae4 <copy_param.constprop.1>
     d18:	2a0003f3 	mov	w19, w0
/home/nbshenxm/optee-project/rpi3/optee_os/lib/libutee/tee_api.c:206
     d1c:	35000240 	cbnz	w0, d64 <TEE_InvokeTACommand+0xb0>
/home/nbshenxm/optee-project/rpi3/optee_os/lib/libutee/tee_api.c:208
     d20:	910153e4 	add	x4, sp, #0x54
     d24:	aa1403e3 	mov	x3, x20
     d28:	2a1a03e2 	mov	w2, w26
     d2c:	2a1903e1 	mov	w1, w25
     d30:	aa1803e0 	mov	x0, x24
     d34:	97fffd38 	bl	214 <utee_invoke_ta_command>
/home/nbshenxm/optee-project/rpi3/optee_os/lib/libutee/tee_api.c:211
     d38:	aa1403e2 	mov	x2, x20
/home/nbshenxm/optee-project/rpi3/optee_os/lib/libutee/tee_api.c:208
     d3c:	2a0003f3 	mov	w19, w0
/home/nbshenxm/optee-project/rpi3/optee_os/lib/libutee/tee_api.c:211
     d40:	aa1703e1 	mov	x1, x23
     d44:	aa1603e0 	mov	x0, x22
     d48:	97ffff09 	bl	96c <update_out_param>
/home/nbshenxm/optee-project/rpi3/optee_os/lib/libutee/tee_api.c:212
     d4c:	f9402fe0 	ldr	x0, [sp, #88]
     d50:	b40000a0 	cbz	x0, d64 <TEE_InvokeTACommand+0xb0>
/home/nbshenxm/optee-project/rpi3/optee_os/lib/libutee/tee_api.c:213
     d54:	f94033e1 	ldr	x1, [sp, #96]
     d58:	9400075e 	bl	2ad0 <tee_unmap>
/home/nbshenxm/optee-project/rpi3/optee_os/lib/libutee/tee_api.c:215
     d5c:	34000040 	cbz	w0, d64 <TEE_InvokeTACommand+0xb0>
/home/nbshenxm/optee-project/rpi3/optee_os/lib/libutee/tee_api.c:216
     d60:	9400071b 	bl	29cc <TEE_Panic>
/home/nbshenxm/optee-project/rpi3/optee_os/lib/libutee/tee_api.c:220
     d64:	b94057e0 	ldr	w0, [sp, #84]
     d68:	b4000055 	cbz	x21, d70 <TEE_InvokeTACommand+0xbc>
/home/nbshenxm/optee-project/rpi3/optee_os/lib/libutee/tee_api.c:221
     d6c:	b90002a0 	str	w0, [x21]
/home/nbshenxm/optee-project/rpi3/optee_os/lib/libutee/tee_api.c:223
     d70:	7100101f 	cmp	w0, #0x4
     d74:	54000140 	b.eq	d9c <TEE_InvokeTACommand+0xe8>  // b.none
/home/nbshenxm/optee-project/rpi3/optee_os/lib/libutee/tee_api.c:226
     d78:	7100027f 	cmp	w19, #0x0
     d7c:	129ffe60 	mov	w0, #0xffff000c            	// #-65524
     d80:	7a401264 	ccmp	w19, w0, #0x4, ne  // ne = any
     d84:	540000c0 	b.eq	d9c <TEE_InvokeTACommand+0xe8>  // b.none
/home/nbshenxm/optee-project/rpi3/optee_os/lib/libutee/tee_api.c:227
     d88:	1299fb60 	mov	w0, #0xffff3024            	// #-53212
     d8c:	6b00027f 	cmp	w19, w0
     d90:	54000060 	b.eq	d9c <TEE_InvokeTACommand+0xe8>  // b.none
/home/nbshenxm/optee-project/rpi3/optee_os/lib/libutee/tee_api.c:229
     d94:	2a1303e0 	mov	w0, w19
     d98:	9400070d 	bl	29cc <TEE_Panic>
/home/nbshenxm/optee-project/rpi3/optee_os/lib/libutee/tee_api.c:232
     d9c:	2a1303e0 	mov	w0, w19
     da0:	a94153f3 	ldp	x19, x20, [sp, #16]
     da4:	a9425bf5 	ldp	x21, x22, [sp, #32]
     da8:	a94363f7 	ldp	x23, x24, [sp, #48]
     dac:	a9446bf9 	ldp	x25, x26, [sp, #64]
     db0:	a8cd7bfd 	ldp	x29, x30, [sp], #208
     db4:	d65f03c0 	ret

0000000000000db8 <TEE_OpenTASession>:
TEE_OpenTASession():
/home/nbshenxm/optee-project/rpi3/optee_os/lib/libutee/tee_api.c:148
     db8:	a9b37bfd 	stp	x29, x30, [sp, #-208]!
     dbc:	910003fd 	mov	x29, sp
     dc0:	a90153f3 	stp	x19, x20, [sp, #16]
/home/nbshenxm/optee-project/rpi3/optee_os/lib/libutee/tee_api.c:156
     dc4:	910223f4 	add	x20, sp, #0x88
/home/nbshenxm/optee-project/rpi3/optee_os/lib/libutee/tee_api.c:148
     dc8:	a9025bf5 	stp	x21, x22, [sp, #32]
     dcc:	aa0303f5 	mov	x21, x3
/home/nbshenxm/optee-project/rpi3/optee_os/lib/libutee/tee_api.c:156
     dd0:	9101a3f6 	add	x22, sp, #0x68
     dd4:	910163e3 	add	x3, sp, #0x58
/home/nbshenxm/optee-project/rpi3/optee_os/lib/libutee/tee_api.c:148
     dd8:	a90363f7 	stp	x23, x24, [sp, #48]
     ddc:	aa0003f8 	mov	x24, x0
     de0:	aa0403f7 	mov	x23, x4
/home/nbshenxm/optee-project/rpi3/optee_os/lib/libutee/tee_api.c:156
     de4:	aa1403e0 	mov	x0, x20
     de8:	910183e4 	add	x4, sp, #0x60
/home/nbshenxm/optee-project/rpi3/optee_os/lib/libutee/tee_api.c:148
     dec:	a9046bf9 	stp	x25, x26, [sp, #64]
     df0:	2a0103f9 	mov	w25, w1
     df4:	aa0503fa 	mov	x26, x5
     df8:	2a0203e1 	mov	w1, w2
/home/nbshenxm/optee-project/rpi3/optee_os/lib/libutee/tee_api.c:156
     dfc:	aa1603e5 	mov	x5, x22
     e00:	aa1503e2 	mov	x2, x21
/home/nbshenxm/optee-project/rpi3/optee_os/lib/libutee/tee_api.c:151
     e04:	b90057ff 	str	wzr, [sp, #84]
/home/nbshenxm/optee-project/rpi3/optee_os/lib/libutee/tee_api.c:153
     e08:	a905ffff 	stp	xzr, xzr, [sp, #88]
/home/nbshenxm/optee-project/rpi3/optee_os/lib/libutee/tee_api.c:154
     e0c:	a906ffff 	stp	xzr, xzr, [sp, #104]
     e10:	a907ffff 	stp	xzr, xzr, [sp, #120]
/home/nbshenxm/optee-project/rpi3/optee_os/lib/libutee/tee_api.c:156
     e14:	97ffff34 	bl	ae4 <copy_param.constprop.1>
/home/nbshenxm/optee-project/rpi3/optee_os/lib/libutee/tee_api.c:157
     e18:	350003a0 	cbnz	w0, e8c <TEE_OpenTASession+0xd4>
/home/nbshenxm/optee-project/rpi3/optee_os/lib/libutee/tee_api.c:159
     e1c:	aa1a03e4 	mov	x4, x26
     e20:	910153e3 	add	x3, sp, #0x54
     e24:	aa1403e2 	mov	x2, x20
     e28:	2a1903e1 	mov	w1, w25
     e2c:	aa1803e0 	mov	x0, x24
     e30:	97fffcf3 	bl	1fc <utee_open_ta_session>
/home/nbshenxm/optee-project/rpi3/optee_os/lib/libutee/tee_api.c:161
     e34:	aa1403e2 	mov	x2, x20
/home/nbshenxm/optee-project/rpi3/optee_os/lib/libutee/tee_api.c:159
     e38:	2a0003f3 	mov	w19, w0
/home/nbshenxm/optee-project/rpi3/optee_os/lib/libutee/tee_api.c:161
     e3c:	aa1603e1 	mov	x1, x22
     e40:	aa1503e0 	mov	x0, x21
     e44:	97fffeca 	bl	96c <update_out_param>
/home/nbshenxm/optee-project/rpi3/optee_os/lib/libutee/tee_api.c:162
     e48:	f9402fe0 	ldr	x0, [sp, #88]
     e4c:	b40000a0 	cbz	x0, e60 <TEE_OpenTASession+0xa8>
/home/nbshenxm/optee-project/rpi3/optee_os/lib/libutee/tee_api.c:163
     e50:	f94033e1 	ldr	x1, [sp, #96]
     e54:	9400071f 	bl	2ad0 <tee_unmap>
/home/nbshenxm/optee-project/rpi3/optee_os/lib/libutee/tee_api.c:165
     e58:	34000040 	cbz	w0, e60 <TEE_OpenTASession+0xa8>
/home/nbshenxm/optee-project/rpi3/optee_os/lib/libutee/tee_api.c:166
     e5c:	940006dc 	bl	29cc <TEE_Panic>
/home/nbshenxm/optee-project/rpi3/optee_os/lib/libutee/tee_api.c:175
     e60:	34000053 	cbz	w19, e68 <TEE_OpenTASession+0xb0>
/home/nbshenxm/optee-project/rpi3/optee_os/lib/libutee/tee_api.c:176
     e64:	b90057ff 	str	wzr, [sp, #84]
/home/nbshenxm/optee-project/rpi3/optee_os/lib/libutee/tee_api.c:178
     e68:	b94057e0 	ldr	w0, [sp, #84]
/home/nbshenxm/optee-project/rpi3/optee_os/lib/libutee/tee_api.c:180
     e6c:	a9425bf5 	ldp	x21, x22, [sp, #32]
     e70:	a9446bf9 	ldp	x25, x26, [sp, #64]
/home/nbshenxm/optee-project/rpi3/optee_os/lib/libutee/tee_api.c:178
     e74:	f90002e0 	str	x0, [x23]
/home/nbshenxm/optee-project/rpi3/optee_os/lib/libutee/tee_api.c:180
     e78:	2a1303e0 	mov	w0, w19
     e7c:	a94153f3 	ldp	x19, x20, [sp, #16]
     e80:	a94363f7 	ldp	x23, x24, [sp, #48]
     e84:	a8cd7bfd 	ldp	x29, x30, [sp], #208
     e88:	d65f03c0 	ret
     e8c:	2a0003f3 	mov	w19, w0
     e90:	17fffff5 	b	e64 <TEE_OpenTASession+0xac>

0000000000000e94 <TEE_SetInstanceData>:
TEE_SetInstanceData():
/home/nbshenxm/optee-project/rpi3/optee_os/lib/libutee/tee_api.c:293
     e94:	90000061 	adrp	x1, c000 <_DYNAMIC>
     e98:	f9025020 	str	x0, [x1, #1184]
/home/nbshenxm/optee-project/rpi3/optee_os/lib/libutee/tee_api.c:294
     e9c:	d65f03c0 	ret

0000000000000ea0 <TEE_GetInstanceData>:
TEE_GetInstanceData():
/home/nbshenxm/optee-project/rpi3/optee_os/lib/libutee/tee_api.c:299
     ea0:	90000060 	adrp	x0, c000 <_DYNAMIC>
     ea4:	f9425000 	ldr	x0, [x0, #1184]
     ea8:	d65f03c0 	ret

0000000000000eac <TEE_MemMove>:
TEE_MemMove():
/home/nbshenxm/optee-project/rpi3/optee_os/lib/libutee/tee_api.c:303
     eac:	2a0203e2 	mov	w2, w2
     eb0:	14001a40 	b	77b0 <memmove>

0000000000000eb4 <TEE_MemCompare>:
TEE_MemCompare():
/home/nbshenxm/optee-project/rpi3/optee_os/lib/libutee/tee_api.c:308
     eb4:	2a0203e2 	mov	w2, w2
     eb8:	14001eb0 	b	8978 <consttime_memcmp>

0000000000000ebc <TEE_MemFill>:
TEE_MemFill():
/home/nbshenxm/optee-project/rpi3/optee_os/lib/libutee/tee_api.c:313
     ebc:	2a0203e2 	mov	w2, w2
     ec0:	14001a53 	b	780c <memset>

0000000000000ec4 <TEE_GetSystemTime>:
TEE_GetSystemTime():
/home/nbshenxm/optee-project/rpi3/optee_os/lib/libutee/tee_api.c:319
     ec4:	a9bf7bfd 	stp	x29, x30, [sp, #-16]!
/home/nbshenxm/optee-project/rpi3/optee_os/lib/libutee/tee_api.c:320
     ec8:	aa0003e1 	mov	x1, x0
     ecc:	d2800000 	mov	x0, #0x0                   	// #0
/home/nbshenxm/optee-project/rpi3/optee_os/lib/libutee/tee_api.c:319
     ed0:	910003fd 	mov	x29, sp
/home/nbshenxm/optee-project/rpi3/optee_os/lib/libutee/tee_api.c:320
     ed4:	97fffce2 	bl	25c <utee_get_time>
/home/nbshenxm/optee-project/rpi3/optee_os/lib/libutee/tee_api.c:322
     ed8:	34000060 	cbz	w0, ee4 <TEE_GetSystemTime+0x20>
/home/nbshenxm/optee-project/rpi3/optee_os/lib/libutee/tee_api.c:324
     edc:	a8c17bfd 	ldp	x29, x30, [sp], #16
/home/nbshenxm/optee-project/rpi3/optee_os/lib/libutee/tee_api.c:323
     ee0:	140006bb 	b	29cc <TEE_Panic>
/home/nbshenxm/optee-project/rpi3/optee_os/lib/libutee/tee_api.c:324
     ee4:	a8c17bfd 	ldp	x29, x30, [sp], #16
     ee8:	d65f03c0 	ret

0000000000000eec <TEE_Wait>:
TEE_Wait():
/home/nbshenxm/optee-project/rpi3/optee_os/lib/libutee/tee_api.c:327
     eec:	a9be7bfd 	stp	x29, x30, [sp, #-32]!
/home/nbshenxm/optee-project/rpi3/optee_os/lib/libutee/tee_api.c:328
     ef0:	2a0003e0 	mov	w0, w0
/home/nbshenxm/optee-project/rpi3/optee_os/lib/libutee/tee_api.c:327
     ef4:	910003fd 	mov	x29, sp
     ef8:	f9000bf3 	str	x19, [sp, #16]
/home/nbshenxm/optee-project/rpi3/optee_os/lib/libutee/tee_api.c:328
     efc:	97fffcd5 	bl	250 <utee_wait>
/home/nbshenxm/optee-project/rpi3/optee_os/lib/libutee/tee_api.c:330
     f00:	7100001f 	cmp	w0, #0x0
     f04:	129fffa1 	mov	w1, #0xffff0002            	// #-65534
/home/nbshenxm/optee-project/rpi3/optee_os/lib/libutee/tee_api.c:328
     f08:	2a0003f3 	mov	w19, w0
/home/nbshenxm/optee-project/rpi3/optee_os/lib/libutee/tee_api.c:330
     f0c:	7a411004 	ccmp	w0, w1, #0x4, ne  // ne = any
     f10:	54000040 	b.eq	f18 <TEE_Wait+0x2c>  // b.none
/home/nbshenxm/optee-project/rpi3/optee_os/lib/libutee/tee_api.c:331
     f14:	940006ae 	bl	29cc <TEE_Panic>
/home/nbshenxm/optee-project/rpi3/optee_os/lib/libutee/tee_api.c:334
     f18:	2a1303e0 	mov	w0, w19
     f1c:	f9400bf3 	ldr	x19, [sp, #16]
     f20:	a8c27bfd 	ldp	x29, x30, [sp], #32
     f24:	d65f03c0 	ret

0000000000000f28 <TEE_GetTAPersistentTime>:
TEE_GetTAPersistentTime():
/home/nbshenxm/optee-project/rpi3/optee_os/lib/libutee/tee_api.c:337
     f28:	a9be7bfd 	stp	x29, x30, [sp, #-32]!
/home/nbshenxm/optee-project/rpi3/optee_os/lib/libutee/tee_api.c:340
     f2c:	aa0003e1 	mov	x1, x0
/home/nbshenxm/optee-project/rpi3/optee_os/lib/libutee/tee_api.c:337
     f30:	910003fd 	mov	x29, sp
     f34:	a90153f3 	stp	x19, x20, [sp, #16]
     f38:	aa0003f4 	mov	x20, x0
/home/nbshenxm/optee-project/rpi3/optee_os/lib/libutee/tee_api.c:340
     f3c:	d2800020 	mov	x0, #0x1                   	// #1
     f40:	97fffcc7 	bl	25c <utee_get_time>
/home/nbshenxm/optee-project/rpi3/optee_os/lib/libutee/tee_api.c:342
     f44:	7100001f 	cmp	w0, #0x0
/home/nbshenxm/optee-project/rpi3/optee_os/lib/libutee/tee_api.c:340
     f48:	2a0003f3 	mov	w19, w0
/home/nbshenxm/optee-project/rpi3/optee_os/lib/libutee/tee_api.c:342
     f4c:	1a9f07e2 	cset	w2, ne  // ne = any
     f50:	1299fe00 	mov	w0, #0xffff300f            	// #-53233
     f54:	6b00027f 	cmp	w19, w0
     f58:	1a9f1041 	csel	w1, w2, wzr, ne  // ne = any
     f5c:	34000041 	cbz	w1, f64 <TEE_GetTAPersistentTime+0x3c>
/home/nbshenxm/optee-project/rpi3/optee_os/lib/libutee/tee_api.c:344
     f60:	29007e9f 	stp	wzr, wzr, [x20]
/home/nbshenxm/optee-project/rpi3/optee_os/lib/libutee/tee_api.c:348
     f64:	11402e60 	add	w0, w19, #0xb, lsl #12
/home/nbshenxm/optee-project/rpi3/optee_os/lib/libutee/tee_api.c:347
     f68:	7100005f 	cmp	w2, #0x0
     f6c:	7a411800 	ccmp	w0, #0x1, #0x0, ne  // ne = any
     f70:	540000e9 	b.ls	f8c <TEE_GetTAPersistentTime+0x64>  // b.plast
/home/nbshenxm/optee-project/rpi3/optee_os/lib/libutee/tee_api.c:349
     f74:	340000c1 	cbz	w1, f8c <TEE_GetTAPersistentTime+0x64>
/home/nbshenxm/optee-project/rpi3/optee_os/lib/libutee/tee_api.c:350
     f78:	129ffe60 	mov	w0, #0xffff000c            	// #-65524
     f7c:	6b00027f 	cmp	w19, w0
     f80:	54000060 	b.eq	f8c <TEE_GetTAPersistentTime+0x64>  // b.none
/home/nbshenxm/optee-project/rpi3/optee_os/lib/libutee/tee_api.c:352
     f84:	2a1303e0 	mov	w0, w19
     f88:	94000691 	bl	29cc <TEE_Panic>
/home/nbshenxm/optee-project/rpi3/optee_os/lib/libutee/tee_api.c:355
     f8c:	2a1303e0 	mov	w0, w19
     f90:	a94153f3 	ldp	x19, x20, [sp, #16]
     f94:	a8c27bfd 	ldp	x29, x30, [sp], #32
     f98:	d65f03c0 	ret

0000000000000f9c <TEE_SetTAPersistentTime>:
TEE_SetTAPersistentTime():
/home/nbshenxm/optee-project/rpi3/optee_os/lib/libutee/tee_api.c:358
     f9c:	a9be7bfd 	stp	x29, x30, [sp, #-32]!
     fa0:	910003fd 	mov	x29, sp
     fa4:	f9000bf3 	str	x19, [sp, #16]
/home/nbshenxm/optee-project/rpi3/optee_os/lib/libutee/tee_api.c:361
     fa8:	97fffcb0 	bl	268 <utee_set_ta_time>
/home/nbshenxm/optee-project/rpi3/optee_os/lib/libutee/tee_api.c:363
     fac:	7100001f 	cmp	w0, #0x0
     fb0:	129ffe61 	mov	w1, #0xffff000c            	// #-65524
/home/nbshenxm/optee-project/rpi3/optee_os/lib/libutee/tee_api.c:361
     fb4:	2a0003f3 	mov	w19, w0
/home/nbshenxm/optee-project/rpi3/optee_os/lib/libutee/tee_api.c:363
     fb8:	7a411004 	ccmp	w0, w1, #0x4, ne  // ne = any
     fbc:	540000a0 	b.eq	fd0 <TEE_SetTAPersistentTime+0x34>  // b.none
/home/nbshenxm/optee-project/rpi3/optee_os/lib/libutee/tee_api.c:364
     fc0:	1299f7c1 	mov	w1, #0xffff3041            	// #-53183
     fc4:	6b01001f 	cmp	w0, w1
     fc8:	54000040 	b.eq	fd0 <TEE_SetTAPersistentTime+0x34>  // b.none
/home/nbshenxm/optee-project/rpi3/optee_os/lib/libutee/tee_api.c:366
     fcc:	94000680 	bl	29cc <TEE_Panic>
/home/nbshenxm/optee-project/rpi3/optee_os/lib/libutee/tee_api.c:369
     fd0:	2a1303e0 	mov	w0, w19
     fd4:	f9400bf3 	ldr	x19, [sp, #16]
     fd8:	a8c27bfd 	ldp	x29, x30, [sp], #32
     fdc:	d65f03c0 	ret

0000000000000fe0 <TEE_GetREETime>:
TEE_GetREETime():
/home/nbshenxm/optee-project/rpi3/optee_os/lib/libutee/tee_api.c:372
     fe0:	a9bf7bfd 	stp	x29, x30, [sp, #-16]!
/home/nbshenxm/optee-project/rpi3/optee_os/lib/libutee/tee_api.c:373
     fe4:	aa0003e1 	mov	x1, x0
     fe8:	d2800040 	mov	x0, #0x2                   	// #2
/home/nbshenxm/optee-project/rpi3/optee_os/lib/libutee/tee_api.c:372
     fec:	910003fd 	mov	x29, sp
/home/nbshenxm/optee-project/rpi3/optee_os/lib/libutee/tee_api.c:373
     ff0:	97fffc9b 	bl	25c <utee_get_time>
/home/nbshenxm/optee-project/rpi3/optee_os/lib/libutee/tee_api.c:375
     ff4:	34000060 	cbz	w0, 1000 <TEE_GetREETime+0x20>
/home/nbshenxm/optee-project/rpi3/optee_os/lib/libutee/tee_api.c:377
     ff8:	a8c17bfd 	ldp	x29, x30, [sp], #16
/home/nbshenxm/optee-project/rpi3/optee_os/lib/libutee/tee_api.c:376
     ffc:	14000674 	b	29cc <TEE_Panic>
/home/nbshenxm/optee-project/rpi3/optee_os/lib/libutee/tee_api.c:377
    1000:	a8c17bfd 	ldp	x29, x30, [sp], #16
    1004:	d65f03c0 	ret

0000000000001008 <TEE_Malloc>:
TEE_Malloc():
/home/nbshenxm/optee-project/rpi3/optee_os/lib/libutee/tee_api.c:381
    1008:	35000081 	cbnz	w1, 1018 <TEE_Malloc+0x10>
/home/nbshenxm/optee-project/rpi3/optee_os/lib/libutee/tee_api.c:382
    100c:	2a0003e1 	mov	w1, w0
    1010:	d2800020 	mov	x0, #0x1                   	// #1
    1014:	140018b9 	b	72f8 <calloc>
/home/nbshenxm/optee-project/rpi3/optee_os/lib/libutee/tee_api.c:383
    1018:	52b00002 	mov	w2, #0x80000000            	// #-2147483648
    101c:	6b02003f 	cmp	w1, w2
    1020:	54000061 	b.ne	102c <TEE_Malloc+0x24>  // b.any
/home/nbshenxm/optee-project/rpi3/optee_os/lib/libutee/tee_api.c:384
    1024:	2a0003e0 	mov	w0, w0
    1028:	140018a0 	b	72a8 <malloc>
/home/nbshenxm/optee-project/rpi3/optee_os/lib/libutee/tee_api.c:380
    102c:	a9bf7bfd 	stp	x29, x30, [sp, #-16]!
    1030:	2a0103e5 	mov	w5, w1
/home/nbshenxm/optee-project/rpi3/optee_os/lib/libutee/tee_api.c:386
    1034:	52800023 	mov	w3, #0x1                   	// #1
/home/nbshenxm/optee-project/rpi3/optee_os/lib/libutee/tee_api.c:380
    1038:	910003fd 	mov	x29, sp
/home/nbshenxm/optee-project/rpi3/optee_os/lib/libutee/tee_api.c:386
    103c:	52800022 	mov	w2, #0x1                   	// #1
    1040:	52803041 	mov	w1, #0x182                 	// #386
    1044:	b0000044 	adrp	x4, a000 <__text_end+0x1594>
    1048:	b0000040 	adrp	x0, a000 <__text_end+0x1594>
    104c:	9126e084 	add	x4, x4, #0x9b8
    1050:	91168c00 	add	x0, x0, #0x5a3
    1054:	94001dc2 	bl	875c <trace_printf>
/home/nbshenxm/optee-project/rpi3/optee_os/lib/libutee/tee_api.c:389
    1058:	d2800000 	mov	x0, #0x0                   	// #0
    105c:	a8c17bfd 	ldp	x29, x30, [sp], #16
    1060:	d65f03c0 	ret

0000000000001064 <TEE_Realloc>:
TEE_Realloc():
/home/nbshenxm/optee-project/rpi3/optee_os/lib/libutee/tee_api.c:393
    1064:	2a0103e1 	mov	w1, w1
    1068:	140018bd 	b	735c <realloc>

000000000000106c <TEE_Free>:
TEE_Free():
/home/nbshenxm/optee-project/rpi3/optee_os/lib/libutee/tee_api.c:398
    106c:	140018d0 	b	73ac <free>

0000000000001070 <TEE_CacheClean>:
TEE_CacheClean():
/home/nbshenxm/optee-project/rpi3/optee_os/lib/libutee/tee_api.c:404
    1070:	d2800002 	mov	x2, #0x0                   	// #0
    1074:	17fffcf8 	b	454 <utee_cache_operation>

0000000000001078 <TEE_CacheFlush>:
TEE_CacheFlush():
/home/nbshenxm/optee-project/rpi3/optee_os/lib/libutee/tee_api.c:408
    1078:	d2800022 	mov	x2, #0x1                   	// #1
    107c:	17fffcf6 	b	454 <utee_cache_operation>

0000000000001080 <TEE_CacheInvalidate>:
TEE_CacheInvalidate():
/home/nbshenxm/optee-project/rpi3/optee_os/lib/libutee/tee_api.c:413
    1080:	d2800042 	mov	x2, #0x2                   	// #2
    1084:	17fffcf4 	b	454 <utee_cache_operation>

0000000000001088 <api_panic>:
api_panic():
/home/nbshenxm/optee-project/rpi3/optee_os/lib/libutee/tee_api_arith_mpi.c:19
    1088:	a9bf7bfd 	stp	x29, x30, [sp, #-16]!
/home/nbshenxm/optee-project/rpi3/optee_os/lib/libutee/tee_api_arith_mpi.c:20
    108c:	aa0203e3 	mov	x3, x2
    1090:	2a0103e2 	mov	w2, w1
    1094:	aa0003e1 	mov	x1, x0
/home/nbshenxm/optee-project/rpi3/optee_os/lib/libutee/tee_api_arith_mpi.c:19
    1098:	910003fd 	mov	x29, sp
/home/nbshenxm/optee-project/rpi3/optee_os/lib/libutee/tee_api_arith_mpi.c:20
    109c:	b0000040 	adrp	x0, a000 <__text_end+0x1594>
    10a0:	912c1800 	add	x0, x0, #0xb06
    10a4:	940006ba 	bl	2b8c <printf>
/home/nbshenxm/optee-project/rpi3/optee_os/lib/libutee/tee_api_arith_mpi.c:21
    10a8:	528c24e0 	mov	w0, #0x6127                	// #24871
    10ac:	72a01620 	movk	w0, #0xb1, lsl #16
    10b0:	94000647 	bl	29cc <TEE_Panic>
/home/nbshenxm/optee-project/rpi3/optee_os/lib/libutee/tee_api_arith_mpi.c:23 (discriminator 1)
    10b4:	14000000 	b	10b4 <api_panic+0x2c>

00000000000010b8 <mpi_panic>:
mpi_panic():
/home/nbshenxm/optee-project/rpi3/optee_os/lib/libutee/tee_api_arith_mpi.c:29
    10b8:	a9bf7bfd 	stp	x29, x30, [sp, #-16]!
/home/nbshenxm/optee-project/rpi3/optee_os/lib/libutee/tee_api_arith_mpi.c:30
    10bc:	2a0203e3 	mov	w3, w2
    10c0:	2a0103e2 	mov	w2, w1
    10c4:	aa0003e1 	mov	x1, x0
/home/nbshenxm/optee-project/rpi3/optee_os/lib/libutee/tee_api_arith_mpi.c:29
    10c8:	910003fd 	mov	x29, sp
/home/nbshenxm/optee-project/rpi3/optee_os/lib/libutee/tee_api_arith_mpi.c:30
    10cc:	b0000040 	adrp	x0, a000 <__text_end+0x1594>
    10d0:	912c9800 	add	x0, x0, #0xb26
    10d4:	940006ae 	bl	2b8c <printf>
/home/nbshenxm/optee-project/rpi3/optee_os/lib/libutee/tee_api_arith_mpi.c:31
    10d8:	528c24e0 	mov	w0, #0x6127                	// #24871
    10dc:	72a01620 	movk	w0, #0xb1, lsl #16
    10e0:	9400063b 	bl	29cc <TEE_Panic>
/home/nbshenxm/optee-project/rpi3/optee_os/lib/libutee/tee_api_arith_mpi.c:33 (discriminator 1)
    10e4:	14000000 	b	10e4 <mpi_panic+0x2c>

00000000000010e8 <get_mpi>:
get_mpi():
/home/nbshenxm/optee-project/rpi3/optee_os/lib/libutee/tee_api_arith_mpi.c:86
    10e8:	a9bd7bfd 	stp	x29, x30, [sp, #-48]!
    10ec:	910003fd 	mov	x29, sp
    10f0:	a90153f3 	stp	x19, x20, [sp, #16]
    10f4:	aa0103f4 	mov	x20, x1
    10f8:	a9025bf5 	stp	x21, x22, [sp, #32]
    10fc:	aa0003f5 	mov	x21, x0
/home/nbshenxm/optee-project/rpi3/optee_os/lib/libutee/tee_api_arith_mpi.c:101
    1100:	9400087b 	bl	32ec <mbedtls_mpi_init_mempool>
/home/nbshenxm/optee-project/rpi3/optee_os/lib/libutee/tee_api_arith_mpi.c:103
    1104:	b4000374 	cbz	x20, 1170 <get_mpi+0x88>
/home/nbshenxm/optee-project/rpi3/optee_os/lib/libutee/tee_api_arith_mpi.c:106
    1108:	79400e93 	ldrh	w19, [x20, #6]
/home/nbshenxm/optee-project/rpi3/optee_os/lib/libutee/tee_api_arith_mpi.c:105
    110c:	91002296 	add	x22, x20, #0x8
/home/nbshenxm/optee-project/rpi3/optee_os/lib/libutee/tee_api_arith_mpi.c:109
    1110:	91001281 	add	x1, x20, #0x4
    1114:	b4000073 	cbz	x19, 1120 <get_mpi+0x38>
/home/nbshenxm/optee-project/rpi3/optee_os/lib/libutee/tee_api_arith_mpi.c:109 (discriminator 1)
    1118:	b8737820 	ldr	w0, [x1, x19, lsl #2]
    111c:	34000140 	cbz	w0, 1144 <get_mpi+0x5c>
/home/nbshenxm/optee-project/rpi3/optee_os/lib/libutee/tee_api_arith_mpi.c:112
    1120:	aa1303e1 	mov	x1, x19
    1124:	aa1503e0 	mov	x0, x21
    1128:	94000896 	bl	3380 <mbedtls_mpi_grow>
    112c:	34000100 	cbz	w0, 114c <get_mpi+0x64>
/home/nbshenxm/optee-project/rpi3/optee_os/lib/libutee/tee_api_arith_mpi.c:112 (discriminator 1)
    1130:	2a0003e2 	mov	w2, w0
    1134:	52800e01 	mov	w1, #0x70                  	// #112
    1138:	b0000040 	adrp	x0, a000 <__text_end+0x1594>
    113c:	91272400 	add	x0, x0, #0x9c9
    1140:	97ffffde 	bl	10b8 <mpi_panic>
/home/nbshenxm/optee-project/rpi3/optee_os/lib/libutee/tee_api_arith_mpi.c:110
    1144:	d1000673 	sub	x19, x19, #0x1
    1148:	17fffff3 	b	1114 <get_mpi+0x2c>
/home/nbshenxm/optee-project/rpi3/optee_os/lib/libutee/tee_api_arith_mpi.c:113
    114c:	b9400280 	ldr	w0, [x20]
/home/nbshenxm/optee-project/rpi3/optee_os/lib/libutee/tee_api_arith_mpi.c:114
    1150:	d37ef662 	lsl	x2, x19, #2
/home/nbshenxm/optee-project/rpi3/optee_os/lib/libutee/tee_api_arith_mpi.c:113
    1154:	790002a0 	strh	w0, [x21]
/home/nbshenxm/optee-project/rpi3/optee_os/lib/libutee/tee_api_arith_mpi.c:114
    1158:	aa1603e1 	mov	x1, x22
/home/nbshenxm/optee-project/rpi3/optee_os/lib/libutee/tee_api_arith_mpi.c:116
    115c:	a94153f3 	ldp	x19, x20, [sp, #16]
/home/nbshenxm/optee-project/rpi3/optee_os/lib/libutee/tee_api_arith_mpi.c:114
    1160:	f9400aa0 	ldr	x0, [x21, #16]
/home/nbshenxm/optee-project/rpi3/optee_os/lib/libutee/tee_api_arith_mpi.c:116
    1164:	a9425bf5 	ldp	x21, x22, [sp, #32]
    1168:	a8c37bfd 	ldp	x29, x30, [sp], #48
/home/nbshenxm/optee-project/rpi3/optee_os/lib/libutee/tee_api_arith_mpi.c:114
    116c:	17fffbad 	b	20 <memcpy>
/home/nbshenxm/optee-project/rpi3/optee_os/lib/libutee/tee_api_arith_mpi.c:116
    1170:	a94153f3 	ldp	x19, x20, [sp, #16]
    1174:	a9425bf5 	ldp	x21, x22, [sp, #32]
    1178:	a8c37bfd 	ldp	x29, x30, [sp], #48
    117c:	d65f03c0 	ret

0000000000001180 <copy_mpi_to_bigint>:
copy_mpi_to_bigint():
/home/nbshenxm/optee-project/rpi3/optee_os/lib/libutee/tee_api_arith_mpi.c:61
    1180:	aa0103e3 	mov	x3, x1
/home/nbshenxm/optee-project/rpi3/optee_os/lib/libutee/tee_api_arith_mpi.c:63
    1184:	a9408402 	ldp	x2, x1, [x0, #8]
    1188:	aa0203e4 	mov	x4, x2
/home/nbshenxm/optee-project/rpi3/optee_os/lib/libutee/tee_api_arith_mpi.c:66
    118c:	b40000e4 	cbz	x4, 11a8 <copy_mpi_to_bigint+0x28>
/home/nbshenxm/optee-project/rpi3/optee_os/lib/libutee/tee_api_arith_mpi.c:66 (discriminator 1)
    1190:	8b040825 	add	x5, x1, x4, lsl #2
    1194:	b85fc0a5 	ldur	w5, [x5, #-4]
    1198:	340001e5 	cbz	w5, 11d4 <copy_mpi_to_bigint+0x54>
/home/nbshenxm/optee-project/rpi3/optee_os/lib/libutee/tee_api_arith_mpi.c:69
    119c:	79400865 	ldrh	w5, [x3, #4]
    11a0:	eb0400bf 	cmp	x5, x4
    11a4:	540001c3 	b.cc	11dc <copy_mpi_to_bigint+0x5c>  // b.lo, b.ul, b.last
/home/nbshenxm/optee-project/rpi3/optee_os/lib/libutee/tee_api_arith_mpi.c:61
    11a8:	a9bf7bfd 	stp	x29, x30, [sp, #-16]!
/home/nbshenxm/optee-project/rpi3/optee_os/lib/libutee/tee_api_arith_mpi.c:74
    11ac:	d37ef442 	lsl	x2, x2, #2
/home/nbshenxm/optee-project/rpi3/optee_os/lib/libutee/tee_api_arith_mpi.c:61
    11b0:	910003fd 	mov	x29, sp
/home/nbshenxm/optee-project/rpi3/optee_os/lib/libutee/tee_api_arith_mpi.c:72
    11b4:	79000c64 	strh	w4, [x3, #6]
/home/nbshenxm/optee-project/rpi3/optee_os/lib/libutee/tee_api_arith_mpi.c:73
    11b8:	79c00004 	ldrsh	w4, [x0]
    11bc:	aa0303e0 	mov	x0, x3
    11c0:	b8008404 	str	w4, [x0], #8
/home/nbshenxm/optee-project/rpi3/optee_os/lib/libutee/tee_api_arith_mpi.c:74
    11c4:	97fffb97 	bl	20 <memcpy>
/home/nbshenxm/optee-project/rpi3/optee_os/lib/libutee/tee_api_arith_mpi.c:76
    11c8:	52800000 	mov	w0, #0x0                   	// #0
/home/nbshenxm/optee-project/rpi3/optee_os/lib/libutee/tee_api_arith_mpi.c:77
    11cc:	a8c17bfd 	ldp	x29, x30, [sp], #16
    11d0:	d65f03c0 	ret
/home/nbshenxm/optee-project/rpi3/optee_os/lib/libutee/tee_api_arith_mpi.c:67
    11d4:	d1000484 	sub	x4, x4, #0x1
    11d8:	17ffffed 	b	118c <copy_mpi_to_bigint+0xc>
/home/nbshenxm/optee-project/rpi3/optee_os/lib/libutee/tee_api_arith_mpi.c:70
    11dc:	1299fe00 	mov	w0, #0xffff300f            	// #-53233
/home/nbshenxm/optee-project/rpi3/optee_os/lib/libutee/tee_api_arith_mpi.c:77
    11e0:	d65f03c0 	ret

00000000000011e4 <bigint_binary>:
bigint_binary():
/home/nbshenxm/optee-project/rpi3/optee_os/lib/libutee/tee_api_arith_mpi.c:321
    11e4:	a9b67bfd 	stp	x29, x30, [sp, #-160]!
    11e8:	910003fd 	mov	x29, sp
    11ec:	a90153f3 	stp	x19, x20, [sp, #16]
/home/nbshenxm/optee-project/rpi3/optee_os/lib/libutee/tee_api_arith_mpi.c:328
    11f0:	910163f3 	add	x19, sp, #0x58
/home/nbshenxm/optee-project/rpi3/optee_os/lib/libutee/tee_api_arith_mpi.c:321
    11f4:	aa0203f4 	mov	x20, x2
    11f8:	a9025bf5 	stp	x21, x22, [sp, #32]
    11fc:	aa0003f6 	mov	x22, x0
    1200:	a90363f7 	stp	x23, x24, [sp, #48]
    1204:	9101c3f8 	add	x24, sp, #0x70
    1208:	a9046bf9 	stp	x25, x26, [sp, #64]
    120c:	aa0103f9 	mov	x25, x1
    1210:	aa0303fa 	mov	x26, x3
/home/nbshenxm/optee-project/rpi3/optee_os/lib/libutee/tee_api_arith_mpi.c:328
    1214:	aa0003e1 	mov	x1, x0
    1218:	aa1303e0 	mov	x0, x19
    121c:	97ffffb3 	bl	10e8 <get_mpi>
/home/nbshenxm/optee-project/rpi3/optee_os/lib/libutee/tee_api_arith_mpi.c:330
    1220:	eb1902df 	cmp	x22, x25
    1224:	54000320 	b.eq	1288 <bigint_binary+0xa4>  // b.none
/home/nbshenxm/optee-project/rpi3/optee_os/lib/libutee/tee_api_arith_mpi.c:325
    1228:	aa1803f5 	mov	x21, x24
/home/nbshenxm/optee-project/rpi3/optee_os/lib/libutee/tee_api_arith_mpi.c:333
    122c:	aa1903e1 	mov	x1, x25
    1230:	aa1803e0 	mov	x0, x24
    1234:	97ffffad 	bl	10e8 <get_mpi>
/home/nbshenxm/optee-project/rpi3/optee_os/lib/libutee/tee_api_arith_mpi.c:335
    1238:	eb1402df 	cmp	x22, x20
    123c:	910223f7 	add	x23, sp, #0x88
    1240:	54000280 	b.eq	1290 <bigint_binary+0xac>  // b.none
/home/nbshenxm/optee-project/rpi3/optee_os/lib/libutee/tee_api_arith_mpi.c:337
    1244:	eb14033f 	cmp	x25, x20
    1248:	54000280 	b.eq	1298 <bigint_binary+0xb4>  // b.none
/home/nbshenxm/optee-project/rpi3/optee_os/lib/libutee/tee_api_arith_mpi.c:340
    124c:	aa1403e1 	mov	x1, x20
/home/nbshenxm/optee-project/rpi3/optee_os/lib/libutee/tee_api_arith_mpi.c:326
    1250:	aa1703f4 	mov	x20, x23
/home/nbshenxm/optee-project/rpi3/optee_os/lib/libutee/tee_api_arith_mpi.c:340
    1254:	aa1703e0 	mov	x0, x23
    1258:	97ffffa4 	bl	10e8 <get_mpi>
/home/nbshenxm/optee-project/rpi3/optee_os/lib/libutee/tee_api_arith_mpi.c:342
    125c:	aa1403e2 	mov	x2, x20
    1260:	aa1503e1 	mov	x1, x21
    1264:	aa1303e0 	mov	x0, x19
    1268:	d63f0340 	blr	x26
    126c:	340001a0 	cbz	w0, 12a0 <bigint_binary+0xbc>
/home/nbshenxm/optee-project/rpi3/optee_os/lib/libutee/tee_api_arith_mpi.c:342 (discriminator 1)
    1270:	2a0003e2 	mov	w2, w0
    1274:	52802ac1 	mov	w1, #0x156                 	// #342
/home/nbshenxm/optee-project/rpi3/optee_os/lib/libutee/tee_api_arith_mpi.c:344 (discriminator 1)
    1278:	b0000040 	adrp	x0, a000 <__text_end+0x1594>
    127c:	91272400 	add	x0, x0, #0x9c9
    1280:	91002000 	add	x0, x0, #0x8
    1284:	97ffff8d 	bl	10b8 <mpi_panic>
/home/nbshenxm/optee-project/rpi3/optee_os/lib/libutee/tee_api_arith_mpi.c:331
    1288:	aa1303f5 	mov	x21, x19
    128c:	17ffffeb 	b	1238 <bigint_binary+0x54>
/home/nbshenxm/optee-project/rpi3/optee_os/lib/libutee/tee_api_arith_mpi.c:336
    1290:	aa1303f4 	mov	x20, x19
    1294:	17fffff2 	b	125c <bigint_binary+0x78>
/home/nbshenxm/optee-project/rpi3/optee_os/lib/libutee/tee_api_arith_mpi.c:338
    1298:	aa1503f4 	mov	x20, x21
    129c:	17fffff0 	b	125c <bigint_binary+0x78>
/home/nbshenxm/optee-project/rpi3/optee_os/lib/libutee/tee_api_arith_mpi.c:344
    12a0:	aa1603e1 	mov	x1, x22
    12a4:	aa1303e0 	mov	x0, x19
    12a8:	97ffffb6 	bl	1180 <copy_mpi_to_bigint>
    12ac:	34000080 	cbz	w0, 12bc <bigint_binary+0xd8>
/home/nbshenxm/optee-project/rpi3/optee_os/lib/libutee/tee_api_arith_mpi.c:344 (discriminator 1)
    12b0:	2a0003e2 	mov	w2, w0
    12b4:	52802b01 	mov	w1, #0x158                 	// #344
    12b8:	17fffff0 	b	1278 <bigint_binary+0x94>
/home/nbshenxm/optee-project/rpi3/optee_os/lib/libutee/tee_api_arith_mpi.c:345
    12bc:	aa1303e0 	mov	x0, x19
    12c0:	94000815 	bl	3314 <mbedtls_mpi_free>
/home/nbshenxm/optee-project/rpi3/optee_os/lib/libutee/tee_api_arith_mpi.c:346
    12c4:	eb1802bf 	cmp	x21, x24
    12c8:	54000061 	b.ne	12d4 <bigint_binary+0xf0>  // b.any
/home/nbshenxm/optee-project/rpi3/optee_os/lib/libutee/tee_api_arith_mpi.c:347
    12cc:	aa1503e0 	mov	x0, x21
    12d0:	94000811 	bl	3314 <mbedtls_mpi_free>
/home/nbshenxm/optee-project/rpi3/optee_os/lib/libutee/tee_api_arith_mpi.c:348
    12d4:	eb17029f 	cmp	x20, x23
    12d8:	54000061 	b.ne	12e4 <bigint_binary+0x100>  // b.any
/home/nbshenxm/optee-project/rpi3/optee_os/lib/libutee/tee_api_arith_mpi.c:349
    12dc:	aa1403e0 	mov	x0, x20
    12e0:	9400080d 	bl	3314 <mbedtls_mpi_free>
/home/nbshenxm/optee-project/rpi3/optee_os/lib/libutee/tee_api_arith_mpi.c:350
    12e4:	a94153f3 	ldp	x19, x20, [sp, #16]
    12e8:	a9425bf5 	ldp	x21, x22, [sp, #32]
    12ec:	a94363f7 	ldp	x23, x24, [sp, #48]
    12f0:	a9446bf9 	ldp	x25, x26, [sp, #64]
    12f4:	a8ca7bfd 	ldp	x29, x30, [sp], #160
    12f8:	d65f03c0 	ret

00000000000012fc <mpi_is_odd>:
mpi_is_odd():
/home/nbshenxm/optee-project/rpi3/optee_os/lib/libutee/tee_api_arith_mpi.c:590
    12fc:	a9bf7bfd 	stp	x29, x30, [sp, #-16]!
/home/nbshenxm/optee-project/rpi3/optee_os/lib/libutee/tee_api_arith_mpi.c:591
    1300:	d2800001 	mov	x1, #0x0                   	// #0
/home/nbshenxm/optee-project/rpi3/optee_os/lib/libutee/tee_api_arith_mpi.c:590
    1304:	910003fd 	mov	x29, sp
/home/nbshenxm/optee-project/rpi3/optee_os/lib/libutee/tee_api_arith_mpi.c:591
    1308:	9400096c 	bl	38b8 <mbedtls_mpi_get_bit>
    130c:	7100001f 	cmp	w0, #0x0
/home/nbshenxm/optee-project/rpi3/optee_os/lib/libutee/tee_api_arith_mpi.c:592
    1310:	1a9f07e0 	cset	w0, ne  // ne = any
    1314:	a8c17bfd 	ldp	x29, x30, [sp], #16
    1318:	d65f03c0 	ret

000000000000131c <rng_read>:
rng_read():
/home/nbshenxm/optee-project/rpi3/optee_os/lib/libutee/tee_api_arith_mpi.c:757
    131c:	a9bf7bfd 	stp	x29, x30, [sp, #-16]!
    1320:	aa0103e0 	mov	x0, x1
/home/nbshenxm/optee-project/rpi3/optee_os/lib/libutee/tee_api_arith_mpi.c:758
    1324:	aa0203e1 	mov	x1, x2
/home/nbshenxm/optee-project/rpi3/optee_os/lib/libutee/tee_api_arith_mpi.c:757
    1328:	910003fd 	mov	x29, sp
/home/nbshenxm/optee-project/rpi3/optee_os/lib/libutee/tee_api_arith_mpi.c:758
    132c:	97fffc08 	bl	34c <utee_cryp_random_number_generate>
/home/nbshenxm/optee-project/rpi3/optee_os/lib/libutee/tee_api_arith_mpi.c:759
    1330:	7100001f 	cmp	w0, #0x0
/home/nbshenxm/optee-project/rpi3/optee_os/lib/libutee/tee_api_arith_mpi.c:761
    1334:	a8c17bfd 	ldp	x29, x30, [sp], #16
    1338:	12800020 	mov	w0, #0xfffffffe            	// #-2
    133c:	1a9f1000 	csel	w0, w0, wzr, ne  // ne = any
    1340:	d65f03c0 	ret

0000000000001344 <mpi_egcd>:
mpi_egcd():
/home/nbshenxm/optee-project/rpi3/optee_os/lib/libutee/tee_api_arith_mpi.c:605
    1344:	a9ae7bfd 	stp	x29, x30, [sp, #-288]!
    1348:	910003fd 	mov	x29, sp
    134c:	6d0627e8 	stp	d8, d9, [sp, #96]
    1350:	9e670028 	fmov	d8, x1
    1354:	9e670069 	fmov	d9, x3
    1358:	a90363f7 	stp	x23, x24, [sp, #48]
get_mpi():
/home/nbshenxm/optee-project/rpi3/optee_os/lib/libutee/tee_api_arith_mpi.c:101
    135c:	9101e3f7 	add	x23, sp, #0x78
mpi_egcd():
/home/nbshenxm/optee-project/rpi3/optee_os/lib/libutee/tee_api_arith_mpi.c:605
    1360:	aa0003f8 	mov	x24, x0
get_mpi():
/home/nbshenxm/optee-project/rpi3/optee_os/lib/libutee/tee_api_arith_mpi.c:101
    1364:	aa1703e0 	mov	x0, x23
mpi_egcd():
/home/nbshenxm/optee-project/rpi3/optee_os/lib/libutee/tee_api_arith_mpi.c:605
    1368:	a90153f3 	stp	x19, x20, [sp, #16]
get_mpi():
/home/nbshenxm/optee-project/rpi3/optee_os/lib/libutee/tee_api_arith_mpi.c:101
    136c:	9102a3f4 	add	x20, sp, #0xa8
mpi_egcd():
/home/nbshenxm/optee-project/rpi3/optee_os/lib/libutee/tee_api_arith_mpi.c:605
    1370:	a9025bf5 	stp	x21, x22, [sp, #32]
get_mpi():
/home/nbshenxm/optee-project/rpi3/optee_os/lib/libutee/tee_api_arith_mpi.c:101
    1374:	910243f6 	add	x22, sp, #0x90
    1378:	910303f3 	add	x19, sp, #0xc0
mpi_egcd():
/home/nbshenxm/optee-project/rpi3/optee_os/lib/libutee/tee_api_arith_mpi.c:605
    137c:	a9046bf9 	stp	x25, x26, [sp, #64]
get_mpi():
/home/nbshenxm/optee-project/rpi3/optee_os/lib/libutee/tee_api_arith_mpi.c:101
    1380:	910363fa 	add	x26, sp, #0xd8
    1384:	9103c3f9 	add	x25, sp, #0xf0
mpi_egcd():
/home/nbshenxm/optee-project/rpi3/optee_os/lib/libutee/tee_api_arith_mpi.c:605
    1388:	a90573fb 	stp	x27, x28, [sp, #80]
    138c:	aa0403fb 	mov	x27, x4
    1390:	aa0203fc 	mov	x28, x2
get_mpi():
/home/nbshenxm/optee-project/rpi3/optee_os/lib/libutee/tee_api_arith_mpi.c:101
    1394:	940007d6 	bl	32ec <mbedtls_mpi_init_mempool>
    1398:	910423f5 	add	x21, sp, #0x108
    139c:	aa1603e0 	mov	x0, x22
    13a0:	940007d3 	bl	32ec <mbedtls_mpi_init_mempool>
    13a4:	aa1403e0 	mov	x0, x20
    13a8:	940007d1 	bl	32ec <mbedtls_mpi_init_mempool>
    13ac:	aa1303e0 	mov	x0, x19
    13b0:	940007cf 	bl	32ec <mbedtls_mpi_init_mempool>
    13b4:	aa1a03e0 	mov	x0, x26
    13b8:	940007cd 	bl	32ec <mbedtls_mpi_init_mempool>
    13bc:	aa1903e0 	mov	x0, x25
    13c0:	940007cb 	bl	32ec <mbedtls_mpi_init_mempool>
    13c4:	aa1503e0 	mov	x0, x21
    13c8:	940007c9 	bl	32ec <mbedtls_mpi_init_mempool>
mpi_egcd():
/home/nbshenxm/optee-project/rpi3/optee_os/lib/libutee/tee_api_arith_mpi.c:624
    13cc:	52800001 	mov	w1, #0x0                   	// #0
    13d0:	aa1b03e0 	mov	x0, x27
    13d4:	94000b59 	bl	4138 <mbedtls_mpi_cmp_int>
    13d8:	35000320 	cbnz	w0, 143c <mpi_egcd+0xf8>
/home/nbshenxm/optee-project/rpi3/optee_os/lib/libutee/tee_api_arith_mpi.c:625
    13dc:	9e660100 	fmov	x0, d8
    13e0:	52800021 	mov	w1, #0x1                   	// #1
    13e4:	9400091b 	bl	3850 <mbedtls_mpi_lset>
    13e8:	340000e0 	cbz	w0, 1404 <mpi_egcd+0xc0>
/home/nbshenxm/optee-project/rpi3/optee_os/lib/libutee/tee_api_arith_mpi.c:625 (discriminator 1)
    13ec:	2a0003e2 	mov	w2, w0
    13f0:	52804e21 	mov	w1, #0x271                 	// #625
/home/nbshenxm/optee-project/rpi3/optee_os/lib/libutee/tee_api_arith_mpi.c:626 (discriminator 1)
    13f4:	b0000040 	adrp	x0, a000 <__text_end+0x1594>
    13f8:	91272400 	add	x0, x0, #0x9c9
    13fc:	91005800 	add	x0, x0, #0x16
    1400:	97ffff2e 	bl	10b8 <mpi_panic>
/home/nbshenxm/optee-project/rpi3/optee_os/lib/libutee/tee_api_arith_mpi.c:626
    1404:	52800001 	mov	w1, #0x0                   	// #0
    1408:	aa1c03e0 	mov	x0, x28
    140c:	94000911 	bl	3850 <mbedtls_mpi_lset>
    1410:	34000080 	cbz	w0, 1420 <mpi_egcd+0xdc>
/home/nbshenxm/optee-project/rpi3/optee_os/lib/libutee/tee_api_arith_mpi.c:626 (discriminator 1)
    1414:	2a0003e2 	mov	w2, w0
    1418:	52804e41 	mov	w1, #0x272                 	// #626
    141c:	17fffff6 	b	13f4 <mpi_egcd+0xb0>
/home/nbshenxm/optee-project/rpi3/optee_os/lib/libutee/tee_api_arith_mpi.c:627
    1420:	9e660121 	fmov	x1, d9
    1424:	aa1803e0 	mov	x0, x24
    1428:	9400085c 	bl	3598 <mbedtls_mpi_copy>
    142c:	34002060 	cbz	w0, 1838 <mpi_egcd+0x4f4>
/home/nbshenxm/optee-project/rpi3/optee_os/lib/libutee/tee_api_arith_mpi.c:627 (discriminator 1)
    1430:	2a0003e2 	mov	w2, w0
    1434:	52804e61 	mov	w1, #0x273                 	// #627
    1438:	17ffffef 	b	13f4 <mpi_egcd+0xb0>
/home/nbshenxm/optee-project/rpi3/optee_os/lib/libutee/tee_api_arith_mpi.c:631
    143c:	9e660121 	fmov	x1, d9
    1440:	aa1a03e0 	mov	x0, x26
    1444:	94000855 	bl	3598 <mbedtls_mpi_copy>
    1448:	34000080 	cbz	w0, 1458 <mpi_egcd+0x114>
/home/nbshenxm/optee-project/rpi3/optee_os/lib/libutee/tee_api_arith_mpi.c:631 (discriminator 1)
    144c:	2a0003e2 	mov	w2, w0
    1450:	52804ee1 	mov	w1, #0x277                 	// #631
    1454:	17ffffe8 	b	13f4 <mpi_egcd+0xb0>
/home/nbshenxm/optee-project/rpi3/optee_os/lib/libutee/tee_api_arith_mpi.c:632
    1458:	aa1b03e1 	mov	x1, x27
    145c:	aa1903e0 	mov	x0, x25
/home/nbshenxm/optee-project/rpi3/optee_os/lib/libutee/tee_api_arith_mpi.c:634
    1460:	5280001b 	mov	w27, #0x0                   	// #0
/home/nbshenxm/optee-project/rpi3/optee_os/lib/libutee/tee_api_arith_mpi.c:632
    1464:	9400084d 	bl	3598 <mbedtls_mpi_copy>
    1468:	34000160 	cbz	w0, 1494 <mpi_egcd+0x150>
/home/nbshenxm/optee-project/rpi3/optee_os/lib/libutee/tee_api_arith_mpi.c:632 (discriminator 1)
    146c:	2a0003e2 	mov	w2, w0
    1470:	52804f01 	mov	w1, #0x278                 	// #632
    1474:	17ffffe0 	b	13f4 <mpi_egcd+0xb0>
/home/nbshenxm/optee-project/rpi3/optee_os/lib/libutee/tee_api_arith_mpi.c:638
    1478:	d2800021 	mov	x1, #0x1                   	// #1
    147c:	aa1903e0 	mov	x0, x25
    1480:	94000a69 	bl	3e24 <mbedtls_mpi_shift_r>
    1484:	34000080 	cbz	w0, 1494 <mpi_egcd+0x150>
/home/nbshenxm/optee-project/rpi3/optee_os/lib/libutee/tee_api_arith_mpi.c:638 (discriminator 1)
    1488:	2a0003e2 	mov	w2, w0
    148c:	52804fc1 	mov	w1, #0x27e                 	// #638
    1490:	17ffffd9 	b	13f4 <mpi_egcd+0xb0>
mpi_is_even():
/home/nbshenxm/optee-project/rpi3/optee_os/lib/libutee/tee_api_arith_mpi.c:596
    1494:	aa1a03e0 	mov	x0, x26
    1498:	97ffff99 	bl	12fc <mpi_is_odd>
mpi_egcd():
/home/nbshenxm/optee-project/rpi3/optee_os/lib/libutee/tee_api_arith_mpi.c:635
    149c:	72001c1f 	tst	w0, #0xff
    14a0:	54000100 	b.eq	14c0 <mpi_egcd+0x17c>  // b.none
/home/nbshenxm/optee-project/rpi3/optee_os/lib/libutee/tee_api_arith_mpi.c:641
    14a4:	aa1a03e1 	mov	x1, x26
    14a8:	aa1503e0 	mov	x0, x21
    14ac:	9400083b 	bl	3598 <mbedtls_mpi_copy>
    14b0:	34000200 	cbz	w0, 14f0 <mpi_egcd+0x1ac>
/home/nbshenxm/optee-project/rpi3/optee_os/lib/libutee/tee_api_arith_mpi.c:641 (discriminator 1)
    14b4:	2a0003e2 	mov	w2, w0
    14b8:	52805021 	mov	w1, #0x281                 	// #641
    14bc:	17ffffce 	b	13f4 <mpi_egcd+0xb0>
mpi_is_even():
/home/nbshenxm/optee-project/rpi3/optee_os/lib/libutee/tee_api_arith_mpi.c:596
    14c0:	aa1903e0 	mov	x0, x25
    14c4:	97ffff8e 	bl	12fc <mpi_is_odd>
mpi_egcd():
/home/nbshenxm/optee-project/rpi3/optee_os/lib/libutee/tee_api_arith_mpi.c:635
    14c8:	72001c1f 	tst	w0, #0xff
    14cc:	54fffec1 	b.ne	14a4 <mpi_egcd+0x160>  // b.any
/home/nbshenxm/optee-project/rpi3/optee_os/lib/libutee/tee_api_arith_mpi.c:636
    14d0:	1100077b 	add	w27, w27, #0x1
/home/nbshenxm/optee-project/rpi3/optee_os/lib/libutee/tee_api_arith_mpi.c:637
    14d4:	d2800021 	mov	x1, #0x1                   	// #1
    14d8:	aa1a03e0 	mov	x0, x26
    14dc:	94000a52 	bl	3e24 <mbedtls_mpi_shift_r>
    14e0:	34fffcc0 	cbz	w0, 1478 <mpi_egcd+0x134>
/home/nbshenxm/optee-project/rpi3/optee_os/lib/libutee/tee_api_arith_mpi.c:637 (discriminator 1)
    14e4:	2a0003e2 	mov	w2, w0
    14e8:	52804fa1 	mov	w1, #0x27d                 	// #637
    14ec:	17ffffc2 	b	13f4 <mpi_egcd+0xb0>
/home/nbshenxm/optee-project/rpi3/optee_os/lib/libutee/tee_api_arith_mpi.c:642
    14f0:	aa1903e1 	mov	x1, x25
    14f4:	aa1803e0 	mov	x0, x24
    14f8:	94000828 	bl	3598 <mbedtls_mpi_copy>
    14fc:	34000080 	cbz	w0, 150c <mpi_egcd+0x1c8>
/home/nbshenxm/optee-project/rpi3/optee_os/lib/libutee/tee_api_arith_mpi.c:642 (discriminator 1)
    1500:	2a0003e2 	mov	w2, w0
    1504:	52805041 	mov	w1, #0x282                 	// #642
    1508:	17ffffbb 	b	13f4 <mpi_egcd+0xb0>
/home/nbshenxm/optee-project/rpi3/optee_os/lib/libutee/tee_api_arith_mpi.c:643
    150c:	52800021 	mov	w1, #0x1                   	// #1
    1510:	aa1703e0 	mov	x0, x23
    1514:	940008cf 	bl	3850 <mbedtls_mpi_lset>
    1518:	34000080 	cbz	w0, 1528 <mpi_egcd+0x1e4>
/home/nbshenxm/optee-project/rpi3/optee_os/lib/libutee/tee_api_arith_mpi.c:643 (discriminator 1)
    151c:	2a0003e2 	mov	w2, w0
    1520:	52805061 	mov	w1, #0x283                 	// #643
    1524:	17ffffb4 	b	13f4 <mpi_egcd+0xb0>
/home/nbshenxm/optee-project/rpi3/optee_os/lib/libutee/tee_api_arith_mpi.c:644
    1528:	52800001 	mov	w1, #0x0                   	// #0
    152c:	aa1603e0 	mov	x0, x22
    1530:	940008c8 	bl	3850 <mbedtls_mpi_lset>
    1534:	34000080 	cbz	w0, 1544 <mpi_egcd+0x200>
/home/nbshenxm/optee-project/rpi3/optee_os/lib/libutee/tee_api_arith_mpi.c:644 (discriminator 1)
    1538:	2a0003e2 	mov	w2, w0
    153c:	52805081 	mov	w1, #0x284                 	// #644
    1540:	17ffffad 	b	13f4 <mpi_egcd+0xb0>
/home/nbshenxm/optee-project/rpi3/optee_os/lib/libutee/tee_api_arith_mpi.c:645
    1544:	52800001 	mov	w1, #0x0                   	// #0
    1548:	aa1403e0 	mov	x0, x20
    154c:	940008c1 	bl	3850 <mbedtls_mpi_lset>
    1550:	34000080 	cbz	w0, 1560 <mpi_egcd+0x21c>
/home/nbshenxm/optee-project/rpi3/optee_os/lib/libutee/tee_api_arith_mpi.c:645 (discriminator 1)
    1554:	2a0003e2 	mov	w2, w0
    1558:	528050a1 	mov	w1, #0x285                 	// #645
    155c:	17ffffa6 	b	13f4 <mpi_egcd+0xb0>
/home/nbshenxm/optee-project/rpi3/optee_os/lib/libutee/tee_api_arith_mpi.c:646
    1560:	52800021 	mov	w1, #0x1                   	// #1
    1564:	aa1303e0 	mov	x0, x19
    1568:	940008ba 	bl	3850 <mbedtls_mpi_lset>
    156c:	34001340 	cbz	w0, 17d4 <mpi_egcd+0x490>
/home/nbshenxm/optee-project/rpi3/optee_os/lib/libutee/tee_api_arith_mpi.c:646 (discriminator 1)
    1570:	2a0003e2 	mov	w2, w0
    1574:	528050c1 	mov	w1, #0x286                 	// #646
    1578:	17ffff9f 	b	13f4 <mpi_egcd+0xb0>
/home/nbshenxm/optee-project/rpi3/optee_os/lib/libutee/tee_api_arith_mpi.c:650
    157c:	d2800021 	mov	x1, #0x1                   	// #1
    1580:	aa1503e0 	mov	x0, x21
    1584:	94000a28 	bl	3e24 <mbedtls_mpi_shift_r>
    1588:	34000080 	cbz	w0, 1598 <mpi_egcd+0x254>
/home/nbshenxm/optee-project/rpi3/optee_os/lib/libutee/tee_api_arith_mpi.c:650 (discriminator 1)
    158c:	2a0003e2 	mov	w2, w0
    1590:	52805141 	mov	w1, #0x28a                 	// #650
    1594:	17ffff98 	b	13f4 <mpi_egcd+0xb0>
/home/nbshenxm/optee-project/rpi3/optee_os/lib/libutee/tee_api_arith_mpi.c:651
    1598:	aa1703e0 	mov	x0, x23
    159c:	97ffff58 	bl	12fc <mpi_is_odd>
    15a0:	72001c1f 	tst	w0, #0xff
    15a4:	54000120 	b.eq	15c8 <mpi_egcd+0x284>  // b.none
/home/nbshenxm/optee-project/rpi3/optee_os/lib/libutee/tee_api_arith_mpi.c:652
    15a8:	aa1903e2 	mov	x2, x25
    15ac:	aa1703e1 	mov	x1, x23
    15b0:	aa1703e0 	mov	x0, x23
    15b4:	94000b71 	bl	4378 <mbedtls_mpi_add_mpi>
    15b8:	340001e0 	cbz	w0, 15f4 <mpi_egcd+0x2b0>
/home/nbshenxm/optee-project/rpi3/optee_os/lib/libutee/tee_api_arith_mpi.c:652 (discriminator 1)
    15bc:	2a0003e2 	mov	w2, w0
    15c0:	52805181 	mov	w1, #0x28c                 	// #652
    15c4:	17ffff8c 	b	13f4 <mpi_egcd+0xb0>
/home/nbshenxm/optee-project/rpi3/optee_os/lib/libutee/tee_api_arith_mpi.c:651 (discriminator 1)
    15c8:	aa1603e0 	mov	x0, x22
    15cc:	97ffff4c 	bl	12fc <mpi_is_odd>
    15d0:	72001c1f 	tst	w0, #0xff
    15d4:	54fffea1 	b.ne	15a8 <mpi_egcd+0x264>  // b.any
/home/nbshenxm/optee-project/rpi3/optee_os/lib/libutee/tee_api_arith_mpi.c:655
    15d8:	d2800021 	mov	x1, #0x1                   	// #1
    15dc:	aa1703e0 	mov	x0, x23
    15e0:	94000a11 	bl	3e24 <mbedtls_mpi_shift_r>
    15e4:	34000180 	cbz	w0, 1614 <mpi_egcd+0x2d0>
/home/nbshenxm/optee-project/rpi3/optee_os/lib/libutee/tee_api_arith_mpi.c:655 (discriminator 1)
    15e8:	2a0003e2 	mov	w2, w0
    15ec:	528051e1 	mov	w1, #0x28f                 	// #655
    15f0:	17ffff81 	b	13f4 <mpi_egcd+0xb0>
/home/nbshenxm/optee-project/rpi3/optee_os/lib/libutee/tee_api_arith_mpi.c:653
    15f4:	aa1a03e2 	mov	x2, x26
    15f8:	aa1603e1 	mov	x1, x22
    15fc:	aa1603e0 	mov	x0, x22
    1600:	94000b80 	bl	4400 <mbedtls_mpi_sub_mpi>
    1604:	34fffea0 	cbz	w0, 15d8 <mpi_egcd+0x294>
/home/nbshenxm/optee-project/rpi3/optee_os/lib/libutee/tee_api_arith_mpi.c:653 (discriminator 1)
    1608:	2a0003e2 	mov	w2, w0
    160c:	528051a1 	mov	w1, #0x28d                 	// #653
    1610:	17ffff79 	b	13f4 <mpi_egcd+0xb0>
/home/nbshenxm/optee-project/rpi3/optee_os/lib/libutee/tee_api_arith_mpi.c:656
    1614:	d2800021 	mov	x1, #0x1                   	// #1
    1618:	aa1603e0 	mov	x0, x22
    161c:	94000a02 	bl	3e24 <mbedtls_mpi_shift_r>
    1620:	34000080 	cbz	w0, 1630 <mpi_egcd+0x2ec>
/home/nbshenxm/optee-project/rpi3/optee_os/lib/libutee/tee_api_arith_mpi.c:656 (discriminator 1)
    1624:	2a0003e2 	mov	w2, w0
    1628:	52805201 	mov	w1, #0x290                 	// #656
    162c:	17ffff72 	b	13f4 <mpi_egcd+0xb0>
mpi_is_even():
/home/nbshenxm/optee-project/rpi3/optee_os/lib/libutee/tee_api_arith_mpi.c:596
    1630:	aa1503e0 	mov	x0, x21
    1634:	97ffff32 	bl	12fc <mpi_is_odd>
mpi_egcd():
/home/nbshenxm/optee-project/rpi3/optee_os/lib/libutee/tee_api_arith_mpi.c:649
    1638:	72001c1f 	tst	w0, #0xff
    163c:	54fffa00 	b.eq	157c <mpi_egcd+0x238>  // b.none
mpi_is_even():
/home/nbshenxm/optee-project/rpi3/optee_os/lib/libutee/tee_api_arith_mpi.c:596
    1640:	aa1803e0 	mov	x0, x24
    1644:	97ffff2e 	bl	12fc <mpi_is_odd>
mpi_egcd():
/home/nbshenxm/optee-project/rpi3/optee_os/lib/libutee/tee_api_arith_mpi.c:659
    1648:	72001c1f 	tst	w0, #0xff
    164c:	540001a0 	b.eq	1680 <mpi_egcd+0x33c>  // b.none
/home/nbshenxm/optee-project/rpi3/optee_os/lib/libutee/tee_api_arith_mpi.c:670
    1650:	aa1803e1 	mov	x1, x24
    1654:	aa1503e0 	mov	x0, x21
    1658:	94000a4c 	bl	3f88 <mbedtls_mpi_cmp_mpi>
    165c:	37f808c0 	tbnz	w0, #31, 1774 <mpi_egcd+0x430>
/home/nbshenxm/optee-project/rpi3/optee_os/lib/libutee/tee_api_arith_mpi.c:671
    1660:	aa1803e2 	mov	x2, x24
    1664:	aa1503e1 	mov	x1, x21
    1668:	aa1503e0 	mov	x0, x21
    166c:	94000b65 	bl	4400 <mbedtls_mpi_sub_mpi>
    1670:	34000620 	cbz	w0, 1734 <mpi_egcd+0x3f0>
/home/nbshenxm/optee-project/rpi3/optee_os/lib/libutee/tee_api_arith_mpi.c:671 (discriminator 1)
    1674:	2a0003e2 	mov	w2, w0
    1678:	528053e1 	mov	w1, #0x29f                 	// #671
    167c:	17ffff5e 	b	13f4 <mpi_egcd+0xb0>
/home/nbshenxm/optee-project/rpi3/optee_os/lib/libutee/tee_api_arith_mpi.c:660
    1680:	d2800021 	mov	x1, #0x1                   	// #1
    1684:	aa1803e0 	mov	x0, x24
    1688:	940009e7 	bl	3e24 <mbedtls_mpi_shift_r>
    168c:	34000080 	cbz	w0, 169c <mpi_egcd+0x358>
/home/nbshenxm/optee-project/rpi3/optee_os/lib/libutee/tee_api_arith_mpi.c:660 (discriminator 1)
    1690:	2a0003e2 	mov	w2, w0
    1694:	52805281 	mov	w1, #0x294                 	// #660
    1698:	17ffff57 	b	13f4 <mpi_egcd+0xb0>
/home/nbshenxm/optee-project/rpi3/optee_os/lib/libutee/tee_api_arith_mpi.c:661
    169c:	aa1403e0 	mov	x0, x20
    16a0:	97ffff17 	bl	12fc <mpi_is_odd>
    16a4:	72001c1f 	tst	w0, #0xff
    16a8:	54000120 	b.eq	16cc <mpi_egcd+0x388>  // b.none
/home/nbshenxm/optee-project/rpi3/optee_os/lib/libutee/tee_api_arith_mpi.c:662
    16ac:	aa1903e2 	mov	x2, x25
    16b0:	aa1403e1 	mov	x1, x20
    16b4:	aa1403e0 	mov	x0, x20
    16b8:	94000b30 	bl	4378 <mbedtls_mpi_add_mpi>
    16bc:	340001e0 	cbz	w0, 16f8 <mpi_egcd+0x3b4>
/home/nbshenxm/optee-project/rpi3/optee_os/lib/libutee/tee_api_arith_mpi.c:662 (discriminator 1)
    16c0:	2a0003e2 	mov	w2, w0
    16c4:	528052c1 	mov	w1, #0x296                 	// #662
    16c8:	17ffff4b 	b	13f4 <mpi_egcd+0xb0>
/home/nbshenxm/optee-project/rpi3/optee_os/lib/libutee/tee_api_arith_mpi.c:661 (discriminator 1)
    16cc:	aa1303e0 	mov	x0, x19
    16d0:	97ffff0b 	bl	12fc <mpi_is_odd>
    16d4:	72001c1f 	tst	w0, #0xff
    16d8:	54fffea1 	b.ne	16ac <mpi_egcd+0x368>  // b.any
/home/nbshenxm/optee-project/rpi3/optee_os/lib/libutee/tee_api_arith_mpi.c:665
    16dc:	d2800021 	mov	x1, #0x1                   	// #1
    16e0:	aa1403e0 	mov	x0, x20
    16e4:	940009d0 	bl	3e24 <mbedtls_mpi_shift_r>
    16e8:	34000180 	cbz	w0, 1718 <mpi_egcd+0x3d4>
/home/nbshenxm/optee-project/rpi3/optee_os/lib/libutee/tee_api_arith_mpi.c:665 (discriminator 1)
    16ec:	2a0003e2 	mov	w2, w0
    16f0:	52805321 	mov	w1, #0x299                 	// #665
    16f4:	17ffff40 	b	13f4 <mpi_egcd+0xb0>
/home/nbshenxm/optee-project/rpi3/optee_os/lib/libutee/tee_api_arith_mpi.c:663
    16f8:	aa1a03e2 	mov	x2, x26
    16fc:	aa1303e1 	mov	x1, x19
    1700:	aa1303e0 	mov	x0, x19
    1704:	94000b3f 	bl	4400 <mbedtls_mpi_sub_mpi>
    1708:	34fffea0 	cbz	w0, 16dc <mpi_egcd+0x398>
/home/nbshenxm/optee-project/rpi3/optee_os/lib/libutee/tee_api_arith_mpi.c:663 (discriminator 1)
    170c:	2a0003e2 	mov	w2, w0
    1710:	528052e1 	mov	w1, #0x297                 	// #663
    1714:	17ffff38 	b	13f4 <mpi_egcd+0xb0>
/home/nbshenxm/optee-project/rpi3/optee_os/lib/libutee/tee_api_arith_mpi.c:666
    1718:	d2800021 	mov	x1, #0x1                   	// #1
    171c:	aa1303e0 	mov	x0, x19
    1720:	940009c1 	bl	3e24 <mbedtls_mpi_shift_r>
    1724:	34fff8e0 	cbz	w0, 1640 <mpi_egcd+0x2fc>
/home/nbshenxm/optee-project/rpi3/optee_os/lib/libutee/tee_api_arith_mpi.c:666 (discriminator 1)
    1728:	2a0003e2 	mov	w2, w0
    172c:	52805341 	mov	w1, #0x29a                 	// #666
    1730:	17ffff31 	b	13f4 <mpi_egcd+0xb0>
/home/nbshenxm/optee-project/rpi3/optee_os/lib/libutee/tee_api_arith_mpi.c:672
    1734:	aa1403e2 	mov	x2, x20
    1738:	aa1703e1 	mov	x1, x23
    173c:	aa1703e0 	mov	x0, x23
    1740:	94000b30 	bl	4400 <mbedtls_mpi_sub_mpi>
    1744:	34000080 	cbz	w0, 1754 <mpi_egcd+0x410>
/home/nbshenxm/optee-project/rpi3/optee_os/lib/libutee/tee_api_arith_mpi.c:672 (discriminator 1)
    1748:	2a0003e2 	mov	w2, w0
    174c:	52805401 	mov	w1, #0x2a0                 	// #672
    1750:	17ffff29 	b	13f4 <mpi_egcd+0xb0>
/home/nbshenxm/optee-project/rpi3/optee_os/lib/libutee/tee_api_arith_mpi.c:673
    1754:	aa1303e2 	mov	x2, x19
    1758:	aa1603e1 	mov	x1, x22
    175c:	aa1603e0 	mov	x0, x22
    1760:	94000b28 	bl	4400 <mbedtls_mpi_sub_mpi>
    1764:	34000380 	cbz	w0, 17d4 <mpi_egcd+0x490>
/home/nbshenxm/optee-project/rpi3/optee_os/lib/libutee/tee_api_arith_mpi.c:673 (discriminator 1)
    1768:	2a0003e2 	mov	w2, w0
    176c:	52805421 	mov	w1, #0x2a1                 	// #673
    1770:	17ffff21 	b	13f4 <mpi_egcd+0xb0>
/home/nbshenxm/optee-project/rpi3/optee_os/lib/libutee/tee_api_arith_mpi.c:675
    1774:	aa1503e2 	mov	x2, x21
    1778:	aa1803e1 	mov	x1, x24
    177c:	aa1803e0 	mov	x0, x24
    1780:	94000b20 	bl	4400 <mbedtls_mpi_sub_mpi>
    1784:	34000080 	cbz	w0, 1794 <mpi_egcd+0x450>
/home/nbshenxm/optee-project/rpi3/optee_os/lib/libutee/tee_api_arith_mpi.c:675 (discriminator 1)
    1788:	2a0003e2 	mov	w2, w0
    178c:	52805461 	mov	w1, #0x2a3                 	// #675
    1790:	17ffff19 	b	13f4 <mpi_egcd+0xb0>
/home/nbshenxm/optee-project/rpi3/optee_os/lib/libutee/tee_api_arith_mpi.c:676
    1794:	aa1703e2 	mov	x2, x23
    1798:	aa1403e1 	mov	x1, x20
    179c:	aa1403e0 	mov	x0, x20
    17a0:	94000b18 	bl	4400 <mbedtls_mpi_sub_mpi>
    17a4:	34000080 	cbz	w0, 17b4 <mpi_egcd+0x470>
/home/nbshenxm/optee-project/rpi3/optee_os/lib/libutee/tee_api_arith_mpi.c:676 (discriminator 1)
    17a8:	2a0003e2 	mov	w2, w0
    17ac:	52805481 	mov	w1, #0x2a4                 	// #676
    17b0:	17ffff11 	b	13f4 <mpi_egcd+0xb0>
/home/nbshenxm/optee-project/rpi3/optee_os/lib/libutee/tee_api_arith_mpi.c:677
    17b4:	aa1603e2 	mov	x2, x22
    17b8:	aa1303e1 	mov	x1, x19
    17bc:	aa1303e0 	mov	x0, x19
    17c0:	94000b10 	bl	4400 <mbedtls_mpi_sub_mpi>
    17c4:	34000080 	cbz	w0, 17d4 <mpi_egcd+0x490>
/home/nbshenxm/optee-project/rpi3/optee_os/lib/libutee/tee_api_arith_mpi.c:677 (discriminator 1)
    17c8:	2a0003e2 	mov	w2, w0
    17cc:	528054a1 	mov	w1, #0x2a5                 	// #677
    17d0:	17ffff09 	b	13f4 <mpi_egcd+0xb0>
/home/nbshenxm/optee-project/rpi3/optee_os/lib/libutee/tee_api_arith_mpi.c:648
    17d4:	52800001 	mov	w1, #0x0                   	// #0
    17d8:	aa1503e0 	mov	x0, x21
    17dc:	94000a57 	bl	4138 <mbedtls_mpi_cmp_int>
    17e0:	35fff280 	cbnz	w0, 1630 <mpi_egcd+0x2ec>
/home/nbshenxm/optee-project/rpi3/optee_os/lib/libutee/tee_api_arith_mpi.c:681
    17e4:	9e660100 	fmov	x0, d8
    17e8:	aa1403e1 	mov	x1, x20
    17ec:	9400076b 	bl	3598 <mbedtls_mpi_copy>
    17f0:	34000080 	cbz	w0, 1800 <mpi_egcd+0x4bc>
/home/nbshenxm/optee-project/rpi3/optee_os/lib/libutee/tee_api_arith_mpi.c:681 (discriminator 1)
    17f4:	2a0003e2 	mov	w2, w0
    17f8:	52805521 	mov	w1, #0x2a9                 	// #681
    17fc:	17fffefe 	b	13f4 <mpi_egcd+0xb0>
/home/nbshenxm/optee-project/rpi3/optee_os/lib/libutee/tee_api_arith_mpi.c:682
    1800:	aa1303e1 	mov	x1, x19
    1804:	aa1c03e0 	mov	x0, x28
    1808:	94000764 	bl	3598 <mbedtls_mpi_copy>
    180c:	34000080 	cbz	w0, 181c <mpi_egcd+0x4d8>
/home/nbshenxm/optee-project/rpi3/optee_os/lib/libutee/tee_api_arith_mpi.c:682 (discriminator 1)
    1810:	2a0003e2 	mov	w2, w0
    1814:	52805541 	mov	w1, #0x2aa                 	// #682
    1818:	17fffef7 	b	13f4 <mpi_egcd+0xb0>
/home/nbshenxm/optee-project/rpi3/optee_os/lib/libutee/tee_api_arith_mpi.c:683
    181c:	2a1b03e1 	mov	w1, w27
    1820:	aa1803e0 	mov	x0, x24
    1824:	94000940 	bl	3d24 <mbedtls_mpi_shift_l>
    1828:	34000080 	cbz	w0, 1838 <mpi_egcd+0x4f4>
/home/nbshenxm/optee-project/rpi3/optee_os/lib/libutee/tee_api_arith_mpi.c:683 (discriminator 1)
    182c:	2a0003e2 	mov	w2, w0
    1830:	52805561 	mov	w1, #0x2ab                 	// #683
    1834:	17fffef0 	b	13f4 <mpi_egcd+0xb0>
/home/nbshenxm/optee-project/rpi3/optee_os/lib/libutee/tee_api_arith_mpi.c:686
    1838:	aa1703e0 	mov	x0, x23
    183c:	940006b6 	bl	3314 <mbedtls_mpi_free>
/home/nbshenxm/optee-project/rpi3/optee_os/lib/libutee/tee_api_arith_mpi.c:687
    1840:	aa1603e0 	mov	x0, x22
    1844:	940006b4 	bl	3314 <mbedtls_mpi_free>
/home/nbshenxm/optee-project/rpi3/optee_os/lib/libutee/tee_api_arith_mpi.c:688
    1848:	aa1403e0 	mov	x0, x20
    184c:	940006b2 	bl	3314 <mbedtls_mpi_free>
/home/nbshenxm/optee-project/rpi3/optee_os/lib/libutee/tee_api_arith_mpi.c:689
    1850:	aa1303e0 	mov	x0, x19
    1854:	940006b0 	bl	3314 <mbedtls_mpi_free>
/home/nbshenxm/optee-project/rpi3/optee_os/lib/libutee/tee_api_arith_mpi.c:690
    1858:	aa1a03e0 	mov	x0, x26
    185c:	940006ae 	bl	3314 <mbedtls_mpi_free>
/home/nbshenxm/optee-project/rpi3/optee_os/lib/libutee/tee_api_arith_mpi.c:691
    1860:	aa1903e0 	mov	x0, x25
    1864:	940006ac 	bl	3314 <mbedtls_mpi_free>
/home/nbshenxm/optee-project/rpi3/optee_os/lib/libutee/tee_api_arith_mpi.c:692
    1868:	aa1503e0 	mov	x0, x21
    186c:	940006aa 	bl	3314 <mbedtls_mpi_free>
/home/nbshenxm/optee-project/rpi3/optee_os/lib/libutee/tee_api_arith_mpi.c:693
    1870:	a94153f3 	ldp	x19, x20, [sp, #16]
    1874:	a9425bf5 	ldp	x21, x22, [sp, #32]
    1878:	a94363f7 	ldp	x23, x24, [sp, #48]
    187c:	a9446bf9 	ldp	x25, x26, [sp, #64]
    1880:	a94573fb 	ldp	x27, x28, [sp, #80]
    1884:	6d4627e8 	ldp	d8, d9, [sp, #96]
    1888:	a8d27bfd 	ldp	x29, x30, [sp], #288
    188c:	d65f03c0 	ret

0000000000001890 <_TEE_MathAPI_Init>:
_TEE_MathAPI_Init():
/home/nbshenxm/optee-project/rpi3/optee_os/lib/libutee/tee_api_arith_mpi.c:44
    1890:	a9bf7bfd 	stp	x29, x30, [sp, #-16]!
/home/nbshenxm/optee-project/rpi3/optee_os/lib/libutee/tee_api_arith_mpi.c:47
    1894:	d2860001 	mov	x1, #0x3000                	// #12288
    1898:	d2800002 	mov	x2, #0x0                   	// #0
/home/nbshenxm/optee-project/rpi3/optee_os/lib/libutee/tee_api_arith_mpi.c:44
    189c:	910003fd 	mov	x29, sp
/home/nbshenxm/optee-project/rpi3/optee_os/lib/libutee/tee_api_arith_mpi.c:47
    18a0:	f0000040 	adrp	x0, c000 <_DYNAMIC>
    18a4:	9112a000 	add	x0, x0, #0x4a8
    18a8:	94001bca 	bl	87d0 <mempool_alloc_pool>
    18ac:	f0000041 	adrp	x1, c000 <_DYNAMIC>
    18b0:	f940c821 	ldr	x1, [x1, #400]
    18b4:	f9000020 	str	x0, [x1]
/home/nbshenxm/optee-project/rpi3/optee_os/lib/libutee/tee_api_arith_mpi.c:48
    18b8:	b5000100 	cbnz	x0, 18d8 <_TEE_MathAPI_Init+0x48>
/home/nbshenxm/optee-project/rpi3/optee_os/lib/libutee/tee_api_arith_mpi.c:49
    18bc:	b0000040 	adrp	x0, a000 <__text_end+0x1594>
    18c0:	91272400 	add	x0, x0, #0x9c9
    18c4:	b0000042 	adrp	x2, a000 <__text_end+0x1594>
    18c8:	52800621 	mov	w1, #0x31                  	// #49
    18cc:	912d2c42 	add	x2, x2, #0xb4b
    18d0:	91007c00 	add	x0, x0, #0x1f
    18d4:	97fffded 	bl	1088 <api_panic>
/home/nbshenxm/optee-project/rpi3/optee_os/lib/libutee/tee_api_arith_mpi.c:50
    18d8:	a8c17bfd 	ldp	x29, x30, [sp], #16
    18dc:	d65f03c0 	ret

00000000000018e0 <TEE_BigIntInit>:
TEE_BigIntInit():
/home/nbshenxm/optee-project/rpi3/optee_os/lib/libutee/tee_api_arith_mpi.c:120
    18e0:	11007c22 	add	w2, w1, #0x1f
/home/nbshenxm/optee-project/rpi3/optee_os/lib/libutee/tee_api_arith_mpi.c:119
    18e4:	a9be7bfd 	stp	x29, x30, [sp, #-32]!
/home/nbshenxm/optee-project/rpi3/optee_os/lib/libutee/tee_api_arith_mpi.c:120
    18e8:	53057c42 	lsr	w2, w2, #5
/home/nbshenxm/optee-project/rpi3/optee_os/lib/libutee/tee_api_arith_mpi.c:119
    18ec:	910003fd 	mov	x29, sp
/home/nbshenxm/optee-project/rpi3/optee_os/lib/libutee/tee_api_arith_mpi.c:120
    18f0:	11000842 	add	w2, w2, #0x2
/home/nbshenxm/optee-project/rpi3/optee_os/lib/libutee/tee_api_arith_mpi.c:119
    18f4:	f9000bf3 	str	x19, [sp, #16]
    18f8:	2a0103f3 	mov	w19, w1
/home/nbshenxm/optee-project/rpi3/optee_os/lib/libutee/tee_api_arith_mpi.c:120
    18fc:	d37e6c42 	ubfiz	x2, x2, #2, #28
    1900:	52800001 	mov	w1, #0x0                   	// #0
    1904:	940017c2 	bl	780c <memset>
    1908:	aa0003e3 	mov	x3, x0
/home/nbshenxm/optee-project/rpi3/optee_os/lib/libutee/tee_api_arith_mpi.c:125
    190c:	52800020 	mov	w0, #0x1                   	// #1
/home/nbshenxm/optee-project/rpi3/optee_os/lib/libutee/tee_api_arith_mpi.c:126
    1910:	51000a73 	sub	w19, w19, #0x2
/home/nbshenxm/optee-project/rpi3/optee_os/lib/libutee/tee_api_arith_mpi.c:125
    1914:	b9000060 	str	w0, [x3]
/home/nbshenxm/optee-project/rpi3/optee_os/lib/libutee/tee_api_arith_mpi.c:126
    1918:	5284e200 	mov	w0, #0x2710                	// #10000
    191c:	6b00027f 	cmp	w19, w0
    1920:	54000109 	b.ls	1940 <TEE_BigIntInit+0x60>  // b.plast
/home/nbshenxm/optee-project/rpi3/optee_os/lib/libutee/tee_api_arith_mpi.c:127
    1924:	b0000040 	adrp	x0, a000 <__text_end+0x1594>
    1928:	91272400 	add	x0, x0, #0x9c9
    192c:	b0000042 	adrp	x2, a000 <__text_end+0x1594>
    1930:	52800fe1 	mov	w1, #0x7f                  	// #127
    1934:	912db042 	add	x2, x2, #0xb6c
    1938:	9100c400 	add	x0, x0, #0x31
    193c:	97fffdd3 	bl	1088 <api_panic>
/home/nbshenxm/optee-project/rpi3/optee_os/lib/libutee/tee_api_arith_mpi.c:128
    1940:	79000873 	strh	w19, [x3, #4]
/home/nbshenxm/optee-project/rpi3/optee_os/lib/libutee/tee_api_arith_mpi.c:129
    1944:	f9400bf3 	ldr	x19, [sp, #16]
    1948:	a8c27bfd 	ldp	x29, x30, [sp], #32
    194c:	d65f03c0 	ret

0000000000001950 <TEE_BigIntConvertFromOctetString>:
TEE_BigIntConvertFromOctetString():
/home/nbshenxm/optee-project/rpi3/optee_os/lib/libutee/tee_api_arith_mpi.c:134
    1950:	a9ba7bfd 	stp	x29, x30, [sp, #-96]!
    1954:	910003fd 	mov	x29, sp
    1958:	a90153f3 	stp	x19, x20, [sp, #16]
get_mpi():
/home/nbshenxm/optee-project/rpi3/optee_os/lib/libutee/tee_api_arith_mpi.c:101
    195c:	910123f3 	add	x19, sp, #0x48
TEE_BigIntConvertFromOctetString():
/home/nbshenxm/optee-project/rpi3/optee_os/lib/libutee/tee_api_arith_mpi.c:134
    1960:	2a0303f4 	mov	w20, w3
    1964:	a9025bf5 	stp	x21, x22, [sp, #32]
    1968:	2a0203f6 	mov	w22, w2
    196c:	aa0003f5 	mov	x21, x0
get_mpi():
/home/nbshenxm/optee-project/rpi3/optee_os/lib/libutee/tee_api_arith_mpi.c:101
    1970:	aa1303e0 	mov	x0, x19
TEE_BigIntConvertFromOctetString():
/home/nbshenxm/optee-project/rpi3/optee_os/lib/libutee/tee_api_arith_mpi.c:134
    1974:	f9001fe1 	str	x1, [sp, #56]
get_mpi():
/home/nbshenxm/optee-project/rpi3/optee_os/lib/libutee/tee_api_arith_mpi.c:101
    1978:	9400065d 	bl	32ec <mbedtls_mpi_init_mempool>
TEE_BigIntConvertFromOctetString():
/home/nbshenxm/optee-project/rpi3/optee_os/lib/libutee/tee_api_arith_mpi.c:140
    197c:	f9401fe1 	ldr	x1, [sp, #56]
    1980:	2a1603e2 	mov	w2, w22
    1984:	aa1303e0 	mov	x0, x19
    1988:	94000856 	bl	3ae0 <mbedtls_mpi_read_binary>
    198c:	350001e0 	cbnz	w0, 19c8 <TEE_BigIntConvertFromOctetString+0x78>
/home/nbshenxm/optee-project/rpi3/optee_os/lib/libutee/tee_api_arith_mpi.c:145
    1990:	36f80074 	tbz	w20, #31, 199c <TEE_BigIntConvertFromOctetString+0x4c>
/home/nbshenxm/optee-project/rpi3/optee_os/lib/libutee/tee_api_arith_mpi.c:146
    1994:	12800000 	mov	w0, #0xffffffff            	// #-1
    1998:	790093e0 	strh	w0, [sp, #72]
/home/nbshenxm/optee-project/rpi3/optee_os/lib/libutee/tee_api_arith_mpi.c:149
    199c:	aa1503e1 	mov	x1, x21
    19a0:	aa1303e0 	mov	x0, x19
    19a4:	97fffdf7 	bl	1180 <copy_mpi_to_bigint>
    19a8:	2a0003f4 	mov	w20, w0
/home/nbshenxm/optee-project/rpi3/optee_os/lib/libutee/tee_api_arith_mpi.c:151
    19ac:	aa1303e0 	mov	x0, x19
    19b0:	94000659 	bl	3314 <mbedtls_mpi_free>
/home/nbshenxm/optee-project/rpi3/optee_os/lib/libutee/tee_api_arith_mpi.c:154
    19b4:	2a1403e0 	mov	w0, w20
    19b8:	a94153f3 	ldp	x19, x20, [sp, #16]
    19bc:	a9425bf5 	ldp	x21, x22, [sp, #32]
    19c0:	a8c67bfd 	ldp	x29, x30, [sp], #96
    19c4:	d65f03c0 	ret
/home/nbshenxm/optee-project/rpi3/optee_os/lib/libutee/tee_api_arith_mpi.c:145
    19c8:	36f80074 	tbz	w20, #31, 19d4 <TEE_BigIntConvertFromOctetString+0x84>
/home/nbshenxm/optee-project/rpi3/optee_os/lib/libutee/tee_api_arith_mpi.c:146
    19cc:	12800000 	mov	w0, #0xffffffff            	// #-1
    19d0:	790093e0 	strh	w0, [sp, #72]
/home/nbshenxm/optee-project/rpi3/optee_os/lib/libutee/tee_api_arith_mpi.c:141
    19d4:	1299fe14 	mov	w20, #0xffff300f            	// #-53233
    19d8:	17fffff5 	b	19ac <TEE_BigIntConvertFromOctetString+0x5c>

00000000000019dc <TEE_BigIntConvertToOctetString>:
TEE_BigIntConvertToOctetString():
/home/nbshenxm/optee-project/rpi3/optee_os/lib/libutee/tee_api_arith_mpi.c:158
    19dc:	a9bb7bfd 	stp	x29, x30, [sp, #-80]!
    19e0:	910003fd 	mov	x29, sp
    19e4:	a9025bf5 	stp	x21, x22, [sp, #32]
    19e8:	aa0103f6 	mov	x22, x1
/home/nbshenxm/optee-project/rpi3/optee_os/lib/libutee/tee_api_arith_mpi.c:163
    19ec:	aa0203e1 	mov	x1, x2
/home/nbshenxm/optee-project/rpi3/optee_os/lib/libutee/tee_api_arith_mpi.c:158
    19f0:	a90153f3 	stp	x19, x20, [sp, #16]
/home/nbshenxm/optee-project/rpi3/optee_os/lib/libutee/tee_api_arith_mpi.c:163
    19f4:	9100e3f3 	add	x19, sp, #0x38
/home/nbshenxm/optee-project/rpi3/optee_os/lib/libutee/tee_api_arith_mpi.c:158
    19f8:	aa0003f5 	mov	x21, x0
/home/nbshenxm/optee-project/rpi3/optee_os/lib/libutee/tee_api_arith_mpi.c:163
    19fc:	aa1303e0 	mov	x0, x19
    1a00:	97fffdba 	bl	10e8 <get_mpi>
/home/nbshenxm/optee-project/rpi3/optee_os/lib/libutee/tee_api_arith_mpi.c:165
    1a04:	aa1303e0 	mov	x0, x19
    1a08:	94000806 	bl	3a20 <mbedtls_mpi_size>
    1a0c:	aa0003f4 	mov	x20, x0
/home/nbshenxm/optee-project/rpi3/optee_os/lib/libutee/tee_api_arith_mpi.c:166
    1a10:	b94002c0 	ldr	w0, [x22]
    1a14:	eb14001f 	cmp	x0, x20
    1a18:	540001a3 	b.cc	1a4c <TEE_BigIntConvertToOctetString+0x70>  // b.lo, b.ul, b.last
/home/nbshenxm/optee-project/rpi3/optee_os/lib/libutee/tee_api_arith_mpi.c:167
    1a1c:	aa1503e1 	mov	x1, x21
    1a20:	aa1403e2 	mov	x2, x20
    1a24:	aa1303e0 	mov	x0, x19
/home/nbshenxm/optee-project/rpi3/optee_os/lib/libutee/tee_api_arith_mpi.c:159
    1a28:	52800015 	mov	w21, #0x0                   	// #0
/home/nbshenxm/optee-project/rpi3/optee_os/lib/libutee/tee_api_arith_mpi.c:167
    1a2c:	9400088d 	bl	3c60 <mbedtls_mpi_write_binary>
    1a30:	34000100 	cbz	w0, 1a50 <TEE_BigIntConvertToOctetString+0x74>
/home/nbshenxm/optee-project/rpi3/optee_os/lib/libutee/tee_api_arith_mpi.c:167 (discriminator 1)
    1a34:	2a0003e2 	mov	w2, w0
    1a38:	b0000040 	adrp	x0, a000 <__text_end+0x1594>
    1a3c:	91272400 	add	x0, x0, #0x9c9
    1a40:	528014e1 	mov	w1, #0xa7                  	// #167
    1a44:	91010000 	add	x0, x0, #0x40
    1a48:	97fffd9c 	bl	10b8 <mpi_panic>
/home/nbshenxm/optee-project/rpi3/optee_os/lib/libutee/tee_api_arith_mpi.c:169
    1a4c:	129ffdf5 	mov	w21, #0xffff0010            	// #-65520
/home/nbshenxm/optee-project/rpi3/optee_os/lib/libutee/tee_api_arith_mpi.c:171
    1a50:	b90002d4 	str	w20, [x22]
/home/nbshenxm/optee-project/rpi3/optee_os/lib/libutee/tee_api_arith_mpi.c:173
    1a54:	aa1303e0 	mov	x0, x19
    1a58:	9400062f 	bl	3314 <mbedtls_mpi_free>
/home/nbshenxm/optee-project/rpi3/optee_os/lib/libutee/tee_api_arith_mpi.c:176
    1a5c:	2a1503e0 	mov	w0, w21
    1a60:	a94153f3 	ldp	x19, x20, [sp, #16]
    1a64:	a9425bf5 	ldp	x21, x22, [sp, #32]
    1a68:	a8c57bfd 	ldp	x29, x30, [sp], #80
    1a6c:	d65f03c0 	ret

0000000000001a70 <TEE_BigIntConvertFromS32>:
TEE_BigIntConvertFromS32():
/home/nbshenxm/optee-project/rpi3/optee_os/lib/libutee/tee_api_arith_mpi.c:179
    1a70:	a9bb7bfd 	stp	x29, x30, [sp, #-80]!
    1a74:	910003fd 	mov	x29, sp
    1a78:	a90153f3 	stp	x19, x20, [sp, #16]
/home/nbshenxm/optee-project/rpi3/optee_os/lib/libutee/tee_api_arith_mpi.c:182
    1a7c:	9100e3f3 	add	x19, sp, #0x38
/home/nbshenxm/optee-project/rpi3/optee_os/lib/libutee/tee_api_arith_mpi.c:179
    1a80:	aa0003f4 	mov	x20, x0
    1a84:	f90013f5 	str	x21, [sp, #32]
    1a88:	2a0103f5 	mov	w21, w1
/home/nbshenxm/optee-project/rpi3/optee_os/lib/libutee/tee_api_arith_mpi.c:182
    1a8c:	aa0003e1 	mov	x1, x0
    1a90:	aa1303e0 	mov	x0, x19
    1a94:	97fffd95 	bl	10e8 <get_mpi>
/home/nbshenxm/optee-project/rpi3/optee_os/lib/libutee/tee_api_arith_mpi.c:184
    1a98:	2a1503e1 	mov	w1, w21
    1a9c:	aa1303e0 	mov	x0, x19
    1aa0:	9400076c 	bl	3850 <mbedtls_mpi_lset>
    1aa4:	340000e0 	cbz	w0, 1ac0 <TEE_BigIntConvertFromS32+0x50>
/home/nbshenxm/optee-project/rpi3/optee_os/lib/libutee/tee_api_arith_mpi.c:184 (discriminator 1)
    1aa8:	2a0003e2 	mov	w2, w0
    1aac:	52801701 	mov	w1, #0xb8                  	// #184
/home/nbshenxm/optee-project/rpi3/optee_os/lib/libutee/tee_api_arith_mpi.c:186 (discriminator 1)
    1ab0:	b0000040 	adrp	x0, a000 <__text_end+0x1594>
    1ab4:	91272400 	add	x0, x0, #0x9c9
    1ab8:	91017c00 	add	x0, x0, #0x5f
    1abc:	97fffd7f 	bl	10b8 <mpi_panic>
/home/nbshenxm/optee-project/rpi3/optee_os/lib/libutee/tee_api_arith_mpi.c:186
    1ac0:	aa1403e1 	mov	x1, x20
    1ac4:	aa1303e0 	mov	x0, x19
    1ac8:	97fffdae 	bl	1180 <copy_mpi_to_bigint>
    1acc:	34000080 	cbz	w0, 1adc <TEE_BigIntConvertFromS32+0x6c>
/home/nbshenxm/optee-project/rpi3/optee_os/lib/libutee/tee_api_arith_mpi.c:186 (discriminator 1)
    1ad0:	2a0003e2 	mov	w2, w0
    1ad4:	52801741 	mov	w1, #0xba                  	// #186
    1ad8:	17fffff6 	b	1ab0 <TEE_BigIntConvertFromS32+0x40>
/home/nbshenxm/optee-project/rpi3/optee_os/lib/libutee/tee_api_arith_mpi.c:187
    1adc:	aa1303e0 	mov	x0, x19
    1ae0:	9400060d 	bl	3314 <mbedtls_mpi_free>
/home/nbshenxm/optee-project/rpi3/optee_os/lib/libutee/tee_api_arith_mpi.c:188
    1ae4:	a94153f3 	ldp	x19, x20, [sp, #16]
    1ae8:	f94013f5 	ldr	x21, [sp, #32]
    1aec:	a8c57bfd 	ldp	x29, x30, [sp], #80
    1af0:	d65f03c0 	ret

0000000000001af4 <TEE_BigIntConvertToS32>:
TEE_BigIntConvertToS32():
/home/nbshenxm/optee-project/rpi3/optee_os/lib/libutee/tee_api_arith_mpi.c:191
    1af4:	a9bc7bfd 	stp	x29, x30, [sp, #-64]!
    1af8:	910003fd 	mov	x29, sp
    1afc:	a90153f3 	stp	x19, x20, [sp, #16]
/home/nbshenxm/optee-project/rpi3/optee_os/lib/libutee/tee_api_arith_mpi.c:196
    1b00:	9100a3f3 	add	x19, sp, #0x28
/home/nbshenxm/optee-project/rpi3/optee_os/lib/libutee/tee_api_arith_mpi.c:191
    1b04:	aa0003f4 	mov	x20, x0
/home/nbshenxm/optee-project/rpi3/optee_os/lib/libutee/tee_api_arith_mpi.c:196
    1b08:	aa1303e0 	mov	x0, x19
    1b0c:	97fffd77 	bl	10e8 <get_mpi>
/home/nbshenxm/optee-project/rpi3/optee_os/lib/libutee/tee_api_arith_mpi.c:198
    1b10:	d2800082 	mov	x2, #0x4                   	// #4
    1b14:	910093e1 	add	x1, sp, #0x24
    1b18:	aa1303e0 	mov	x0, x19
    1b1c:	94000851 	bl	3c60 <mbedtls_mpi_write_binary>
    1b20:	34000100 	cbz	w0, 1b40 <TEE_BigIntConvertToS32+0x4c>
/home/nbshenxm/optee-project/rpi3/optee_os/lib/libutee/tee_api_arith_mpi.c:199
    1b24:	1299fe14 	mov	w20, #0xffff300f            	// #-53233
/home/nbshenxm/optee-project/rpi3/optee_os/lib/libutee/tee_api_arith_mpi.c:212
    1b28:	aa1303e0 	mov	x0, x19
    1b2c:	940005fa 	bl	3314 <mbedtls_mpi_free>
/home/nbshenxm/optee-project/rpi3/optee_os/lib/libutee/tee_api_arith_mpi.c:215
    1b30:	2a1403e0 	mov	w0, w20
    1b34:	a94153f3 	ldp	x19, x20, [sp, #16]
    1b38:	a8c47bfd 	ldp	x29, x30, [sp], #64
    1b3c:	d65f03c0 	ret
/home/nbshenxm/optee-project/rpi3/optee_os/lib/libutee/tee_api_arith_mpi.c:203
    1b40:	b94027e1 	ldr	w1, [sp, #36]
    1b44:	79c053e0 	ldrsh	w0, [sp, #40]
    1b48:	5ac00821 	rev	w1, w1
    1b4c:	7100001f 	cmp	w0, #0x0
    1b50:	2a0103e0 	mov	w0, w1
    1b54:	540000cd 	b.le	1b6c <TEE_BigIntConvertToS32+0x78>
/home/nbshenxm/optee-project/rpi3/optee_os/lib/libutee/tee_api_arith_mpi.c:204
    1b58:	eb21c01f 	cmp	x0, w1, sxtw
    1b5c:	b9000281 	str	w1, [x20]
/home/nbshenxm/optee-project/rpi3/optee_os/lib/libutee/tee_api_arith_mpi.c:207
    1b60:	54fffe21 	b.ne	1b24 <TEE_BigIntConvertToS32+0x30>  // b.any
/home/nbshenxm/optee-project/rpi3/optee_os/lib/libutee/tee_api_arith_mpi.c:192
    1b64:	52800014 	mov	w20, #0x0                   	// #0
    1b68:	17fffff0 	b	1b28 <TEE_BigIntConvertToS32+0x34>
/home/nbshenxm/optee-project/rpi3/optee_os/lib/libutee/tee_api_arith_mpi.c:207
    1b6c:	cb0003e0 	neg	x0, x0
    1b70:	b9000280 	str	w0, [x20]
    1b74:	eb20c01f 	cmp	x0, w0, sxtw
    1b78:	17fffffa 	b	1b60 <TEE_BigIntConvertToS32+0x6c>

0000000000001b7c <TEE_BigIntCmp>:
TEE_BigIntCmp():
/home/nbshenxm/optee-project/rpi3/optee_os/lib/libutee/tee_api_arith_mpi.c:218
    1b7c:	a9ba7bfd 	stp	x29, x30, [sp, #-96]!
    1b80:	910003fd 	mov	x29, sp
    1b84:	a90153f3 	stp	x19, x20, [sp, #16]
/home/nbshenxm/optee-project/rpi3/optee_os/lib/libutee/tee_api_arith_mpi.c:223
    1b88:	9100c3f4 	add	x20, sp, #0x30
/home/nbshenxm/optee-project/rpi3/optee_os/lib/libutee/tee_api_arith_mpi.c:224
    1b8c:	910123f3 	add	x19, sp, #0x48
/home/nbshenxm/optee-project/rpi3/optee_os/lib/libutee/tee_api_arith_mpi.c:218
    1b90:	f90013f5 	str	x21, [sp, #32]
    1b94:	aa0103f5 	mov	x21, x1
/home/nbshenxm/optee-project/rpi3/optee_os/lib/libutee/tee_api_arith_mpi.c:223
    1b98:	aa0003e1 	mov	x1, x0
    1b9c:	aa1403e0 	mov	x0, x20
    1ba0:	97fffd52 	bl	10e8 <get_mpi>
/home/nbshenxm/optee-project/rpi3/optee_os/lib/libutee/tee_api_arith_mpi.c:224
    1ba4:	aa1503e1 	mov	x1, x21
    1ba8:	aa1303e0 	mov	x0, x19
    1bac:	97fffd4f 	bl	10e8 <get_mpi>
/home/nbshenxm/optee-project/rpi3/optee_os/lib/libutee/tee_api_arith_mpi.c:226
    1bb0:	aa1303e1 	mov	x1, x19
    1bb4:	aa1403e0 	mov	x0, x20
    1bb8:	940008f4 	bl	3f88 <mbedtls_mpi_cmp_mpi>
    1bbc:	2a0003f5 	mov	w21, w0
/home/nbshenxm/optee-project/rpi3/optee_os/lib/libutee/tee_api_arith_mpi.c:228
    1bc0:	aa1403e0 	mov	x0, x20
    1bc4:	940005d4 	bl	3314 <mbedtls_mpi_free>
/home/nbshenxm/optee-project/rpi3/optee_os/lib/libutee/tee_api_arith_mpi.c:229
    1bc8:	aa1303e0 	mov	x0, x19
    1bcc:	940005d2 	bl	3314 <mbedtls_mpi_free>
/home/nbshenxm/optee-project/rpi3/optee_os/lib/libutee/tee_api_arith_mpi.c:232
    1bd0:	2a1503e0 	mov	w0, w21
    1bd4:	a94153f3 	ldp	x19, x20, [sp, #16]
    1bd8:	f94013f5 	ldr	x21, [sp, #32]
    1bdc:	a8c67bfd 	ldp	x29, x30, [sp], #96
    1be0:	d65f03c0 	ret

0000000000001be4 <TEE_BigIntCmpS32>:
TEE_BigIntCmpS32():
/home/nbshenxm/optee-project/rpi3/optee_os/lib/libutee/tee_api_arith_mpi.c:235
    1be4:	a9bc7bfd 	stp	x29, x30, [sp, #-64]!
    1be8:	910003fd 	mov	x29, sp
    1bec:	a90153f3 	stp	x19, x20, [sp, #16]
/home/nbshenxm/optee-project/rpi3/optee_os/lib/libutee/tee_api_arith_mpi.c:239
    1bf0:	9100a3f3 	add	x19, sp, #0x28
/home/nbshenxm/optee-project/rpi3/optee_os/lib/libutee/tee_api_arith_mpi.c:235
    1bf4:	2a0103f4 	mov	w20, w1
/home/nbshenxm/optee-project/rpi3/optee_os/lib/libutee/tee_api_arith_mpi.c:239
    1bf8:	aa0003e1 	mov	x1, x0
    1bfc:	aa1303e0 	mov	x0, x19
    1c00:	97fffd3a 	bl	10e8 <get_mpi>
/home/nbshenxm/optee-project/rpi3/optee_os/lib/libutee/tee_api_arith_mpi.c:241
    1c04:	2a1403e1 	mov	w1, w20
    1c08:	aa1303e0 	mov	x0, x19
    1c0c:	9400094b 	bl	4138 <mbedtls_mpi_cmp_int>
    1c10:	2a0003f4 	mov	w20, w0
/home/nbshenxm/optee-project/rpi3/optee_os/lib/libutee/tee_api_arith_mpi.c:243
    1c14:	aa1303e0 	mov	x0, x19
    1c18:	940005bf 	bl	3314 <mbedtls_mpi_free>
/home/nbshenxm/optee-project/rpi3/optee_os/lib/libutee/tee_api_arith_mpi.c:246
    1c1c:	2a1403e0 	mov	w0, w20
    1c20:	a94153f3 	ldp	x19, x20, [sp, #16]
    1c24:	a8c47bfd 	ldp	x29, x30, [sp], #64
    1c28:	d65f03c0 	ret

0000000000001c2c <bigint_binary_mod>:
bigint_binary_mod():
/home/nbshenxm/optee-project/rpi3/optee_os/lib/libutee/tee_api_arith_mpi.c:356
    1c2c:	a9b27bfd 	stp	x29, x30, [sp, #-224]!
    1c30:	910003fd 	mov	x29, sp
    1c34:	a90153f3 	stp	x19, x20, [sp, #16]
    1c38:	aa0203f4 	mov	x20, x2
    1c3c:	a9025bf5 	stp	x21, x22, [sp, #32]
    1c40:	aa0103f6 	mov	x22, x1
    1c44:	aa0303f5 	mov	x21, x3
/home/nbshenxm/optee-project/rpi3/optee_os/lib/libutee/tee_api_arith_mpi.c:357
    1c48:	52800041 	mov	w1, #0x2                   	// #2
/home/nbshenxm/optee-project/rpi3/optee_os/lib/libutee/tee_api_arith_mpi.c:356
    1c4c:	a90363f7 	stp	x23, x24, [sp, #48]
    1c50:	aa0003f7 	mov	x23, x0
/home/nbshenxm/optee-project/rpi3/optee_os/lib/libutee/tee_api_arith_mpi.c:357
    1c54:	aa0303e0 	mov	x0, x3
/home/nbshenxm/optee-project/rpi3/optee_os/lib/libutee/tee_api_arith_mpi.c:356
    1c58:	a9046bf9 	stp	x25, x26, [sp, #64]
    1c5c:	f9002bfb 	str	x27, [sp, #80]
    1c60:	aa0403fb 	mov	x27, x4
/home/nbshenxm/optee-project/rpi3/optee_os/lib/libutee/tee_api_arith_mpi.c:357
    1c64:	97ffffe0 	bl	1be4 <TEE_BigIntCmpS32>
    1c68:	36f80100 	tbz	w0, #31, 1c88 <bigint_binary_mod+0x5c>
/home/nbshenxm/optee-project/rpi3/optee_os/lib/libutee/tee_api_arith_mpi.c:358
    1c6c:	b0000040 	adrp	x0, a000 <__text_end+0x1594>
    1c70:	91272400 	add	x0, x0, #0x9c9
    1c74:	b0000042 	adrp	x2, a000 <__text_end+0x1594>
    1c78:	52802cc1 	mov	w1, #0x166                 	// #358
    1c7c:	912df442 	add	x2, x2, #0xb7d
    1c80:	9101e000 	add	x0, x0, #0x78
    1c84:	97fffd01 	bl	1088 <api_panic>
/home/nbshenxm/optee-project/rpi3/optee_os/lib/libutee/tee_api_arith_mpi.c:368
    1c88:	9101a3f3 	add	x19, sp, #0x68
    1c8c:	aa1703e1 	mov	x1, x23
    1c90:	aa1303e0 	mov	x0, x19
/home/nbshenxm/optee-project/rpi3/optee_os/lib/libutee/tee_api_arith_mpi.c:369
    1c94:	9102c3fa 	add	x26, sp, #0xb0
/home/nbshenxm/optee-project/rpi3/optee_os/lib/libutee/tee_api_arith_mpi.c:368
    1c98:	97fffd14 	bl	10e8 <get_mpi>
/home/nbshenxm/optee-project/rpi3/optee_os/lib/libutee/tee_api_arith_mpi.c:369
    1c9c:	910203f9 	add	x25, sp, #0x80
    1ca0:	aa1503e1 	mov	x1, x21
    1ca4:	aa1a03e0 	mov	x0, x26
    1ca8:	97fffd10 	bl	10e8 <get_mpi>
/home/nbshenxm/optee-project/rpi3/optee_os/lib/libutee/tee_api_arith_mpi.c:371
    1cac:	eb1602ff 	cmp	x23, x22
    1cb0:	54000380 	b.eq	1d20 <bigint_binary_mod+0xf4>  // b.none
/home/nbshenxm/optee-project/rpi3/optee_os/lib/libutee/tee_api_arith_mpi.c:364
    1cb4:	aa1903f5 	mov	x21, x25
/home/nbshenxm/optee-project/rpi3/optee_os/lib/libutee/tee_api_arith_mpi.c:374
    1cb8:	aa1603e1 	mov	x1, x22
    1cbc:	aa1903e0 	mov	x0, x25
    1cc0:	97fffd0a 	bl	10e8 <get_mpi>
/home/nbshenxm/optee-project/rpi3/optee_os/lib/libutee/tee_api_arith_mpi.c:376
    1cc4:	eb1402ff 	cmp	x23, x20
    1cc8:	910263f8 	add	x24, sp, #0x98
    1ccc:	540002e0 	b.eq	1d28 <bigint_binary_mod+0xfc>  // b.none
/home/nbshenxm/optee-project/rpi3/optee_os/lib/libutee/tee_api_arith_mpi.c:378
    1cd0:	eb1402df 	cmp	x22, x20
    1cd4:	540002e0 	b.eq	1d30 <bigint_binary_mod+0x104>  // b.none
/home/nbshenxm/optee-project/rpi3/optee_os/lib/libutee/tee_api_arith_mpi.c:381
    1cd8:	aa1403e1 	mov	x1, x20
/home/nbshenxm/optee-project/rpi3/optee_os/lib/libutee/tee_api_arith_mpi.c:365
    1cdc:	aa1803f4 	mov	x20, x24
/home/nbshenxm/optee-project/rpi3/optee_os/lib/libutee/tee_api_arith_mpi.c:381
    1ce0:	aa1803e0 	mov	x0, x24
    1ce4:	97fffd01 	bl	10e8 <get_mpi>
get_mpi():
/home/nbshenxm/optee-project/rpi3/optee_os/lib/libutee/tee_api_arith_mpi.c:101
    1ce8:	910323f6 	add	x22, sp, #0xc8
    1cec:	aa1603e0 	mov	x0, x22
    1cf0:	9400057f 	bl	32ec <mbedtls_mpi_init_mempool>
bigint_binary_mod():
/home/nbshenxm/optee-project/rpi3/optee_os/lib/libutee/tee_api_arith_mpi.c:385
    1cf4:	aa1403e2 	mov	x2, x20
    1cf8:	aa1503e1 	mov	x1, x21
    1cfc:	aa1603e0 	mov	x0, x22
    1d00:	d63f0360 	blr	x27
    1d04:	340001a0 	cbz	w0, 1d38 <bigint_binary_mod+0x10c>
/home/nbshenxm/optee-project/rpi3/optee_os/lib/libutee/tee_api_arith_mpi.c:385 (discriminator 1)
    1d08:	2a0003e2 	mov	w2, w0
    1d0c:	52803021 	mov	w1, #0x181                 	// #385
/home/nbshenxm/optee-project/rpi3/optee_os/lib/libutee/tee_api_arith_mpi.c:386 (discriminator 1)
    1d10:	b0000040 	adrp	x0, a000 <__text_end+0x1594>
    1d14:	91272400 	add	x0, x0, #0x9c9
    1d18:	9101e000 	add	x0, x0, #0x78
    1d1c:	97fffce7 	bl	10b8 <mpi_panic>
/home/nbshenxm/optee-project/rpi3/optee_os/lib/libutee/tee_api_arith_mpi.c:372
    1d20:	aa1303f5 	mov	x21, x19
    1d24:	17ffffe8 	b	1cc4 <bigint_binary_mod+0x98>
/home/nbshenxm/optee-project/rpi3/optee_os/lib/libutee/tee_api_arith_mpi.c:377
    1d28:	aa1303f4 	mov	x20, x19
    1d2c:	17ffffef 	b	1ce8 <bigint_binary_mod+0xbc>
/home/nbshenxm/optee-project/rpi3/optee_os/lib/libutee/tee_api_arith_mpi.c:379
    1d30:	aa1503f4 	mov	x20, x21
    1d34:	17ffffed 	b	1ce8 <bigint_binary_mod+0xbc>
/home/nbshenxm/optee-project/rpi3/optee_os/lib/libutee/tee_api_arith_mpi.c:386
    1d38:	aa1a03e2 	mov	x2, x26
    1d3c:	aa1603e1 	mov	x1, x22
    1d40:	aa1303e0 	mov	x0, x19
    1d44:	94000c15 	bl	4d98 <mbedtls_mpi_mod_mpi>
    1d48:	34000080 	cbz	w0, 1d58 <bigint_binary_mod+0x12c>
/home/nbshenxm/optee-project/rpi3/optee_os/lib/libutee/tee_api_arith_mpi.c:386 (discriminator 1)
    1d4c:	2a0003e2 	mov	w2, w0
    1d50:	52803041 	mov	w1, #0x182                 	// #386
    1d54:	17ffffef 	b	1d10 <bigint_binary_mod+0xe4>
/home/nbshenxm/optee-project/rpi3/optee_os/lib/libutee/tee_api_arith_mpi.c:388
    1d58:	aa1703e1 	mov	x1, x23
    1d5c:	aa1303e0 	mov	x0, x19
    1d60:	97fffd08 	bl	1180 <copy_mpi_to_bigint>
    1d64:	34000080 	cbz	w0, 1d74 <bigint_binary_mod+0x148>
/home/nbshenxm/optee-project/rpi3/optee_os/lib/libutee/tee_api_arith_mpi.c:388 (discriminator 1)
    1d68:	2a0003e2 	mov	w2, w0
    1d6c:	52803081 	mov	w1, #0x184                 	// #388
    1d70:	17ffffe8 	b	1d10 <bigint_binary_mod+0xe4>
/home/nbshenxm/optee-project/rpi3/optee_os/lib/libutee/tee_api_arith_mpi.c:389
    1d74:	aa1303e0 	mov	x0, x19
    1d78:	94000567 	bl	3314 <mbedtls_mpi_free>
/home/nbshenxm/optee-project/rpi3/optee_os/lib/libutee/tee_api_arith_mpi.c:390
    1d7c:	eb1902bf 	cmp	x21, x25
    1d80:	54000061 	b.ne	1d8c <bigint_binary_mod+0x160>  // b.any
/home/nbshenxm/optee-project/rpi3/optee_os/lib/libutee/tee_api_arith_mpi.c:391
    1d84:	aa1503e0 	mov	x0, x21
    1d88:	94000563 	bl	3314 <mbedtls_mpi_free>
/home/nbshenxm/optee-project/rpi3/optee_os/lib/libutee/tee_api_arith_mpi.c:392
    1d8c:	eb18029f 	cmp	x20, x24
    1d90:	54000061 	b.ne	1d9c <bigint_binary_mod+0x170>  // b.any
/home/nbshenxm/optee-project/rpi3/optee_os/lib/libutee/tee_api_arith_mpi.c:393
    1d94:	aa1403e0 	mov	x0, x20
    1d98:	9400055f 	bl	3314 <mbedtls_mpi_free>
/home/nbshenxm/optee-project/rpi3/optee_os/lib/libutee/tee_api_arith_mpi.c:394
    1d9c:	aa1603e0 	mov	x0, x22
    1da0:	9400055d 	bl	3314 <mbedtls_mpi_free>
/home/nbshenxm/optee-project/rpi3/optee_os/lib/libutee/tee_api_arith_mpi.c:395
    1da4:	a94153f3 	ldp	x19, x20, [sp, #16]
    1da8:	a9425bf5 	ldp	x21, x22, [sp, #32]
    1dac:	a94363f7 	ldp	x23, x24, [sp, #48]
    1db0:	a9446bf9 	ldp	x25, x26, [sp, #64]
    1db4:	f9402bfb 	ldr	x27, [sp, #80]
    1db8:	a8ce7bfd 	ldp	x29, x30, [sp], #224
    1dbc:	d65f03c0 	ret

0000000000001dc0 <TEE_BigIntShiftRight>:
TEE_BigIntShiftRight():
/home/nbshenxm/optee-project/rpi3/optee_os/lib/libutee/tee_api_arith_mpi.c:249
    1dc0:	a9b77bfd 	stp	x29, x30, [sp, #-144]!
    1dc4:	910003fd 	mov	x29, sp
    1dc8:	a90153f3 	stp	x19, x20, [sp, #16]
/home/nbshenxm/optee-project/rpi3/optee_os/lib/libutee/tee_api_arith_mpi.c:253
    1dcc:	910123f3 	add	x19, sp, #0x48
/home/nbshenxm/optee-project/rpi3/optee_os/lib/libutee/tee_api_arith_mpi.c:249
    1dd0:	a9025bf5 	stp	x21, x22, [sp, #32]
    1dd4:	aa0003f6 	mov	x22, x0
    1dd8:	aa0103f5 	mov	x21, x1
/home/nbshenxm/optee-project/rpi3/optee_os/lib/libutee/tee_api_arith_mpi.c:253
    1ddc:	aa0003e1 	mov	x1, x0
    1de0:	aa1303e0 	mov	x0, x19
/home/nbshenxm/optee-project/rpi3/optee_os/lib/libutee/tee_api_arith_mpi.c:249
    1de4:	f9001bf7 	str	x23, [sp, #48]
    1de8:	aa0203f7 	mov	x23, x2
/home/nbshenxm/optee-project/rpi3/optee_os/lib/libutee/tee_api_arith_mpi.c:253
    1dec:	97fffcbf 	bl	10e8 <get_mpi>
/home/nbshenxm/optee-project/rpi3/optee_os/lib/libutee/tee_api_arith_mpi.c:255
    1df0:	eb1502df 	cmp	x22, x21
    1df4:	54000161 	b.ne	1e20 <TEE_BigIntShiftRight+0x60>  // b.any
/home/nbshenxm/optee-project/rpi3/optee_os/lib/libutee/tee_api_arith_mpi.c:256
    1df8:	aa1703e1 	mov	x1, x23
    1dfc:	aa1303e0 	mov	x0, x19
    1e00:	94000809 	bl	3e24 <mbedtls_mpi_shift_r>
    1e04:	34000780 	cbz	w0, 1ef4 <TEE_BigIntShiftRight+0x134>
/home/nbshenxm/optee-project/rpi3/optee_os/lib/libutee/tee_api_arith_mpi.c:256 (discriminator 1)
    1e08:	2a0003e2 	mov	w2, w0
    1e0c:	52802001 	mov	w1, #0x100                 	// #256
/home/nbshenxm/optee-project/rpi3/optee_os/lib/libutee/tee_api_arith_mpi.c:263 (discriminator 1)
    1e10:	b0000040 	adrp	x0, a000 <__text_end+0x1594>
    1e14:	91272400 	add	x0, x0, #0x9c9
    1e18:	91022800 	add	x0, x0, #0x8a
    1e1c:	97fffca7 	bl	10b8 <mpi_panic>
/home/nbshenxm/optee-project/rpi3/optee_os/lib/libutee/tee_api_arith_mpi.c:260
    1e20:	aa1503e1 	mov	x1, x21
    1e24:	910183f4 	add	x20, sp, #0x60
    1e28:	aa1403e0 	mov	x0, x20
    1e2c:	97fffcaf 	bl	10e8 <get_mpi>
/home/nbshenxm/optee-project/rpi3/optee_os/lib/libutee/tee_api_arith_mpi.c:262
    1e30:	aa1303e0 	mov	x0, x19
    1e34:	940006fb 	bl	3a20 <mbedtls_mpi_size>
    1e38:	aa0003f5 	mov	x21, x0
    1e3c:	aa1403e0 	mov	x0, x20
    1e40:	940006f8 	bl	3a20 <mbedtls_mpi_size>
    1e44:	eb0002bf 	cmp	x21, x0
    1e48:	540001e3 	b.cc	1e84 <TEE_BigIntShiftRight+0xc4>  // b.lo, b.ul, b.last
/home/nbshenxm/optee-project/rpi3/optee_os/lib/libutee/tee_api_arith_mpi.c:263
    1e4c:	aa1403e1 	mov	x1, x20
    1e50:	aa1303e0 	mov	x0, x19
    1e54:	940005d1 	bl	3598 <mbedtls_mpi_copy>
    1e58:	34000080 	cbz	w0, 1e68 <TEE_BigIntShiftRight+0xa8>
/home/nbshenxm/optee-project/rpi3/optee_os/lib/libutee/tee_api_arith_mpi.c:263 (discriminator 1)
    1e5c:	2a0003e2 	mov	w2, w0
    1e60:	528020e1 	mov	w1, #0x107                 	// #263
    1e64:	17ffffeb 	b	1e10 <TEE_BigIntShiftRight+0x50>
/home/nbshenxm/optee-project/rpi3/optee_os/lib/libutee/tee_api_arith_mpi.c:264
    1e68:	aa1703e1 	mov	x1, x23
    1e6c:	aa1303e0 	mov	x0, x19
    1e70:	940007ed 	bl	3e24 <mbedtls_mpi_shift_r>
    1e74:	340003c0 	cbz	w0, 1eec <TEE_BigIntShiftRight+0x12c>
/home/nbshenxm/optee-project/rpi3/optee_os/lib/libutee/tee_api_arith_mpi.c:264 (discriminator 1)
    1e78:	2a0003e2 	mov	w2, w0
    1e7c:	52802101 	mov	w1, #0x108                 	// #264
    1e80:	17ffffe4 	b	1e10 <TEE_BigIntShiftRight+0x50>
get_mpi():
/home/nbshenxm/optee-project/rpi3/optee_os/lib/libutee/tee_api_arith_mpi.c:101
    1e84:	9101e3f5 	add	x21, sp, #0x78
    1e88:	aa1503e0 	mov	x0, x21
    1e8c:	94000518 	bl	32ec <mbedtls_mpi_init_mempool>
TEE_BigIntShiftRight():
/home/nbshenxm/optee-project/rpi3/optee_os/lib/libutee/tee_api_arith_mpi.c:275
    1e90:	aa1403e1 	mov	x1, x20
    1e94:	aa1503e0 	mov	x0, x21
    1e98:	940005c0 	bl	3598 <mbedtls_mpi_copy>
    1e9c:	34000080 	cbz	w0, 1eac <TEE_BigIntShiftRight+0xec>
/home/nbshenxm/optee-project/rpi3/optee_os/lib/libutee/tee_api_arith_mpi.c:275 (discriminator 1)
    1ea0:	2a0003e2 	mov	w2, w0
    1ea4:	52802261 	mov	w1, #0x113                 	// #275
    1ea8:	17ffffda 	b	1e10 <TEE_BigIntShiftRight+0x50>
/home/nbshenxm/optee-project/rpi3/optee_os/lib/libutee/tee_api_arith_mpi.c:276
    1eac:	aa1703e1 	mov	x1, x23
    1eb0:	aa1503e0 	mov	x0, x21
    1eb4:	940007dc 	bl	3e24 <mbedtls_mpi_shift_r>
    1eb8:	34000080 	cbz	w0, 1ec8 <TEE_BigIntShiftRight+0x108>
/home/nbshenxm/optee-project/rpi3/optee_os/lib/libutee/tee_api_arith_mpi.c:276 (discriminator 1)
    1ebc:	2a0003e2 	mov	w2, w0
    1ec0:	52802281 	mov	w1, #0x114                 	// #276
    1ec4:	17ffffd3 	b	1e10 <TEE_BigIntShiftRight+0x50>
/home/nbshenxm/optee-project/rpi3/optee_os/lib/libutee/tee_api_arith_mpi.c:277
    1ec8:	aa1503e1 	mov	x1, x21
    1ecc:	aa1303e0 	mov	x0, x19
    1ed0:	940005b2 	bl	3598 <mbedtls_mpi_copy>
    1ed4:	34000080 	cbz	w0, 1ee4 <TEE_BigIntShiftRight+0x124>
/home/nbshenxm/optee-project/rpi3/optee_os/lib/libutee/tee_api_arith_mpi.c:277 (discriminator 1)
    1ed8:	2a0003e2 	mov	w2, w0
    1edc:	528022a1 	mov	w1, #0x115                 	// #277
    1ee0:	17ffffcc 	b	1e10 <TEE_BigIntShiftRight+0x50>
/home/nbshenxm/optee-project/rpi3/optee_os/lib/libutee/tee_api_arith_mpi.c:279
    1ee4:	aa1503e0 	mov	x0, x21
    1ee8:	9400050b 	bl	3314 <mbedtls_mpi_free>
/home/nbshenxm/optee-project/rpi3/optee_os/lib/libutee/tee_api_arith_mpi.c:282
    1eec:	aa1403e0 	mov	x0, x20
    1ef0:	94000509 	bl	3314 <mbedtls_mpi_free>
/home/nbshenxm/optee-project/rpi3/optee_os/lib/libutee/tee_api_arith_mpi.c:285
    1ef4:	aa1603e1 	mov	x1, x22
    1ef8:	aa1303e0 	mov	x0, x19
    1efc:	97fffca1 	bl	1180 <copy_mpi_to_bigint>
    1f00:	34000080 	cbz	w0, 1f10 <TEE_BigIntShiftRight+0x150>
/home/nbshenxm/optee-project/rpi3/optee_os/lib/libutee/tee_api_arith_mpi.c:285 (discriminator 1)
    1f04:	2a0003e2 	mov	w2, w0
    1f08:	528023a1 	mov	w1, #0x11d                 	// #285
    1f0c:	17ffffc1 	b	1e10 <TEE_BigIntShiftRight+0x50>
/home/nbshenxm/optee-project/rpi3/optee_os/lib/libutee/tee_api_arith_mpi.c:286
    1f10:	aa1303e0 	mov	x0, x19
    1f14:	94000500 	bl	3314 <mbedtls_mpi_free>
/home/nbshenxm/optee-project/rpi3/optee_os/lib/libutee/tee_api_arith_mpi.c:287
    1f18:	a94153f3 	ldp	x19, x20, [sp, #16]
    1f1c:	a9425bf5 	ldp	x21, x22, [sp, #32]
    1f20:	f9401bf7 	ldr	x23, [sp, #48]
    1f24:	a8c97bfd 	ldp	x29, x30, [sp], #144
    1f28:	d65f03c0 	ret

0000000000001f2c <TEE_BigIntGetBit>:
TEE_BigIntGetBit():
/home/nbshenxm/optee-project/rpi3/optee_os/lib/libutee/tee_api_arith_mpi.c:290
    1f2c:	a9bc7bfd 	stp	x29, x30, [sp, #-64]!
    1f30:	910003fd 	mov	x29, sp
    1f34:	a90153f3 	stp	x19, x20, [sp, #16]
/home/nbshenxm/optee-project/rpi3/optee_os/lib/libutee/tee_api_arith_mpi.c:294
    1f38:	9100a3f3 	add	x19, sp, #0x28
/home/nbshenxm/optee-project/rpi3/optee_os/lib/libutee/tee_api_arith_mpi.c:290
    1f3c:	2a0103f4 	mov	w20, w1
/home/nbshenxm/optee-project/rpi3/optee_os/lib/libutee/tee_api_arith_mpi.c:294
    1f40:	aa0003e1 	mov	x1, x0
    1f44:	aa1303e0 	mov	x0, x19
    1f48:	97fffc68 	bl	10e8 <get_mpi>
/home/nbshenxm/optee-project/rpi3/optee_os/lib/libutee/tee_api_arith_mpi.c:296
    1f4c:	2a1403e1 	mov	w1, w20
    1f50:	aa1303e0 	mov	x0, x19
    1f54:	94000659 	bl	38b8 <mbedtls_mpi_get_bit>
    1f58:	2a0003f4 	mov	w20, w0
/home/nbshenxm/optee-project/rpi3/optee_os/lib/libutee/tee_api_arith_mpi.c:298
    1f5c:	aa1303e0 	mov	x0, x19
    1f60:	940004ed 	bl	3314 <mbedtls_mpi_free>
/home/nbshenxm/optee-project/rpi3/optee_os/lib/libutee/tee_api_arith_mpi.c:296
    1f64:	7100029f 	cmp	w20, #0x0
/home/nbshenxm/optee-project/rpi3/optee_os/lib/libutee/tee_api_arith_mpi.c:301
    1f68:	1a9f07e0 	cset	w0, ne  // ne = any
    1f6c:	a94153f3 	ldp	x19, x20, [sp, #16]
    1f70:	a8c47bfd 	ldp	x29, x30, [sp], #64
    1f74:	d65f03c0 	ret

0000000000001f78 <TEE_BigIntGetBitCount>:
TEE_BigIntGetBitCount():
/home/nbshenxm/optee-project/rpi3/optee_os/lib/libutee/tee_api_arith_mpi.c:304
    1f78:	a9bc7bfd 	stp	x29, x30, [sp, #-64]!
/home/nbshenxm/optee-project/rpi3/optee_os/lib/libutee/tee_api_arith_mpi.c:308
    1f7c:	aa0003e1 	mov	x1, x0
/home/nbshenxm/optee-project/rpi3/optee_os/lib/libutee/tee_api_arith_mpi.c:304
    1f80:	910003fd 	mov	x29, sp
    1f84:	a90153f3 	stp	x19, x20, [sp, #16]
/home/nbshenxm/optee-project/rpi3/optee_os/lib/libutee/tee_api_arith_mpi.c:308
    1f88:	9100a3f3 	add	x19, sp, #0x28
    1f8c:	aa1303e0 	mov	x0, x19
    1f90:	97fffc56 	bl	10e8 <get_mpi>
/home/nbshenxm/optee-project/rpi3/optee_os/lib/libutee/tee_api_arith_mpi.c:310
    1f94:	aa1303e0 	mov	x0, x19
    1f98:	9400068b 	bl	39c4 <mbedtls_mpi_bitlen>
    1f9c:	aa0003f4 	mov	x20, x0
/home/nbshenxm/optee-project/rpi3/optee_os/lib/libutee/tee_api_arith_mpi.c:312
    1fa0:	aa1303e0 	mov	x0, x19
    1fa4:	940004dc 	bl	3314 <mbedtls_mpi_free>
/home/nbshenxm/optee-project/rpi3/optee_os/lib/libutee/tee_api_arith_mpi.c:315
    1fa8:	2a1403e0 	mov	w0, w20
    1fac:	a94153f3 	ldp	x19, x20, [sp, #16]
    1fb0:	a8c47bfd 	ldp	x29, x30, [sp], #64
    1fb4:	d65f03c0 	ret

0000000000001fb8 <TEE_BigIntAdd>:
TEE_BigIntAdd():
/home/nbshenxm/optee-project/rpi3/optee_os/lib/libutee/tee_api_arith_mpi.c:400
    1fb8:	f0000043 	adrp	x3, c000 <_DYNAMIC>
    1fbc:	f940a863 	ldr	x3, [x3, #336]
    1fc0:	17fffc89 	b	11e4 <bigint_binary>

0000000000001fc4 <TEE_BigIntSub>:
TEE_BigIntSub():
/home/nbshenxm/optee-project/rpi3/optee_os/lib/libutee/tee_api_arith_mpi.c:406
    1fc4:	f0000043 	adrp	x3, c000 <_DYNAMIC>
    1fc8:	f940b063 	ldr	x3, [x3, #352]
    1fcc:	17fffc86 	b	11e4 <bigint_binary>

0000000000001fd0 <TEE_BigIntNeg>:
TEE_BigIntNeg():
/home/nbshenxm/optee-project/rpi3/optee_os/lib/libutee/tee_api_arith_mpi.c:410
    1fd0:	a9ba7bfd 	stp	x29, x30, [sp, #-96]!
    1fd4:	910003fd 	mov	x29, sp
    1fd8:	a90153f3 	stp	x19, x20, [sp, #16]
/home/nbshenxm/optee-project/rpi3/optee_os/lib/libutee/tee_api_arith_mpi.c:413
    1fdc:	9100c3f3 	add	x19, sp, #0x30
/home/nbshenxm/optee-project/rpi3/optee_os/lib/libutee/tee_api_arith_mpi.c:410
    1fe0:	aa0003f4 	mov	x20, x0
    1fe4:	a9025bf5 	stp	x21, x22, [sp, #32]
    1fe8:	aa0103f6 	mov	x22, x1
/home/nbshenxm/optee-project/rpi3/optee_os/lib/libutee/tee_api_arith_mpi.c:413
    1fec:	aa0003e1 	mov	x1, x0
    1ff0:	aa1303e0 	mov	x0, x19
    1ff4:	97fffc3d 	bl	10e8 <get_mpi>
/home/nbshenxm/optee-project/rpi3/optee_os/lib/libutee/tee_api_arith_mpi.c:415
    1ff8:	eb16029f 	cmp	x20, x22
    1ffc:	54000220 	b.eq	2040 <TEE_BigIntNeg+0x70>  // b.none
/home/nbshenxm/optee-project/rpi3/optee_os/lib/libutee/tee_api_arith_mpi.c:418
    2000:	910123f5 	add	x21, sp, #0x48
    2004:	aa1603e1 	mov	x1, x22
    2008:	aa1503e0 	mov	x0, x21
    200c:	97fffc37 	bl	10e8 <get_mpi>
/home/nbshenxm/optee-project/rpi3/optee_os/lib/libutee/tee_api_arith_mpi.c:420
    2010:	aa1503e1 	mov	x1, x21
    2014:	aa1303e0 	mov	x0, x19
    2018:	94000560 	bl	3598 <mbedtls_mpi_copy>
    201c:	340000e0 	cbz	w0, 2038 <TEE_BigIntNeg+0x68>
/home/nbshenxm/optee-project/rpi3/optee_os/lib/libutee/tee_api_arith_mpi.c:420 (discriminator 1)
    2020:	2a0003e2 	mov	w2, w0
    2024:	52803481 	mov	w1, #0x1a4                 	// #420
/home/nbshenxm/optee-project/rpi3/optee_os/lib/libutee/tee_api_arith_mpi.c:427 (discriminator 1)
    2028:	90000040 	adrp	x0, a000 <__text_end+0x1594>
    202c:	91272400 	add	x0, x0, #0x9c9
    2030:	91027c00 	add	x0, x0, #0x9f
    2034:	97fffc21 	bl	10b8 <mpi_panic>
/home/nbshenxm/optee-project/rpi3/optee_os/lib/libutee/tee_api_arith_mpi.c:422
    2038:	aa1503e0 	mov	x0, x21
    203c:	940004b6 	bl	3314 <mbedtls_mpi_free>
/home/nbshenxm/optee-project/rpi3/optee_os/lib/libutee/tee_api_arith_mpi.c:425
    2040:	794063e0 	ldrh	w0, [sp, #48]
/home/nbshenxm/optee-project/rpi3/optee_os/lib/libutee/tee_api_arith_mpi.c:427
    2044:	aa1403e1 	mov	x1, x20
/home/nbshenxm/optee-project/rpi3/optee_os/lib/libutee/tee_api_arith_mpi.c:425
    2048:	4b0003e0 	neg	w0, w0
    204c:	790063e0 	strh	w0, [sp, #48]
/home/nbshenxm/optee-project/rpi3/optee_os/lib/libutee/tee_api_arith_mpi.c:427
    2050:	aa1303e0 	mov	x0, x19
    2054:	97fffc4b 	bl	1180 <copy_mpi_to_bigint>
    2058:	34000080 	cbz	w0, 2068 <TEE_BigIntNeg+0x98>
/home/nbshenxm/optee-project/rpi3/optee_os/lib/libutee/tee_api_arith_mpi.c:427 (discriminator 1)
    205c:	2a0003e2 	mov	w2, w0
    2060:	52803561 	mov	w1, #0x1ab                 	// #427
    2064:	17fffff1 	b	2028 <TEE_BigIntNeg+0x58>
/home/nbshenxm/optee-project/rpi3/optee_os/lib/libutee/tee_api_arith_mpi.c:428
    2068:	aa1303e0 	mov	x0, x19
    206c:	940004aa 	bl	3314 <mbedtls_mpi_free>
/home/nbshenxm/optee-project/rpi3/optee_os/lib/libutee/tee_api_arith_mpi.c:429
    2070:	a94153f3 	ldp	x19, x20, [sp, #16]
    2074:	a9425bf5 	ldp	x21, x22, [sp, #32]
    2078:	a8c67bfd 	ldp	x29, x30, [sp], #96
    207c:	d65f03c0 	ret

0000000000002080 <TEE_BigIntMul>:
TEE_BigIntMul():
/home/nbshenxm/optee-project/rpi3/optee_os/lib/libutee/tee_api_arith_mpi.c:433
    2080:	a9ba7bfd 	stp	x29, x30, [sp, #-96]!
    2084:	910003fd 	mov	x29, sp
    2088:	a90153f3 	stp	x19, x20, [sp, #16]
    208c:	a9025bf5 	stp	x21, x22, [sp, #32]
/home/nbshenxm/optee-project/rpi3/optee_os/lib/libutee/tee_api_arith_mpi.c:440
    2090:	d0000056 	adrp	x22, c000 <_DYNAMIC>
    2094:	aa1603f5 	mov	x21, x22
/home/nbshenxm/optee-project/rpi3/optee_os/lib/libutee/tee_api_arith_mpi.c:433
    2098:	a90363f7 	stp	x23, x24, [sp, #48]
    209c:	aa0203f8 	mov	x24, x2
    20a0:	aa0103f7 	mov	x23, x1
    20a4:	f90023f9 	str	x25, [sp, #64]
    20a8:	aa0003f9 	mov	x25, x0
/home/nbshenxm/optee-project/rpi3/optee_os/lib/libutee/tee_api_arith_mpi.c:434
    20ac:	aa0103e0 	mov	x0, x1
    20b0:	97ffffb2 	bl	1f78 <TEE_BigIntGetBitCount>
    20b4:	2a0003f3 	mov	w19, w0
/home/nbshenxm/optee-project/rpi3/optee_os/lib/libutee/tee_api_arith_mpi.c:435
    20b8:	aa1803e0 	mov	x0, x24
    20bc:	97ffffaf 	bl	1f78 <TEE_BigIntGetBitCount>
    20c0:	2a0003e0 	mov	w0, w0
/home/nbshenxm/optee-project/rpi3/optee_os/lib/libutee/tee_api_arith_mpi.c:436
    20c4:	91007c00 	add	x0, x0, #0x1f
    20c8:	91007e73 	add	x19, x19, #0x1f
/home/nbshenxm/optee-project/rpi3/optee_os/lib/libutee/tee_api_arith_mpi.c:437
    20cc:	f9002bff 	str	xzr, [sp, #80]
/home/nbshenxm/optee-project/rpi3/optee_os/lib/libutee/tee_api_arith_mpi.c:436
    20d0:	d345fc00 	lsr	x0, x0, #5
/home/nbshenxm/optee-project/rpi3/optee_os/lib/libutee/tee_api_arith_mpi.c:437
    20d4:	b9005bff 	str	wzr, [sp, #88]
/home/nbshenxm/optee-project/rpi3/optee_os/lib/libutee/tee_api_arith_mpi.c:436
    20d8:	8b531413 	add	x19, x0, x19, lsr #5
/home/nbshenxm/optee-project/rpi3/optee_os/lib/libutee/tee_api_arith_mpi.c:440
    20dc:	f940cac0 	ldr	x0, [x22, #400]
/home/nbshenxm/optee-project/rpi3/optee_os/lib/libutee/tee_api_arith_mpi.c:436
    20e0:	91001273 	add	x19, x19, #0x4
/home/nbshenxm/optee-project/rpi3/optee_os/lib/libutee/tee_api_arith_mpi.c:440
    20e4:	d37ef661 	lsl	x1, x19, #2
    20e8:	f9400000 	ldr	x0, [x0]
    20ec:	940019d3 	bl	8838 <mempool_alloc>
    20f0:	aa0003f4 	mov	x20, x0
/home/nbshenxm/optee-project/rpi3/optee_os/lib/libutee/tee_api_arith_mpi.c:441
    20f4:	b5000060 	cbnz	x0, 2100 <TEE_BigIntMul+0x80>
/home/nbshenxm/optee-project/rpi3/optee_os/lib/libutee/tee_api_arith_mpi.c:442
    20f8:	129ffe60 	mov	w0, #0xffff000c            	// #-65524
    20fc:	94000234 	bl	29cc <TEE_Panic>
/home/nbshenxm/optee-project/rpi3/optee_os/lib/libutee/tee_api_arith_mpi.c:444
    2100:	2a1303e1 	mov	w1, w19
    2104:	aa1403e0 	mov	x0, x20
/home/nbshenxm/optee-project/rpi3/optee_os/lib/libutee/tee_api_arith_mpi.c:445
    2108:	910143f3 	add	x19, sp, #0x50
/home/nbshenxm/optee-project/rpi3/optee_os/lib/libutee/tee_api_arith_mpi.c:444
    210c:	97fffdf5 	bl	18e0 <TEE_BigIntInit>
/home/nbshenxm/optee-project/rpi3/optee_os/lib/libutee/tee_api_arith_mpi.c:445
    2110:	aa1303e0 	mov	x0, x19
    2114:	52800061 	mov	w1, #0x3                   	// #3
    2118:	97fffdf2 	bl	18e0 <TEE_BigIntInit>
/home/nbshenxm/optee-project/rpi3/optee_os/lib/libutee/tee_api_arith_mpi.c:447
    211c:	f940a6a3 	ldr	x3, [x21, #328]
    2120:	aa1803e2 	mov	x2, x24
    2124:	aa1703e1 	mov	x1, x23
    2128:	aa1403e0 	mov	x0, x20
    212c:	97fffc2e 	bl	11e4 <bigint_binary>
/home/nbshenxm/optee-project/rpi3/optee_os/lib/libutee/tee_api_arith_mpi.c:449
    2130:	aa1303e2 	mov	x2, x19
    2134:	aa1403e1 	mov	x1, x20
    2138:	aa1903e0 	mov	x0, x25
    213c:	97ffff9f 	bl	1fb8 <TEE_BigIntAdd>
/home/nbshenxm/optee-project/rpi3/optee_os/lib/libutee/tee_api_arith_mpi.c:451
    2140:	f940cab5 	ldr	x21, [x21, #400]
    2144:	aa1403e1 	mov	x1, x20
    2148:	f94002a0 	ldr	x0, [x21]
    214c:	940019fa 	bl	8934 <mempool_free>
/home/nbshenxm/optee-project/rpi3/optee_os/lib/libutee/tee_api_arith_mpi.c:452
    2150:	a94153f3 	ldp	x19, x20, [sp, #16]
    2154:	a9425bf5 	ldp	x21, x22, [sp, #32]
    2158:	a94363f7 	ldp	x23, x24, [sp, #48]
    215c:	f94023f9 	ldr	x25, [sp, #64]
    2160:	a8c67bfd 	ldp	x29, x30, [sp], #96
    2164:	d65f03c0 	ret

0000000000002168 <TEE_BigIntSquare>:
TEE_BigIntSquare():
/home/nbshenxm/optee-project/rpi3/optee_os/lib/libutee/tee_api_arith_mpi.c:456
    2168:	aa0103e2 	mov	x2, x1
    216c:	17ffffc5 	b	2080 <TEE_BigIntMul>

0000000000002170 <TEE_BigIntDiv>:
TEE_BigIntDiv():
/home/nbshenxm/optee-project/rpi3/optee_os/lib/libutee/tee_api_arith_mpi.c:461
    2170:	a9b47bfd 	stp	x29, x30, [sp, #-192]!
    2174:	910003fd 	mov	x29, sp
    2178:	a9025bf5 	stp	x21, x22, [sp, #32]
/home/nbshenxm/optee-project/rpi3/optee_os/lib/libutee/tee_api_arith_mpi.c:469
    217c:	910183f6 	add	x22, sp, #0x60
/home/nbshenxm/optee-project/rpi3/optee_os/lib/libutee/tee_api_arith_mpi.c:470
    2180:	9101e3f5 	add	x21, sp, #0x78
/home/nbshenxm/optee-project/rpi3/optee_os/lib/libutee/tee_api_arith_mpi.c:461
    2184:	a90153f3 	stp	x19, x20, [sp, #16]
    2188:	aa0303f3 	mov	x19, x3
    218c:	a90363f7 	stp	x23, x24, [sp, #48]
    2190:	aa0003f8 	mov	x24, x0
    2194:	aa0103f7 	mov	x23, x1
/home/nbshenxm/optee-project/rpi3/optee_os/lib/libutee/tee_api_arith_mpi.c:469
    2198:	aa0003e1 	mov	x1, x0
    219c:	aa1603e0 	mov	x0, x22
/home/nbshenxm/optee-project/rpi3/optee_os/lib/libutee/tee_api_arith_mpi.c:461
    21a0:	a9046bf9 	stp	x25, x26, [sp, #64]
    21a4:	aa0203f9 	mov	x25, x2
    21a8:	f9002bfb 	str	x27, [sp, #80]
/home/nbshenxm/optee-project/rpi3/optee_os/lib/libutee/tee_api_arith_mpi.c:469
    21ac:	97fffbcf 	bl	10e8 <get_mpi>
/home/nbshenxm/optee-project/rpi3/optee_os/lib/libutee/tee_api_arith_mpi.c:470
    21b0:	aa1703e1 	mov	x1, x23
    21b4:	aa1503e0 	mov	x0, x21
    21b8:	97fffbcc 	bl	10e8 <get_mpi>
/home/nbshenxm/optee-project/rpi3/optee_os/lib/libutee/tee_api_arith_mpi.c:472
    21bc:	910243fb 	add	x27, sp, #0x90
    21c0:	eb19031f 	cmp	x24, x25
    21c4:	540003c0 	b.eq	223c <TEE_BigIntDiv+0xcc>  // b.none
/home/nbshenxm/optee-project/rpi3/optee_os/lib/libutee/tee_api_arith_mpi.c:474
    21c8:	eb1902ff 	cmp	x23, x25
    21cc:	540003c0 	b.eq	2244 <TEE_BigIntDiv+0xd4>  // b.none
/home/nbshenxm/optee-project/rpi3/optee_os/lib/libutee/tee_api_arith_mpi.c:466
    21d0:	aa1b03f4 	mov	x20, x27
/home/nbshenxm/optee-project/rpi3/optee_os/lib/libutee/tee_api_arith_mpi.c:477
    21d4:	aa1903e1 	mov	x1, x25
    21d8:	aa1b03e0 	mov	x0, x27
    21dc:	97fffbc3 	bl	10e8 <get_mpi>
/home/nbshenxm/optee-project/rpi3/optee_os/lib/libutee/tee_api_arith_mpi.c:479
    21e0:	eb13031f 	cmp	x24, x19
    21e4:	9102a3fa 	add	x26, sp, #0xa8
    21e8:	54000320 	b.eq	224c <TEE_BigIntDiv+0xdc>  // b.none
/home/nbshenxm/optee-project/rpi3/optee_os/lib/libutee/tee_api_arith_mpi.c:481
    21ec:	eb1302ff 	cmp	x23, x19
    21f0:	54000320 	b.eq	2254 <TEE_BigIntDiv+0xe4>  // b.none
/home/nbshenxm/optee-project/rpi3/optee_os/lib/libutee/tee_api_arith_mpi.c:483
    21f4:	eb13033f 	cmp	x25, x19
    21f8:	54000320 	b.eq	225c <TEE_BigIntDiv+0xec>  // b.none
/home/nbshenxm/optee-project/rpi3/optee_os/lib/libutee/tee_api_arith_mpi.c:486
    21fc:	aa1303e1 	mov	x1, x19
/home/nbshenxm/optee-project/rpi3/optee_os/lib/libutee/tee_api_arith_mpi.c:467
    2200:	aa1a03f3 	mov	x19, x26
/home/nbshenxm/optee-project/rpi3/optee_os/lib/libutee/tee_api_arith_mpi.c:486
    2204:	aa1a03e0 	mov	x0, x26
    2208:	97fffbb8 	bl	10e8 <get_mpi>
/home/nbshenxm/optee-project/rpi3/optee_os/lib/libutee/tee_api_arith_mpi.c:488
    220c:	aa1303e3 	mov	x3, x19
    2210:	aa1403e2 	mov	x2, x20
    2214:	aa1503e1 	mov	x1, x21
    2218:	aa1603e0 	mov	x0, x22
    221c:	94000996 	bl	4874 <mbedtls_mpi_div_mpi>
    2220:	34000220 	cbz	w0, 2264 <TEE_BigIntDiv+0xf4>
/home/nbshenxm/optee-project/rpi3/optee_os/lib/libutee/tee_api_arith_mpi.c:488 (discriminator 1)
    2224:	2a0003e2 	mov	w2, w0
    2228:	52803d01 	mov	w1, #0x1e8                 	// #488
/home/nbshenxm/optee-project/rpi3/optee_os/lib/libutee/tee_api_arith_mpi.c:490 (discriminator 1)
    222c:	90000040 	adrp	x0, a000 <__text_end+0x1594>
    2230:	91272400 	add	x0, x0, #0x9c9
    2234:	9102b400 	add	x0, x0, #0xad
    2238:	97fffba0 	bl	10b8 <mpi_panic>
/home/nbshenxm/optee-project/rpi3/optee_os/lib/libutee/tee_api_arith_mpi.c:473
    223c:	aa1603f4 	mov	x20, x22
    2240:	17ffffe8 	b	21e0 <TEE_BigIntDiv+0x70>
/home/nbshenxm/optee-project/rpi3/optee_os/lib/libutee/tee_api_arith_mpi.c:475
    2244:	aa1503f4 	mov	x20, x21
    2248:	17ffffe6 	b	21e0 <TEE_BigIntDiv+0x70>
/home/nbshenxm/optee-project/rpi3/optee_os/lib/libutee/tee_api_arith_mpi.c:480
    224c:	aa1603f3 	mov	x19, x22
    2250:	17ffffef 	b	220c <TEE_BigIntDiv+0x9c>
/home/nbshenxm/optee-project/rpi3/optee_os/lib/libutee/tee_api_arith_mpi.c:482
    2254:	aa1503f3 	mov	x19, x21
    2258:	17ffffed 	b	220c <TEE_BigIntDiv+0x9c>
/home/nbshenxm/optee-project/rpi3/optee_os/lib/libutee/tee_api_arith_mpi.c:484
    225c:	aa1403f3 	mov	x19, x20
    2260:	17ffffeb 	b	220c <TEE_BigIntDiv+0x9c>
/home/nbshenxm/optee-project/rpi3/optee_os/lib/libutee/tee_api_arith_mpi.c:490
    2264:	aa1803e1 	mov	x1, x24
    2268:	aa1603e0 	mov	x0, x22
    226c:	97fffbc5 	bl	1180 <copy_mpi_to_bigint>
    2270:	34000080 	cbz	w0, 2280 <TEE_BigIntDiv+0x110>
/home/nbshenxm/optee-project/rpi3/optee_os/lib/libutee/tee_api_arith_mpi.c:490 (discriminator 1)
    2274:	2a0003e2 	mov	w2, w0
    2278:	52803d41 	mov	w1, #0x1ea                 	// #490
    227c:	17ffffec 	b	222c <TEE_BigIntDiv+0xbc>
/home/nbshenxm/optee-project/rpi3/optee_os/lib/libutee/tee_api_arith_mpi.c:491
    2280:	aa1703e1 	mov	x1, x23
    2284:	aa1503e0 	mov	x0, x21
    2288:	97fffbbe 	bl	1180 <copy_mpi_to_bigint>
    228c:	34000080 	cbz	w0, 229c <TEE_BigIntDiv+0x12c>
/home/nbshenxm/optee-project/rpi3/optee_os/lib/libutee/tee_api_arith_mpi.c:491 (discriminator 1)
    2290:	2a0003e2 	mov	w2, w0
    2294:	52803d61 	mov	w1, #0x1eb                 	// #491
    2298:	17ffffe5 	b	222c <TEE_BigIntDiv+0xbc>
/home/nbshenxm/optee-project/rpi3/optee_os/lib/libutee/tee_api_arith_mpi.c:492
    229c:	aa1603e0 	mov	x0, x22
    22a0:	9400041d 	bl	3314 <mbedtls_mpi_free>
/home/nbshenxm/optee-project/rpi3/optee_os/lib/libutee/tee_api_arith_mpi.c:493
    22a4:	aa1503e0 	mov	x0, x21
    22a8:	9400041b 	bl	3314 <mbedtls_mpi_free>
/home/nbshenxm/optee-project/rpi3/optee_os/lib/libutee/tee_api_arith_mpi.c:494
    22ac:	eb1b029f 	cmp	x20, x27
    22b0:	54000061 	b.ne	22bc <TEE_BigIntDiv+0x14c>  // b.any
/home/nbshenxm/optee-project/rpi3/optee_os/lib/libutee/tee_api_arith_mpi.c:495
    22b4:	aa1403e0 	mov	x0, x20
    22b8:	94000417 	bl	3314 <mbedtls_mpi_free>
/home/nbshenxm/optee-project/rpi3/optee_os/lib/libutee/tee_api_arith_mpi.c:496
    22bc:	eb1a027f 	cmp	x19, x26
    22c0:	54000061 	b.ne	22cc <TEE_BigIntDiv+0x15c>  // b.any
/home/nbshenxm/optee-project/rpi3/optee_os/lib/libutee/tee_api_arith_mpi.c:497
    22c4:	aa1303e0 	mov	x0, x19
    22c8:	94000413 	bl	3314 <mbedtls_mpi_free>
/home/nbshenxm/optee-project/rpi3/optee_os/lib/libutee/tee_api_arith_mpi.c:498
    22cc:	a94153f3 	ldp	x19, x20, [sp, #16]
    22d0:	a9425bf5 	ldp	x21, x22, [sp, #32]
    22d4:	a94363f7 	ldp	x23, x24, [sp, #48]
    22d8:	a9446bf9 	ldp	x25, x26, [sp, #64]
    22dc:	f9402bfb 	ldr	x27, [sp, #80]
    22e0:	a8cc7bfd 	ldp	x29, x30, [sp], #192
    22e4:	d65f03c0 	ret

00000000000022e8 <TEE_BigIntMod>:
TEE_BigIntMod():
/home/nbshenxm/optee-project/rpi3/optee_os/lib/libutee/tee_api_arith_mpi.c:501
    22e8:	a9bd7bfd 	stp	x29, x30, [sp, #-48]!
    22ec:	910003fd 	mov	x29, sp
    22f0:	a90153f3 	stp	x19, x20, [sp, #16]
    22f4:	aa0003f3 	mov	x19, x0
    22f8:	aa0103f4 	mov	x20, x1
/home/nbshenxm/optee-project/rpi3/optee_os/lib/libutee/tee_api_arith_mpi.c:502
    22fc:	aa0203e0 	mov	x0, x2
    2300:	52800041 	mov	w1, #0x2                   	// #2
    2304:	f90017e2 	str	x2, [sp, #40]
    2308:	97fffe37 	bl	1be4 <TEE_BigIntCmpS32>
    230c:	f94017e2 	ldr	x2, [sp, #40]
    2310:	36f80100 	tbz	w0, #31, 2330 <TEE_BigIntMod+0x48>
/home/nbshenxm/optee-project/rpi3/optee_os/lib/libutee/tee_api_arith_mpi.c:503
    2314:	90000040 	adrp	x0, a000 <__text_end+0x1594>
    2318:	91272400 	add	x0, x0, #0x9c9
    231c:	90000042 	adrp	x2, a000 <__text_end+0x1594>
    2320:	52803ee1 	mov	w1, #0x1f7                 	// #503
    2324:	912df442 	add	x2, x2, #0xb7d
    2328:	9102ec00 	add	x0, x0, #0xbb
    232c:	97fffb57 	bl	1088 <api_panic>
/home/nbshenxm/optee-project/rpi3/optee_os/lib/libutee/tee_api_arith_mpi.c:505
    2330:	d0000043 	adrp	x3, c000 <_DYNAMIC>
    2334:	aa1403e1 	mov	x1, x20
    2338:	aa1303e0 	mov	x0, x19
    233c:	f940bc63 	ldr	x3, [x3, #376]
/home/nbshenxm/optee-project/rpi3/optee_os/lib/libutee/tee_api_arith_mpi.c:506
    2340:	a94153f3 	ldp	x19, x20, [sp, #16]
    2344:	a8c37bfd 	ldp	x29, x30, [sp], #48
/home/nbshenxm/optee-project/rpi3/optee_os/lib/libutee/tee_api_arith_mpi.c:505
    2348:	17fffba7 	b	11e4 <bigint_binary>

000000000000234c <TEE_BigIntAddMod>:
TEE_BigIntAddMod():
/home/nbshenxm/optee-project/rpi3/optee_os/lib/libutee/tee_api_arith_mpi.c:511
    234c:	d0000044 	adrp	x4, c000 <_DYNAMIC>
    2350:	f940a884 	ldr	x4, [x4, #336]
    2354:	17fffe36 	b	1c2c <bigint_binary_mod>

0000000000002358 <TEE_BigIntSubMod>:
TEE_BigIntSubMod():
/home/nbshenxm/optee-project/rpi3/optee_os/lib/libutee/tee_api_arith_mpi.c:517
    2358:	d0000044 	adrp	x4, c000 <_DYNAMIC>
    235c:	f940b084 	ldr	x4, [x4, #352]
    2360:	17fffe33 	b	1c2c <bigint_binary_mod>

0000000000002364 <TEE_BigIntMulMod>:
TEE_BigIntMulMod():
/home/nbshenxm/optee-project/rpi3/optee_os/lib/libutee/tee_api_arith_mpi.c:523
    2364:	d0000044 	adrp	x4, c000 <_DYNAMIC>
    2368:	f940a484 	ldr	x4, [x4, #328]
    236c:	17fffe30 	b	1c2c <bigint_binary_mod>

0000000000002370 <TEE_BigIntSquareMod>:
TEE_BigIntSquareMod():
/home/nbshenxm/optee-project/rpi3/optee_os/lib/libutee/tee_api_arith_mpi.c:529
    2370:	aa0203e3 	mov	x3, x2
    2374:	aa0103e2 	mov	x2, x1
    2378:	17fffffb 	b	2364 <TEE_BigIntMulMod>

000000000000237c <TEE_BigIntInvMod>:
TEE_BigIntInvMod():
/home/nbshenxm/optee-project/rpi3/optee_os/lib/libutee/tee_api_arith_mpi.c:534
    237c:	a9b77bfd 	stp	x29, x30, [sp, #-144]!
    2380:	910003fd 	mov	x29, sp
    2384:	a90153f3 	stp	x19, x20, [sp, #16]
    2388:	aa0103f4 	mov	x20, x1
/home/nbshenxm/optee-project/rpi3/optee_os/lib/libutee/tee_api_arith_mpi.c:535
    238c:	52800041 	mov	w1, #0x2                   	// #2
/home/nbshenxm/optee-project/rpi3/optee_os/lib/libutee/tee_api_arith_mpi.c:534
    2390:	a9025bf5 	stp	x21, x22, [sp, #32]
    2394:	aa0203f5 	mov	x21, x2
    2398:	f9001bf7 	str	x23, [sp, #48]
    239c:	aa0003f7 	mov	x23, x0
/home/nbshenxm/optee-project/rpi3/optee_os/lib/libutee/tee_api_arith_mpi.c:535
    23a0:	aa0203e0 	mov	x0, x2
    23a4:	97fffe10 	bl	1be4 <TEE_BigIntCmpS32>
    23a8:	36f80100 	tbz	w0, #31, 23c8 <TEE_BigIntInvMod+0x4c>
/home/nbshenxm/optee-project/rpi3/optee_os/lib/libutee/tee_api_arith_mpi.c:536
    23ac:	90000040 	adrp	x0, a000 <__text_end+0x1594>
    23b0:	91272400 	add	x0, x0, #0x9c9
    23b4:	90000042 	adrp	x2, a000 <__text_end+0x1594>
    23b8:	52804301 	mov	w1, #0x218                 	// #536
    23bc:	912e4842 	add	x2, x2, #0xb92
    23c0:	91032400 	add	x0, x0, #0xc9
    23c4:	97fffb31 	bl	1088 <api_panic>
/home/nbshenxm/optee-project/rpi3/optee_os/lib/libutee/tee_api_arith_mpi.c:535 (discriminator 1)
    23c8:	52800001 	mov	w1, #0x0                   	// #0
    23cc:	aa1403e0 	mov	x0, x20
    23d0:	97fffe05 	bl	1be4 <TEE_BigIntCmpS32>
    23d4:	34fffec0 	cbz	w0, 23ac <TEE_BigIntInvMod+0x30>
/home/nbshenxm/optee-project/rpi3/optee_os/lib/libutee/tee_api_arith_mpi.c:543
    23d8:	910123f3 	add	x19, sp, #0x48
    23dc:	aa1703e1 	mov	x1, x23
    23e0:	aa1303e0 	mov	x0, x19
/home/nbshenxm/optee-project/rpi3/optee_os/lib/libutee/tee_api_arith_mpi.c:544
    23e4:	9101e3f6 	add	x22, sp, #0x78
/home/nbshenxm/optee-project/rpi3/optee_os/lib/libutee/tee_api_arith_mpi.c:543
    23e8:	97fffb40 	bl	10e8 <get_mpi>
/home/nbshenxm/optee-project/rpi3/optee_os/lib/libutee/tee_api_arith_mpi.c:544
    23ec:	aa1503e1 	mov	x1, x21
    23f0:	aa1603e0 	mov	x0, x22
    23f4:	97fffb3d 	bl	10e8 <get_mpi>
/home/nbshenxm/optee-project/rpi3/optee_os/lib/libutee/tee_api_arith_mpi.c:546
    23f8:	910183f5 	add	x21, sp, #0x60
    23fc:	eb17029f 	cmp	x20, x23
    2400:	54000200 	b.eq	2440 <TEE_BigIntInvMod+0xc4>  // b.none
/home/nbshenxm/optee-project/rpi3/optee_os/lib/libutee/tee_api_arith_mpi.c:549
    2404:	aa1403e1 	mov	x1, x20
/home/nbshenxm/optee-project/rpi3/optee_os/lib/libutee/tee_api_arith_mpi.c:541
    2408:	aa1503f4 	mov	x20, x21
/home/nbshenxm/optee-project/rpi3/optee_os/lib/libutee/tee_api_arith_mpi.c:549
    240c:	aa1503e0 	mov	x0, x21
    2410:	97fffb36 	bl	10e8 <get_mpi>
/home/nbshenxm/optee-project/rpi3/optee_os/lib/libutee/tee_api_arith_mpi.c:551
    2414:	aa1603e2 	mov	x2, x22
    2418:	aa1403e1 	mov	x1, x20
    241c:	aa1303e0 	mov	x0, x19
    2420:	94000eb0 	bl	5ee0 <mbedtls_mpi_inv_mod>
    2424:	34000120 	cbz	w0, 2448 <TEE_BigIntInvMod+0xcc>
/home/nbshenxm/optee-project/rpi3/optee_os/lib/libutee/tee_api_arith_mpi.c:551 (discriminator 1)
    2428:	2a0003e2 	mov	w2, w0
    242c:	528044e1 	mov	w1, #0x227                 	// #551
/home/nbshenxm/optee-project/rpi3/optee_os/lib/libutee/tee_api_arith_mpi.c:553 (discriminator 1)
    2430:	90000040 	adrp	x0, a000 <__text_end+0x1594>
    2434:	91272400 	add	x0, x0, #0x9c9
    2438:	91032400 	add	x0, x0, #0xc9
    243c:	97fffb1f 	bl	10b8 <mpi_panic>
/home/nbshenxm/optee-project/rpi3/optee_os/lib/libutee/tee_api_arith_mpi.c:547
    2440:	aa1303f4 	mov	x20, x19
    2444:	17fffff4 	b	2414 <TEE_BigIntInvMod+0x98>
/home/nbshenxm/optee-project/rpi3/optee_os/lib/libutee/tee_api_arith_mpi.c:553
    2448:	aa1703e1 	mov	x1, x23
    244c:	aa1303e0 	mov	x0, x19
    2450:	97fffb4c 	bl	1180 <copy_mpi_to_bigint>
    2454:	34000080 	cbz	w0, 2464 <TEE_BigIntInvMod+0xe8>
/home/nbshenxm/optee-project/rpi3/optee_os/lib/libutee/tee_api_arith_mpi.c:553 (discriminator 1)
    2458:	2a0003e2 	mov	w2, w0
    245c:	52804521 	mov	w1, #0x229                 	// #553
    2460:	17fffff4 	b	2430 <TEE_BigIntInvMod+0xb4>
/home/nbshenxm/optee-project/rpi3/optee_os/lib/libutee/tee_api_arith_mpi.c:554
    2464:	aa1303e0 	mov	x0, x19
    2468:	940003ab 	bl	3314 <mbedtls_mpi_free>
/home/nbshenxm/optee-project/rpi3/optee_os/lib/libutee/tee_api_arith_mpi.c:555
    246c:	aa1603e0 	mov	x0, x22
    2470:	940003a9 	bl	3314 <mbedtls_mpi_free>
/home/nbshenxm/optee-project/rpi3/optee_os/lib/libutee/tee_api_arith_mpi.c:556
    2474:	eb15029f 	cmp	x20, x21
    2478:	54000061 	b.ne	2484 <TEE_BigIntInvMod+0x108>  // b.any
/home/nbshenxm/optee-project/rpi3/optee_os/lib/libutee/tee_api_arith_mpi.c:557
    247c:	aa1403e0 	mov	x0, x20
    2480:	940003a5 	bl	3314 <mbedtls_mpi_free>
/home/nbshenxm/optee-project/rpi3/optee_os/lib/libutee/tee_api_arith_mpi.c:558
    2484:	a94153f3 	ldp	x19, x20, [sp, #16]
    2488:	a9425bf5 	ldp	x21, x22, [sp, #32]
    248c:	f9401bf7 	ldr	x23, [sp, #48]
    2490:	a8c97bfd 	ldp	x29, x30, [sp], #144
    2494:	d65f03c0 	ret

0000000000002498 <TEE_BigIntRelativePrime>:
TEE_BigIntRelativePrime():
/home/nbshenxm/optee-project/rpi3/optee_os/lib/libutee/tee_api_arith_mpi.c:561
    2498:	a9b77bfd 	stp	x29, x30, [sp, #-144]!
    249c:	910003fd 	mov	x29, sp
    24a0:	a90153f3 	stp	x19, x20, [sp, #16]
/home/nbshenxm/optee-project/rpi3/optee_os/lib/libutee/tee_api_arith_mpi.c:568
    24a4:	910123f4 	add	x20, sp, #0x48
/home/nbshenxm/optee-project/rpi3/optee_os/lib/libutee/tee_api_arith_mpi.c:561
    24a8:	aa0003f3 	mov	x19, x0
    24ac:	a9025bf5 	stp	x21, x22, [sp, #32]
    24b0:	aa0103f5 	mov	x21, x1
/home/nbshenxm/optee-project/rpi3/optee_os/lib/libutee/tee_api_arith_mpi.c:568
    24b4:	aa0003e1 	mov	x1, x0
    24b8:	aa1403e0 	mov	x0, x20
/home/nbshenxm/optee-project/rpi3/optee_os/lib/libutee/tee_api_arith_mpi.c:561
    24bc:	f9001bf7 	str	x23, [sp, #48]
/home/nbshenxm/optee-project/rpi3/optee_os/lib/libutee/tee_api_arith_mpi.c:568
    24c0:	97fffb0a 	bl	10e8 <get_mpi>
/home/nbshenxm/optee-project/rpi3/optee_os/lib/libutee/tee_api_arith_mpi.c:570
    24c4:	eb15027f 	cmp	x19, x21
    24c8:	910183f3 	add	x19, sp, #0x60
    24cc:	54000260 	b.eq	2518 <TEE_BigIntRelativePrime+0x80>  // b.none
/home/nbshenxm/optee-project/rpi3/optee_os/lib/libutee/tee_api_arith_mpi.c:565
    24d0:	aa1303f6 	mov	x22, x19
/home/nbshenxm/optee-project/rpi3/optee_os/lib/libutee/tee_api_arith_mpi.c:573
    24d4:	aa1503e1 	mov	x1, x21
    24d8:	aa1303e0 	mov	x0, x19
    24dc:	97fffb03 	bl	10e8 <get_mpi>
get_mpi():
/home/nbshenxm/optee-project/rpi3/optee_os/lib/libutee/tee_api_arith_mpi.c:101
    24e0:	9101e3f5 	add	x21, sp, #0x78
    24e4:	aa1503e0 	mov	x0, x21
    24e8:	94000381 	bl	32ec <mbedtls_mpi_init_mempool>
TEE_BigIntRelativePrime():
/home/nbshenxm/optee-project/rpi3/optee_os/lib/libutee/tee_api_arith_mpi.c:577
    24ec:	aa1303e2 	mov	x2, x19
    24f0:	aa1403e1 	mov	x1, x20
    24f4:	aa1503e0 	mov	x0, x21
    24f8:	94000d41 	bl	59fc <mbedtls_mpi_gcd>
    24fc:	34000120 	cbz	w0, 2520 <TEE_BigIntRelativePrime+0x88>
/home/nbshenxm/optee-project/rpi3/optee_os/lib/libutee/tee_api_arith_mpi.c:577 (discriminator 1)
    2500:	2a0003e2 	mov	w2, w0
    2504:	90000040 	adrp	x0, a000 <__text_end+0x1594>
    2508:	91272400 	add	x0, x0, #0x9c9
    250c:	52804821 	mov	w1, #0x241                 	// #577
    2510:	91036800 	add	x0, x0, #0xda
    2514:	97fffae9 	bl	10b8 <mpi_panic>
/home/nbshenxm/optee-project/rpi3/optee_os/lib/libutee/tee_api_arith_mpi.c:571
    2518:	aa1403f6 	mov	x22, x20
    251c:	17fffff1 	b	24e0 <TEE_BigIntRelativePrime+0x48>
/home/nbshenxm/optee-project/rpi3/optee_os/lib/libutee/tee_api_arith_mpi.c:579
    2520:	52800021 	mov	w1, #0x1                   	// #1
    2524:	aa1503e0 	mov	x0, x21
    2528:	94000704 	bl	4138 <mbedtls_mpi_cmp_int>
    252c:	7100001f 	cmp	w0, #0x0
    2530:	1a9f17f7 	cset	w23, eq  // eq = none
/home/nbshenxm/optee-project/rpi3/optee_os/lib/libutee/tee_api_arith_mpi.c:581
    2534:	aa1503e0 	mov	x0, x21
    2538:	94000377 	bl	3314 <mbedtls_mpi_free>
/home/nbshenxm/optee-project/rpi3/optee_os/lib/libutee/tee_api_arith_mpi.c:582
    253c:	aa1403e0 	mov	x0, x20
    2540:	94000375 	bl	3314 <mbedtls_mpi_free>
/home/nbshenxm/optee-project/rpi3/optee_os/lib/libutee/tee_api_arith_mpi.c:583
    2544:	eb1302df 	cmp	x22, x19
    2548:	54000061 	b.ne	2554 <TEE_BigIntRelativePrime+0xbc>  // b.any
/home/nbshenxm/optee-project/rpi3/optee_os/lib/libutee/tee_api_arith_mpi.c:584
    254c:	aa1603e0 	mov	x0, x22
    2550:	94000371 	bl	3314 <mbedtls_mpi_free>
/home/nbshenxm/optee-project/rpi3/optee_os/lib/libutee/tee_api_arith_mpi.c:587
    2554:	2a1703e0 	mov	w0, w23
    2558:	a94153f3 	ldp	x19, x20, [sp, #16]
    255c:	a9425bf5 	ldp	x21, x22, [sp, #32]
    2560:	f9401bf7 	ldr	x23, [sp, #48]
    2564:	a8c97bfd 	ldp	x29, x30, [sp], #144
    2568:	d65f03c0 	ret

000000000000256c <TEE_BigIntComputeExtendedGcd>:
TEE_BigIntComputeExtendedGcd():
/home/nbshenxm/optee-project/rpi3/optee_os/lib/libutee/tee_api_arith_mpi.c:698
    256c:	a9b17bfd 	stp	x29, x30, [sp, #-240]!
    2570:	910003fd 	mov	x29, sp
    2574:	a9025bf5 	stp	x21, x22, [sp, #32]
/home/nbshenxm/optee-project/rpi3/optee_os/lib/libutee/tee_api_arith_mpi.c:704
    2578:	9101e3f5 	add	x21, sp, #0x78
/home/nbshenxm/optee-project/rpi3/optee_os/lib/libutee/tee_api_arith_mpi.c:698
    257c:	aa0303f6 	mov	x22, x3
    2580:	a90153f3 	stp	x19, x20, [sp, #16]
    2584:	aa0403f3 	mov	x19, x4
/home/nbshenxm/optee-project/rpi3/optee_os/lib/libutee/tee_api_arith_mpi.c:705
    2588:	910243f4 	add	x20, sp, #0x90
/home/nbshenxm/optee-project/rpi3/optee_os/lib/libutee/tee_api_arith_mpi.c:698
    258c:	a90363f7 	stp	x23, x24, [sp, #48]
    2590:	9102a3f8 	add	x24, sp, #0xa8
    2594:	a9046bf9 	stp	x25, x26, [sp, #64]
    2598:	aa0203fa 	mov	x26, x2
    259c:	aa0003f9 	mov	x25, x0
    25a0:	a90573fb 	stp	x27, x28, [sp, #80]
    25a4:	aa0103fb 	mov	x27, x1
/home/nbshenxm/optee-project/rpi3/optee_os/lib/libutee/tee_api_arith_mpi.c:704
    25a8:	aa0003e1 	mov	x1, x0
    25ac:	aa1503e0 	mov	x0, x21
    25b0:	97ffface 	bl	10e8 <get_mpi>
/home/nbshenxm/optee-project/rpi3/optee_os/lib/libutee/tee_api_arith_mpi.c:705
    25b4:	aa1603e1 	mov	x1, x22
    25b8:	aa1403e0 	mov	x0, x20
    25bc:	97fffacb 	bl	10e8 <get_mpi>
/home/nbshenxm/optee-project/rpi3/optee_os/lib/libutee/tee_api_arith_mpi.c:707
    25c0:	eb1302df 	cmp	x22, x19
    25c4:	54000260 	b.eq	2610 <TEE_BigIntComputeExtendedGcd+0xa4>  // b.none
/home/nbshenxm/optee-project/rpi3/optee_os/lib/libutee/tee_api_arith_mpi.c:710
    25c8:	aa1303e1 	mov	x1, x19
/home/nbshenxm/optee-project/rpi3/optee_os/lib/libutee/tee_api_arith_mpi.c:702
    25cc:	aa1803f3 	mov	x19, x24
/home/nbshenxm/optee-project/rpi3/optee_os/lib/libutee/tee_api_arith_mpi.c:710
    25d0:	aa1803e0 	mov	x0, x24
    25d4:	97fffac5 	bl	10e8 <get_mpi>
/home/nbshenxm/optee-project/rpi3/optee_os/lib/libutee/tee_api_arith_mpi.c:712
    25d8:	aa1a0360 	orr	x0, x27, x26
    25dc:	b50001e0 	cbnz	x0, 2618 <TEE_BigIntComputeExtendedGcd+0xac>
/home/nbshenxm/optee-project/rpi3/optee_os/lib/libutee/tee_api_arith_mpi.c:713
    25e0:	b4000b79 	cbz	x25, 274c <TEE_BigIntComputeExtendedGcd+0x1e0>
/home/nbshenxm/optee-project/rpi3/optee_os/lib/libutee/tee_api_arith_mpi.c:714
    25e4:	aa1303e2 	mov	x2, x19
    25e8:	aa1403e1 	mov	x1, x20
    25ec:	aa1503e0 	mov	x0, x21
    25f0:	94000d03 	bl	59fc <mbedtls_mpi_gcd>
    25f4:	34000ac0 	cbz	w0, 274c <TEE_BigIntComputeExtendedGcd+0x1e0>
/home/nbshenxm/optee-project/rpi3/optee_os/lib/libutee/tee_api_arith_mpi.c:714 (discriminator 1)
    25f8:	2a0003e2 	mov	w2, w0
    25fc:	52805961 	mov	w1, #0x2cb                 	// #715
/home/nbshenxm/optee-project/rpi3/optee_os/lib/libutee/tee_api_arith_mpi.c:731 (discriminator 1)
    2600:	90000040 	adrp	x0, a000 <__text_end+0x1594>
    2604:	91272400 	add	x0, x0, #0x9c9
    2608:	9103c800 	add	x0, x0, #0xf2
    260c:	97fffaab 	bl	10b8 <mpi_panic>
/home/nbshenxm/optee-project/rpi3/optee_os/lib/libutee/tee_api_arith_mpi.c:708
    2610:	aa1403f3 	mov	x19, x20
    2614:	17fffff1 	b	25d8 <TEE_BigIntComputeExtendedGcd+0x6c>
/home/nbshenxm/optee-project/rpi3/optee_os/lib/libutee/tee_api_arith_mpi.c:720
    2618:	39c00260 	ldrsb	w0, [x19]
/home/nbshenxm/optee-project/rpi3/optee_os/lib/libutee/tee_api_arith_mpi.c:726
    261c:	910303f7 	add	x23, sp, #0xc0
/home/nbshenxm/optee-project/rpi3/optee_os/lib/libutee/tee_api_arith_mpi.c:719
    2620:	39c243fc 	ldrsb	w28, [sp, #144]
/home/nbshenxm/optee-project/rpi3/optee_os/lib/libutee/tee_api_arith_mpi.c:726
    2624:	aa1b03e1 	mov	x1, x27
/home/nbshenxm/optee-project/rpi3/optee_os/lib/libutee/tee_api_arith_mpi.c:720
    2628:	b9006fe0 	str	w0, [sp, #108]
/home/nbshenxm/optee-project/rpi3/optee_os/lib/libutee/tee_api_arith_mpi.c:723
    262c:	52800020 	mov	w0, #0x1                   	// #1
    2630:	790123e0 	strh	w0, [sp, #144]
/home/nbshenxm/optee-project/rpi3/optee_os/lib/libutee/tee_api_arith_mpi.c:727
    2634:	910363f6 	add	x22, sp, #0xd8
/home/nbshenxm/optee-project/rpi3/optee_os/lib/libutee/tee_api_arith_mpi.c:724
    2638:	79000260 	strh	w0, [x19]
/home/nbshenxm/optee-project/rpi3/optee_os/lib/libutee/tee_api_arith_mpi.c:726
    263c:	aa1703e0 	mov	x0, x23
    2640:	97fffaaa 	bl	10e8 <get_mpi>
/home/nbshenxm/optee-project/rpi3/optee_os/lib/libutee/tee_api_arith_mpi.c:727
    2644:	aa1a03e1 	mov	x1, x26
    2648:	aa1603e0 	mov	x0, x22
    264c:	97fffaa7 	bl	10e8 <get_mpi>
/home/nbshenxm/optee-project/rpi3/optee_os/lib/libutee/tee_api_arith_mpi.c:729
    2650:	aa1303e1 	mov	x1, x19
    2654:	aa1403e0 	mov	x0, x20
    2658:	94000625 	bl	3eec <mbedtls_mpi_cmp_abs>
/home/nbshenxm/optee-project/rpi3/optee_os/lib/libutee/tee_api_arith_mpi.c:730
    265c:	7100001f 	cmp	w0, #0x0
    2660:	540002c1 	b.ne	26b8 <TEE_BigIntComputeExtendedGcd+0x14c>  // b.any
/home/nbshenxm/optee-project/rpi3/optee_os/lib/libutee/tee_api_arith_mpi.c:731
    2664:	aa1403e1 	mov	x1, x20
    2668:	aa1503e0 	mov	x0, x21
    266c:	940003cb 	bl	3598 <mbedtls_mpi_copy>
    2670:	34000080 	cbz	w0, 2680 <TEE_BigIntComputeExtendedGcd+0x114>
/home/nbshenxm/optee-project/rpi3/optee_os/lib/libutee/tee_api_arith_mpi.c:731 (discriminator 1)
    2674:	2a0003e2 	mov	w2, w0
    2678:	52805b61 	mov	w1, #0x2db                 	// #731
    267c:	17ffffe1 	b	2600 <TEE_BigIntComputeExtendedGcd+0x94>
/home/nbshenxm/optee-project/rpi3/optee_os/lib/libutee/tee_api_arith_mpi.c:732
    2680:	52800021 	mov	w1, #0x1                   	// #1
    2684:	aa1703e0 	mov	x0, x23
    2688:	94000472 	bl	3850 <mbedtls_mpi_lset>
    268c:	34000080 	cbz	w0, 269c <TEE_BigIntComputeExtendedGcd+0x130>
/home/nbshenxm/optee-project/rpi3/optee_os/lib/libutee/tee_api_arith_mpi.c:732 (discriminator 1)
    2690:	2a0003e2 	mov	w2, w0
    2694:	52805b81 	mov	w1, #0x2dc                 	// #732
    2698:	17ffffda 	b	2600 <TEE_BigIntComputeExtendedGcd+0x94>
/home/nbshenxm/optee-project/rpi3/optee_os/lib/libutee/tee_api_arith_mpi.c:733
    269c:	52800001 	mov	w1, #0x0                   	// #0
    26a0:	aa1603e0 	mov	x0, x22
    26a4:	9400046b 	bl	3850 <mbedtls_mpi_lset>
    26a8:	34000160 	cbz	w0, 26d4 <TEE_BigIntComputeExtendedGcd+0x168>
/home/nbshenxm/optee-project/rpi3/optee_os/lib/libutee/tee_api_arith_mpi.c:733 (discriminator 1)
    26ac:	2a0003e2 	mov	w2, w0
    26b0:	52805ba1 	mov	w1, #0x2dd                 	// #733
    26b4:	17ffffd3 	b	2600 <TEE_BigIntComputeExtendedGcd+0x94>
/home/nbshenxm/optee-project/rpi3/optee_os/lib/libutee/tee_api_arith_mpi.c:734
    26b8:	540002ad 	b.le	270c <TEE_BigIntComputeExtendedGcd+0x1a0>
/home/nbshenxm/optee-project/rpi3/optee_os/lib/libutee/tee_api_arith_mpi.c:735
    26bc:	aa1303e4 	mov	x4, x19
    26c0:	aa1403e3 	mov	x3, x20
    26c4:	aa1603e2 	mov	x2, x22
    26c8:	aa1703e1 	mov	x1, x23
/home/nbshenxm/optee-project/rpi3/optee_os/lib/libutee/tee_api_arith_mpi.c:737
    26cc:	aa1503e0 	mov	x0, x21
    26d0:	97fffb1d 	bl	1344 <mpi_egcd>
/home/nbshenxm/optee-project/rpi3/optee_os/lib/libutee/tee_api_arith_mpi.c:740
    26d4:	794183e0 	ldrh	w0, [sp, #192]
/home/nbshenxm/optee-project/rpi3/optee_os/lib/libutee/tee_api_arith_mpi.c:741
    26d8:	b9406fe1 	ldr	w1, [sp, #108]
/home/nbshenxm/optee-project/rpi3/optee_os/lib/libutee/tee_api_arith_mpi.c:740
    26dc:	1b007f9c 	mul	w28, w28, w0
/home/nbshenxm/optee-project/rpi3/optee_os/lib/libutee/tee_api_arith_mpi.c:741
    26e0:	7941b3e0 	ldrh	w0, [sp, #216]
/home/nbshenxm/optee-project/rpi3/optee_os/lib/libutee/tee_api_arith_mpi.c:740
    26e4:	790183fc 	strh	w28, [sp, #192]
/home/nbshenxm/optee-project/rpi3/optee_os/lib/libutee/tee_api_arith_mpi.c:741
    26e8:	1b007c20 	mul	w0, w1, w0
/home/nbshenxm/optee-project/rpi3/optee_os/lib/libutee/tee_api_arith_mpi.c:743
    26ec:	aa1b03e1 	mov	x1, x27
/home/nbshenxm/optee-project/rpi3/optee_os/lib/libutee/tee_api_arith_mpi.c:741
    26f0:	7901b3e0 	strh	w0, [sp, #216]
/home/nbshenxm/optee-project/rpi3/optee_os/lib/libutee/tee_api_arith_mpi.c:743
    26f4:	aa1703e0 	mov	x0, x23
    26f8:	97fffaa2 	bl	1180 <copy_mpi_to_bigint>
    26fc:	34000120 	cbz	w0, 2720 <TEE_BigIntComputeExtendedGcd+0x1b4>
/home/nbshenxm/optee-project/rpi3/optee_os/lib/libutee/tee_api_arith_mpi.c:743 (discriminator 1)
    2700:	2a0003e2 	mov	w2, w0
    2704:	52805ce1 	mov	w1, #0x2e7                 	// #743
    2708:	17ffffbe 	b	2600 <TEE_BigIntComputeExtendedGcd+0x94>
/home/nbshenxm/optee-project/rpi3/optee_os/lib/libutee/tee_api_arith_mpi.c:737
    270c:	aa1403e4 	mov	x4, x20
    2710:	aa1303e3 	mov	x3, x19
    2714:	aa1703e2 	mov	x2, x23
    2718:	aa1603e1 	mov	x1, x22
    271c:	17ffffec 	b	26cc <TEE_BigIntComputeExtendedGcd+0x160>
/home/nbshenxm/optee-project/rpi3/optee_os/lib/libutee/tee_api_arith_mpi.c:744
    2720:	aa1a03e1 	mov	x1, x26
    2724:	aa1603e0 	mov	x0, x22
    2728:	97fffa96 	bl	1180 <copy_mpi_to_bigint>
    272c:	34000080 	cbz	w0, 273c <TEE_BigIntComputeExtendedGcd+0x1d0>
/home/nbshenxm/optee-project/rpi3/optee_os/lib/libutee/tee_api_arith_mpi.c:744 (discriminator 1)
    2730:	2a0003e2 	mov	w2, w0
    2734:	52805d01 	mov	w1, #0x2e8                 	// #744
    2738:	17ffffb2 	b	2600 <TEE_BigIntComputeExtendedGcd+0x94>
/home/nbshenxm/optee-project/rpi3/optee_os/lib/libutee/tee_api_arith_mpi.c:745
    273c:	aa1703e0 	mov	x0, x23
    2740:	940002f5 	bl	3314 <mbedtls_mpi_free>
/home/nbshenxm/optee-project/rpi3/optee_os/lib/libutee/tee_api_arith_mpi.c:746
    2744:	aa1603e0 	mov	x0, x22
    2748:	940002f3 	bl	3314 <mbedtls_mpi_free>
/home/nbshenxm/optee-project/rpi3/optee_os/lib/libutee/tee_api_arith_mpi.c:749
    274c:	aa1903e1 	mov	x1, x25
    2750:	aa1503e0 	mov	x0, x21
    2754:	97fffa8b 	bl	1180 <copy_mpi_to_bigint>
    2758:	34000080 	cbz	w0, 2768 <TEE_BigIntComputeExtendedGcd+0x1fc>
/home/nbshenxm/optee-project/rpi3/optee_os/lib/libutee/tee_api_arith_mpi.c:749 (discriminator 1)
    275c:	2a0003e2 	mov	w2, w0
    2760:	52805da1 	mov	w1, #0x2ed                 	// #749
    2764:	17ffffa7 	b	2600 <TEE_BigIntComputeExtendedGcd+0x94>
/home/nbshenxm/optee-project/rpi3/optee_os/lib/libutee/tee_api_arith_mpi.c:750
    2768:	aa1503e0 	mov	x0, x21
    276c:	940002ea 	bl	3314 <mbedtls_mpi_free>
/home/nbshenxm/optee-project/rpi3/optee_os/lib/libutee/tee_api_arith_mpi.c:751
    2770:	aa1403e0 	mov	x0, x20
    2774:	940002e8 	bl	3314 <mbedtls_mpi_free>
/home/nbshenxm/optee-project/rpi3/optee_os/lib/libutee/tee_api_arith_mpi.c:752
    2778:	eb18027f 	cmp	x19, x24
    277c:	54000061 	b.ne	2788 <TEE_BigIntComputeExtendedGcd+0x21c>  // b.any
/home/nbshenxm/optee-project/rpi3/optee_os/lib/libutee/tee_api_arith_mpi.c:753
    2780:	aa1303e0 	mov	x0, x19
    2784:	940002e4 	bl	3314 <mbedtls_mpi_free>
/home/nbshenxm/optee-project/rpi3/optee_os/lib/libutee/tee_api_arith_mpi.c:754
    2788:	a94153f3 	ldp	x19, x20, [sp, #16]
    278c:	a9425bf5 	ldp	x21, x22, [sp, #32]
    2790:	a94363f7 	ldp	x23, x24, [sp, #48]
    2794:	a9446bf9 	ldp	x25, x26, [sp, #64]
    2798:	a94573fb 	ldp	x27, x28, [sp, #80]
    279c:	a8cf7bfd 	ldp	x29, x30, [sp], #240
    27a0:	d65f03c0 	ret

00000000000027a4 <TEE_BigIntIsProbablePrime>:
TEE_BigIntIsProbablePrime():
/home/nbshenxm/optee-project/rpi3/optee_os/lib/libutee/tee_api_arith_mpi.c:765
    27a4:	a9bc7bfd 	stp	x29, x30, [sp, #-64]!
/home/nbshenxm/optee-project/rpi3/optee_os/lib/libutee/tee_api_arith_mpi.c:769
    27a8:	aa0003e1 	mov	x1, x0
/home/nbshenxm/optee-project/rpi3/optee_os/lib/libutee/tee_api_arith_mpi.c:765
    27ac:	910003fd 	mov	x29, sp
    27b0:	a90153f3 	stp	x19, x20, [sp, #16]
/home/nbshenxm/optee-project/rpi3/optee_os/lib/libutee/tee_api_arith_mpi.c:769
    27b4:	9100a3f3 	add	x19, sp, #0x28
    27b8:	aa1303e0 	mov	x0, x19
    27bc:	97fffa4b 	bl	10e8 <get_mpi>
/home/nbshenxm/optee-project/rpi3/optee_os/lib/libutee/tee_api_arith_mpi.c:771
    27c0:	f0ffffe1 	adrp	x1, 1000 <TEE_GetREETime+0x20>
    27c4:	910c7021 	add	x1, x1, #0x31c
    27c8:	d2800002 	mov	x2, #0x0                   	// #0
    27cc:	aa1303e0 	mov	x0, x19
    27d0:	94000efc 	bl	63c0 <mbedtls_mpi_is_prime>
    27d4:	2a0003f4 	mov	w20, w0
/home/nbshenxm/optee-project/rpi3/optee_os/lib/libutee/tee_api_arith_mpi.c:773
    27d8:	aa1303e0 	mov	x0, x19
    27dc:	940002ce 	bl	3314 <mbedtls_mpi_free>
/home/nbshenxm/optee-project/rpi3/optee_os/lib/libutee/tee_api_arith_mpi.c:775
    27e0:	7100029f 	cmp	w20, #0x0
/home/nbshenxm/optee-project/rpi3/optee_os/lib/libutee/tee_api_arith_mpi.c:779
    27e4:	1a9f17e0 	cset	w0, eq  // eq = none
    27e8:	a94153f3 	ldp	x19, x20, [sp, #16]
    27ec:	a8c47bfd 	ldp	x29, x30, [sp], #64
    27f0:	d65f03c0 	ret

00000000000027f4 <TEE_BigIntInitFMM>:
TEE_BigIntInitFMM():
/home/nbshenxm/optee-project/rpi3/optee_os/lib/libutee/tee_api_arith_mpi.c:791
    27f4:	17fffc3b 	b	18e0 <TEE_BigIntInit>

00000000000027f8 <TEE_BigIntInitFMMContext>:
TEE_BigIntInitFMMContext():
/home/nbshenxm/optee-project/rpi3/optee_os/lib/libutee/tee_api_arith_mpi.c:798
    27f8:	d65f03c0 	ret

00000000000027fc <TEE_BigIntFMMSizeInU32>:
TEE_BigIntFMMSizeInU32():
/home/nbshenxm/optee-project/rpi3/optee_os/lib/libutee/tee_api_arith_mpi.c:802
    27fc:	11007c00 	add	w0, w0, #0x1f
    2800:	53057c00 	lsr	w0, w0, #5
/home/nbshenxm/optee-project/rpi3/optee_os/lib/libutee/tee_api_arith_mpi.c:803
    2804:	11000800 	add	w0, w0, #0x2
    2808:	d65f03c0 	ret

000000000000280c <TEE_BigIntFMMContextSizeInU32>:
TEE_BigIntFMMContextSizeInU32():
/home/nbshenxm/optee-project/rpi3/optee_os/lib/libutee/tee_api_arith_mpi.c:809
    280c:	52800020 	mov	w0, #0x1                   	// #1
    2810:	d65f03c0 	ret

0000000000002814 <TEE_BigIntConvertToFMM>:
TEE_BigIntConvertToFMM():
/home/nbshenxm/optee-project/rpi3/optee_os/lib/libutee/tee_api_arith_mpi.c:815
    2814:	17fffeb5 	b	22e8 <TEE_BigIntMod>

0000000000002818 <TEE_BigIntConvertFromFMM>:
TEE_BigIntConvertFromFMM():
/home/nbshenxm/optee-project/rpi3/optee_os/lib/libutee/tee_api_arith_mpi.c:821
    2818:	a9ba7bfd 	stp	x29, x30, [sp, #-96]!
    281c:	910003fd 	mov	x29, sp
    2820:	a90153f3 	stp	x19, x20, [sp, #16]
/home/nbshenxm/optee-project/rpi3/optee_os/lib/libutee/tee_api_arith_mpi.c:825
    2824:	9100c3f3 	add	x19, sp, #0x30
/home/nbshenxm/optee-project/rpi3/optee_os/lib/libutee/tee_api_arith_mpi.c:826
    2828:	910123f4 	add	x20, sp, #0x48
/home/nbshenxm/optee-project/rpi3/optee_os/lib/libutee/tee_api_arith_mpi.c:821
    282c:	a9025bf5 	stp	x21, x22, [sp, #32]
    2830:	aa0103f6 	mov	x22, x1
    2834:	aa0003f5 	mov	x21, x0
/home/nbshenxm/optee-project/rpi3/optee_os/lib/libutee/tee_api_arith_mpi.c:825
    2838:	aa0003e1 	mov	x1, x0
    283c:	aa1303e0 	mov	x0, x19
    2840:	97fffa2a 	bl	10e8 <get_mpi>
/home/nbshenxm/optee-project/rpi3/optee_os/lib/libutee/tee_api_arith_mpi.c:826
    2844:	aa1603e1 	mov	x1, x22
    2848:	aa1403e0 	mov	x0, x20
    284c:	97fffa27 	bl	10e8 <get_mpi>
/home/nbshenxm/optee-project/rpi3/optee_os/lib/libutee/tee_api_arith_mpi.c:828
    2850:	aa1403e1 	mov	x1, x20
    2854:	aa1303e0 	mov	x0, x19
    2858:	94000350 	bl	3598 <mbedtls_mpi_copy>
    285c:	340000e0 	cbz	w0, 2878 <TEE_BigIntConvertFromFMM+0x60>
/home/nbshenxm/optee-project/rpi3/optee_os/lib/libutee/tee_api_arith_mpi.c:828 (discriminator 1)
    2860:	2a0003e2 	mov	w2, w0
    2864:	52806781 	mov	w1, #0x33c                 	// #828
/home/nbshenxm/optee-project/rpi3/optee_os/lib/libutee/tee_api_arith_mpi.c:830 (discriminator 1)
    2868:	90000040 	adrp	x0, a000 <__text_end+0x1594>
    286c:	91272400 	add	x0, x0, #0x9c9
    2870:	91043c00 	add	x0, x0, #0x10f
    2874:	97fffa11 	bl	10b8 <mpi_panic>
/home/nbshenxm/optee-project/rpi3/optee_os/lib/libutee/tee_api_arith_mpi.c:830
    2878:	aa1503e1 	mov	x1, x21
    287c:	aa1303e0 	mov	x0, x19
    2880:	97fffa40 	bl	1180 <copy_mpi_to_bigint>
    2884:	34000080 	cbz	w0, 2894 <TEE_BigIntConvertFromFMM+0x7c>
/home/nbshenxm/optee-project/rpi3/optee_os/lib/libutee/tee_api_arith_mpi.c:830 (discriminator 1)
    2888:	2a0003e2 	mov	w2, w0
    288c:	528067c1 	mov	w1, #0x33e                 	// #830
    2890:	17fffff6 	b	2868 <TEE_BigIntConvertFromFMM+0x50>
/home/nbshenxm/optee-project/rpi3/optee_os/lib/libutee/tee_api_arith_mpi.c:831
    2894:	aa1303e0 	mov	x0, x19
    2898:	9400029f 	bl	3314 <mbedtls_mpi_free>
/home/nbshenxm/optee-project/rpi3/optee_os/lib/libutee/tee_api_arith_mpi.c:832
    289c:	aa1403e0 	mov	x0, x20
    28a0:	9400029d 	bl	3314 <mbedtls_mpi_free>
/home/nbshenxm/optee-project/rpi3/optee_os/lib/libutee/tee_api_arith_mpi.c:833
    28a4:	a94153f3 	ldp	x19, x20, [sp, #16]
    28a8:	a9425bf5 	ldp	x21, x22, [sp, #32]
    28ac:	a8c67bfd 	ldp	x29, x30, [sp], #96
    28b0:	d65f03c0 	ret

00000000000028b4 <TEE_BigIntComputeFMM>:
TEE_BigIntComputeFMM():
/home/nbshenxm/optee-project/rpi3/optee_os/lib/libutee/tee_api_arith_mpi.c:838
    28b4:	a9b37bfd 	stp	x29, x30, [sp, #-208]!
    28b8:	910003fd 	mov	x29, sp
    28bc:	a90153f3 	stp	x19, x20, [sp, #16]
/home/nbshenxm/optee-project/rpi3/optee_os/lib/libutee/tee_api_arith_mpi.c:845
    28c0:	910163f3 	add	x19, sp, #0x58
/home/nbshenxm/optee-project/rpi3/optee_os/lib/libutee/tee_api_arith_mpi.c:838
    28c4:	aa0103f4 	mov	x20, x1
/home/nbshenxm/optee-project/rpi3/optee_os/lib/libutee/tee_api_arith_mpi.c:845
    28c8:	aa0003e1 	mov	x1, x0
/home/nbshenxm/optee-project/rpi3/optee_os/lib/libutee/tee_api_arith_mpi.c:838
    28cc:	a9025bf5 	stp	x21, x22, [sp, #32]
/home/nbshenxm/optee-project/rpi3/optee_os/lib/libutee/tee_api_arith_mpi.c:846
    28d0:	9101c3f5 	add	x21, sp, #0x70
/home/nbshenxm/optee-project/rpi3/optee_os/lib/libutee/tee_api_arith_mpi.c:838
    28d4:	a90363f7 	stp	x23, x24, [sp, #48]
    28d8:	aa0003f8 	mov	x24, x0
/home/nbshenxm/optee-project/rpi3/optee_os/lib/libutee/tee_api_arith_mpi.c:845
    28dc:	aa1303e0 	mov	x0, x19
/home/nbshenxm/optee-project/rpi3/optee_os/lib/libutee/tee_api_arith_mpi.c:838
    28e0:	a9040be3 	stp	x3, x2, [sp, #64]
/home/nbshenxm/optee-project/rpi3/optee_os/lib/libutee/tee_api_arith_mpi.c:845
    28e4:	97fffa01 	bl	10e8 <get_mpi>
/home/nbshenxm/optee-project/rpi3/optee_os/lib/libutee/tee_api_arith_mpi.c:846
    28e8:	aa1403e1 	mov	x1, x20
    28ec:	aa1503e0 	mov	x0, x21
    28f0:	97fff9fe 	bl	10e8 <get_mpi>
/home/nbshenxm/optee-project/rpi3/optee_os/lib/libutee/tee_api_arith_mpi.c:847
    28f4:	f94027e2 	ldr	x2, [sp, #72]
    28f8:	910223f6 	add	x22, sp, #0x88
    28fc:	aa1603e0 	mov	x0, x22
/home/nbshenxm/optee-project/rpi3/optee_os/lib/libutee/tee_api_arith_mpi.c:848
    2900:	910283f7 	add	x23, sp, #0xa0
/home/nbshenxm/optee-project/rpi3/optee_os/lib/libutee/tee_api_arith_mpi.c:847
    2904:	aa0203e1 	mov	x1, x2
get_mpi():
/home/nbshenxm/optee-project/rpi3/optee_os/lib/libutee/tee_api_arith_mpi.c:101
    2908:	9102e3f4 	add	x20, sp, #0xb8
TEE_BigIntComputeFMM():
/home/nbshenxm/optee-project/rpi3/optee_os/lib/libutee/tee_api_arith_mpi.c:847
    290c:	97fff9f7 	bl	10e8 <get_mpi>
/home/nbshenxm/optee-project/rpi3/optee_os/lib/libutee/tee_api_arith_mpi.c:848
    2910:	f94023e3 	ldr	x3, [sp, #64]
    2914:	aa1703e0 	mov	x0, x23
    2918:	aa0303e1 	mov	x1, x3
    291c:	97fff9f3 	bl	10e8 <get_mpi>
get_mpi():
/home/nbshenxm/optee-project/rpi3/optee_os/lib/libutee/tee_api_arith_mpi.c:101
    2920:	aa1403e0 	mov	x0, x20
    2924:	94000272 	bl	32ec <mbedtls_mpi_init_mempool>
TEE_BigIntComputeFMM():
/home/nbshenxm/optee-project/rpi3/optee_os/lib/libutee/tee_api_arith_mpi.c:851
    2928:	aa1603e2 	mov	x2, x22
    292c:	aa1503e1 	mov	x1, x21
    2930:	aa1403e0 	mov	x0, x20
    2934:	940006f6 	bl	450c <mbedtls_mpi_mul_mpi>
    2938:	340000e0 	cbz	w0, 2954 <TEE_BigIntComputeFMM+0xa0>
/home/nbshenxm/optee-project/rpi3/optee_os/lib/libutee/tee_api_arith_mpi.c:851 (discriminator 1)
    293c:	2a0003e2 	mov	w2, w0
    2940:	52806a61 	mov	w1, #0x353                 	// #851
/home/nbshenxm/optee-project/rpi3/optee_os/lib/libutee/tee_api_arith_mpi.c:852 (discriminator 1)
    2944:	90000040 	adrp	x0, a000 <__text_end+0x1594>
    2948:	91272400 	add	x0, x0, #0x9c9
    294c:	9104a000 	add	x0, x0, #0x128
    2950:	97fff9da 	bl	10b8 <mpi_panic>
/home/nbshenxm/optee-project/rpi3/optee_os/lib/libutee/tee_api_arith_mpi.c:852
    2954:	aa1703e2 	mov	x2, x23
    2958:	aa1403e1 	mov	x1, x20
    295c:	aa1303e0 	mov	x0, x19
    2960:	9400090e 	bl	4d98 <mbedtls_mpi_mod_mpi>
    2964:	34000080 	cbz	w0, 2974 <TEE_BigIntComputeFMM+0xc0>
/home/nbshenxm/optee-project/rpi3/optee_os/lib/libutee/tee_api_arith_mpi.c:852 (discriminator 1)
    2968:	2a0003e2 	mov	w2, w0
    296c:	52806a81 	mov	w1, #0x354                 	// #852
    2970:	17fffff5 	b	2944 <TEE_BigIntComputeFMM+0x90>
/home/nbshenxm/optee-project/rpi3/optee_os/lib/libutee/tee_api_arith_mpi.c:854
    2974:	aa1403e0 	mov	x0, x20
    2978:	94000267 	bl	3314 <mbedtls_mpi_free>
/home/nbshenxm/optee-project/rpi3/optee_os/lib/libutee/tee_api_arith_mpi.c:855
    297c:	aa1703e0 	mov	x0, x23
    2980:	94000265 	bl	3314 <mbedtls_mpi_free>
/home/nbshenxm/optee-project/rpi3/optee_os/lib/libutee/tee_api_arith_mpi.c:856
    2984:	aa1603e0 	mov	x0, x22
    2988:	94000263 	bl	3314 <mbedtls_mpi_free>
/home/nbshenxm/optee-project/rpi3/optee_os/lib/libutee/tee_api_arith_mpi.c:857
    298c:	aa1503e0 	mov	x0, x21
    2990:	94000261 	bl	3314 <mbedtls_mpi_free>
/home/nbshenxm/optee-project/rpi3/optee_os/lib/libutee/tee_api_arith_mpi.c:858
    2994:	aa1803e1 	mov	x1, x24
    2998:	aa1303e0 	mov	x0, x19
    299c:	97fff9f9 	bl	1180 <copy_mpi_to_bigint>
    29a0:	34000080 	cbz	w0, 29b0 <TEE_BigIntComputeFMM+0xfc>
/home/nbshenxm/optee-project/rpi3/optee_os/lib/libutee/tee_api_arith_mpi.c:858 (discriminator 1)
    29a4:	2a0003e2 	mov	w2, w0
    29a8:	52806b41 	mov	w1, #0x35a                 	// #858
    29ac:	17ffffe6 	b	2944 <TEE_BigIntComputeFMM+0x90>
/home/nbshenxm/optee-project/rpi3/optee_os/lib/libutee/tee_api_arith_mpi.c:859
    29b0:	aa1303e0 	mov	x0, x19
    29b4:	94000258 	bl	3314 <mbedtls_mpi_free>
/home/nbshenxm/optee-project/rpi3/optee_os/lib/libutee/tee_api_arith_mpi.c:860
    29b8:	a94153f3 	ldp	x19, x20, [sp, #16]
    29bc:	a9425bf5 	ldp	x21, x22, [sp, #32]
    29c0:	a94363f7 	ldp	x23, x24, [sp, #48]
    29c4:	a8cd7bfd 	ldp	x29, x30, [sp], #208
    29c8:	d65f03c0 	ret

00000000000029cc <TEE_Panic>:
TEE_Panic():
/home/nbshenxm/optee-project/rpi3/optee_os/lib/libutee/tee_api_panic.c:12
    29cc:	2a0003e0 	mov	w0, w0
    29d0:	17fff5f9 	b	1b4 <utee_panic>

00000000000029d4 <invoke_system_pta>:
invoke_system_pta():
/home/nbshenxm/optee-project/rpi3/optee_os/lib/libutee/tee_system_pta.c:15
    29d4:	a9bd7bfd 	stp	x29, x30, [sp, #-48]!
    29d8:	910003fd 	mov	x29, sp
    29dc:	a90153f3 	stp	x19, x20, [sp, #16]
    29e0:	2a0003f4 	mov	w20, w0
/home/nbshenxm/optee-project/rpi3/optee_os/lib/libutee/tee_system_pta.c:19
    29e4:	b0000060 	adrp	x0, f000 <data.4724+0x2b58>
/home/nbshenxm/optee-project/rpi3/optee_os/lib/libutee/tee_system_pta.c:15
    29e8:	a9025bf5 	stp	x21, x22, [sp, #32]
    29ec:	2a0103f5 	mov	w21, w1
    29f0:	aa0203f6 	mov	x22, x2
/home/nbshenxm/optee-project/rpi3/optee_os/lib/libutee/tee_system_pta.c:19
    29f4:	f9425401 	ldr	x1, [x0, #1192]
    29f8:	aa0003f3 	mov	x19, x0
    29fc:	b4000161 	cbz	x1, 2a28 <invoke_system_pta+0x54>
/home/nbshenxm/optee-project/rpi3/optee_os/lib/libutee/tee_system_pta.c:27
    2a00:	aa1603e4 	mov	x4, x22
    2a04:	2a1503e3 	mov	w3, w21
    2a08:	2a1403e2 	mov	w2, w20
    2a0c:	d2800005 	mov	x5, #0x0                   	// #0
    2a10:	f9425660 	ldr	x0, [x19, #1192]
    2a14:	12800001 	mov	w1, #0xffffffff            	// #-1
/home/nbshenxm/optee-project/rpi3/optee_os/lib/libutee/tee_system_pta.c:29
    2a18:	a94153f3 	ldp	x19, x20, [sp, #16]
    2a1c:	a9425bf5 	ldp	x21, x22, [sp, #32]
    2a20:	a8c37bfd 	ldp	x29, x30, [sp], #48
/home/nbshenxm/optee-project/rpi3/optee_os/lib/libutee/tee_system_pta.c:27
    2a24:	17fff8a4 	b	cb4 <TEE_InvokeTACommand>
    2a28:	9112a004 	add	x4, x0, #0x4a8
/home/nbshenxm/optee-project/rpi3/optee_os/lib/libutee/tee_system_pta.c:20
    2a2c:	d2800005 	mov	x5, #0x0                   	// #0
    2a30:	90000040 	adrp	x0, a000 <__text_end+0x1594>
    2a34:	d2800003 	mov	x3, #0x0                   	// #0
    2a38:	52800002 	mov	w2, #0x0                   	// #0
    2a3c:	12800001 	mov	w1, #0xffffffff            	// #-1
    2a40:	9116c000 	add	x0, x0, #0x5b0
    2a44:	97fff8dd 	bl	db8 <TEE_OpenTASession>
/home/nbshenxm/optee-project/rpi3/optee_os/lib/libutee/tee_system_pta.c:23
    2a48:	34fffdc0 	cbz	w0, 2a00 <invoke_system_pta+0x2c>
/home/nbshenxm/optee-project/rpi3/optee_os/lib/libutee/tee_system_pta.c:29
    2a4c:	a94153f3 	ldp	x19, x20, [sp, #16]
    2a50:	a9425bf5 	ldp	x21, x22, [sp, #32]
    2a54:	a8c37bfd 	ldp	x29, x30, [sp], #48
    2a58:	d65f03c0 	ret

0000000000002a5c <tee_map_zi>:
tee_map_zi():
/home/nbshenxm/optee-project/rpi3/optee_os/lib/libutee/tee_system_pta.c:32
    2a5c:	a9ba7bfd 	stp	x29, x30, [sp, #-96]!
/home/nbshenxm/optee-project/rpi3/optee_os/lib/libutee/tee_system_pta.c:37
    2a60:	d2800782 	mov	x2, #0x3c                  	// #60
/home/nbshenxm/optee-project/rpi3/optee_os/lib/libutee/tee_system_pta.c:32
    2a64:	910003fd 	mov	x29, sp
    2a68:	a90153f3 	stp	x19, x20, [sp, #16]
    2a6c:	aa0003f4 	mov	x20, x0
    2a70:	2a0103f3 	mov	w19, w1
/home/nbshenxm/optee-project/rpi3/optee_os/lib/libutee/tee_system_pta.c:37
    2a74:	910093e0 	add	x0, sp, #0x24
    2a78:	52800001 	mov	w1, #0x0                   	// #0
    2a7c:	94001364 	bl	780c <memset>
/home/nbshenxm/optee-project/rpi3/optee_os/lib/libutee/tee_system_pta.c:40
    2a80:	b90023f4 	str	w20, [sp, #32]
/home/nbshenxm/optee-project/rpi3/optee_os/lib/libutee/tee_system_pta.c:41
    2a84:	f2607e9f 	tst	x20, #0xffffffff00000000
    2a88:	54000060 	b.eq	2a94 <tee_map_zi+0x38>  // b.none
/home/nbshenxm/optee-project/rpi3/optee_os/lib/libutee/tee_system_pta.c:50
    2a8c:	d2800000 	mov	x0, #0x0                   	// #0
    2a90:	1400000d 	b	2ac4 <tee_map_zi+0x68>
/home/nbshenxm/optee-project/rpi3/optee_os/lib/libutee/tee_system_pta.c:43
    2a94:	340000b3 	cbz	w19, 2aa8 <tee_map_zi+0x4c>
    2a98:	7100127f 	cmp	w19, #0x4
    2a9c:	54ffff81 	b.ne	2a8c <tee_map_zi+0x30>  // b.any
/home/nbshenxm/optee-project/rpi3/optee_os/lib/libutee/tee_system_pta.c:47
    2aa0:	52800020 	mov	w0, #0x1                   	// #1
    2aa4:	b90027e0 	str	w0, [sp, #36]
/home/nbshenxm/optee-project/rpi3/optee_os/lib/libutee/tee_system_pta.c:53
    2aa8:	910083e2 	add	x2, sp, #0x20
    2aac:	52802621 	mov	w1, #0x131                 	// #305
    2ab0:	52800040 	mov	w0, #0x2                   	// #2
    2ab4:	97ffffc8 	bl	29d4 <invoke_system_pta>
/home/nbshenxm/optee-project/rpi3/optee_os/lib/libutee/tee_system_pta.c:54
    2ab8:	35fffea0 	cbnz	w0, 2a8c <tee_map_zi+0x30>
reg_pair_to_64():
/home/nbshenxm/optee-project/rpi3/optee_os/lib/libutils/ext/include/util.h:154
    2abc:	294607e0 	ldp	w0, w1, [sp, #48]
    2ac0:	aa008020 	orr	x0, x1, x0, lsl #32
tee_map_zi():
/home/nbshenxm/optee-project/rpi3/optee_os/lib/libutee/tee_system_pta.c:59
    2ac4:	a94153f3 	ldp	x19, x20, [sp, #16]
    2ac8:	a8c67bfd 	ldp	x29, x30, [sp], #96
    2acc:	d65f03c0 	ret

0000000000002ad0 <tee_unmap>:
tee_unmap():
/home/nbshenxm/optee-project/rpi3/optee_os/lib/libutee/tee_system_pta.c:62
    2ad0:	a9b97bfd 	stp	x29, x30, [sp, #-112]!
/home/nbshenxm/optee-project/rpi3/optee_os/lib/libutee/tee_system_pta.c:68
    2ad4:	d2800782 	mov	x2, #0x3c                  	// #60
/home/nbshenxm/optee-project/rpi3/optee_os/lib/libutee/tee_system_pta.c:62
    2ad8:	910003fd 	mov	x29, sp
    2adc:	a90153f3 	stp	x19, x20, [sp, #16]
    2ae0:	aa0003f3 	mov	x19, x0
/home/nbshenxm/optee-project/rpi3/optee_os/lib/libutee/tee_system_pta.c:68
    2ae4:	9100d3e0 	add	x0, sp, #0x34
/home/nbshenxm/optee-project/rpi3/optee_os/lib/libutee/tee_system_pta.c:62
    2ae8:	f90013f5 	str	x21, [sp, #32]
    2aec:	aa0103f5 	mov	x21, x1
/home/nbshenxm/optee-project/rpi3/optee_os/lib/libutee/tee_system_pta.c:68
    2af0:	52800001 	mov	w1, #0x0                   	// #0
    2af4:	94001346 	bl	780c <memset>
reg_pair_from_64():
/home/nbshenxm/optee-project/rpi3/optee_os/lib/libutils/ext/include/util.h:160
    2af8:	d360fe60 	lsr	x0, x19, #32
tee_unmap():
/home/nbshenxm/optee-project/rpi3/optee_os/lib/libutee/tee_system_pta.c:73
    2afc:	9100c3e2 	add	x2, sp, #0x30
    2b00:	52800221 	mov	w1, #0x11                  	// #17
/home/nbshenxm/optee-project/rpi3/optee_os/lib/libutee/tee_system_pta.c:70
    2b04:	b90033f5 	str	w21, [sp, #48]
reg_pair_from_64():
/home/nbshenxm/optee-project/rpi3/optee_os/lib/libutils/ext/include/util.h:161
    2b08:	29084fe0 	stp	w0, w19, [sp, #64]
tee_unmap():
/home/nbshenxm/optee-project/rpi3/optee_os/lib/libutee/tee_system_pta.c:73
    2b0c:	52800060 	mov	w0, #0x3                   	// #3
    2b10:	97ffffb1 	bl	29d4 <invoke_system_pta>
    2b14:	2a0003f4 	mov	w20, w0
/home/nbshenxm/optee-project/rpi3/optee_os/lib/libutee/tee_system_pta.c:74
    2b18:	34000180 	cbz	w0, 2b48 <tee_unmap+0x78>
/home/nbshenxm/optee-project/rpi3/optee_os/lib/libutee/tee_system_pta.c:75
    2b1c:	90000040 	adrp	x0, a000 <__text_end+0x1594>
    2b20:	9116c000 	add	x0, x0, #0x5b0
    2b24:	90000044 	adrp	x4, a000 <__text_end+0x1594>
    2b28:	aa1503e6 	mov	x6, x21
    2b2c:	aa1303e5 	mov	x5, x19
    2b30:	912ef484 	add	x4, x4, #0xbbd
    2b34:	52800023 	mov	w3, #0x1                   	// #1
    2b38:	52800022 	mov	w2, #0x1                   	// #1
    2b3c:	52800961 	mov	w1, #0x4b                  	// #75
    2b40:	91004000 	add	x0, x0, #0x10
    2b44:	94001706 	bl	875c <trace_printf>
/home/nbshenxm/optee-project/rpi3/optee_os/lib/libutee/tee_system_pta.c:78
    2b48:	2a1403e0 	mov	w0, w20
    2b4c:	a94153f3 	ldp	x19, x20, [sp, #16]
    2b50:	f94013f5 	ldr	x21, [sp, #32]
    2b54:	a8c77bfd 	ldp	x29, x30, [sp], #112
    2b58:	d65f03c0 	ret

0000000000002b5c <trace_ext_puts>:
trace_ext_puts():
/home/nbshenxm/optee-project/rpi3/optee_os/lib/libutee/trace_ext.c:17
    2b5c:	a9be7bfd 	stp	x29, x30, [sp, #-32]!
    2b60:	910003fd 	mov	x29, sp
    2b64:	f9000bf3 	str	x19, [sp, #16]
    2b68:	aa0003f3 	mov	x19, x0
/home/nbshenxm/optee-project/rpi3/optee_os/lib/libutee/trace_ext.c:18
    2b6c:	9400132f 	bl	7828 <strlen>
    2b70:	aa0003e1 	mov	x1, x0
    2b74:	aa1303e0 	mov	x0, x19
/home/nbshenxm/optee-project/rpi3/optee_os/lib/libutee/trace_ext.c:19
    2b78:	f9400bf3 	ldr	x19, [sp, #16]
    2b7c:	a8c27bfd 	ldp	x29, x30, [sp], #32
/home/nbshenxm/optee-project/rpi3/optee_os/lib/libutee/trace_ext.c:18
    2b80:	17fff593 	b	1cc <utee_log>

0000000000002b84 <trace_ext_get_thread_id>:
trace_ext_get_thread_id():
/home/nbshenxm/optee-project/rpi3/optee_os/lib/libutee/trace_ext.c:24
    2b84:	12800000 	mov	w0, #0xffffffff            	// #-1
    2b88:	d65f03c0 	ret

0000000000002b8c <printf>:
printf():
/home/nbshenxm/optee-project/rpi3/optee_os/lib/libutee/trace_ext.c:32
    2b8c:	d10883ff 	sub	sp, sp, #0x220
    2b90:	a9007bfd 	stp	x29, x30, [sp]
    2b94:	910003fd 	mov	x29, sp
    2b98:	a90153f3 	stp	x19, x20, [sp, #16]
    2b9c:	aa0003f3 	mov	x19, x0
    2ba0:	3d805be0 	str	q0, [sp, #352]
    2ba4:	3d805fe1 	str	q1, [sp, #368]
    2ba8:	3d8063e2 	str	q2, [sp, #384]
    2bac:	3d8067e3 	str	q3, [sp, #400]
    2bb0:	3d806be4 	str	q4, [sp, #416]
    2bb4:	3d806fe5 	str	q5, [sp, #432]
    2bb8:	3d8073e6 	str	q6, [sp, #448]
    2bbc:	3d8077e7 	str	q7, [sp, #464]
    2bc0:	a91e8be1 	stp	x1, x2, [sp, #488]
    2bc4:	a91f93e3 	stp	x3, x4, [sp, #504]
    2bc8:	f90107e5 	str	x5, [sp, #520]
    2bcc:	f9010be6 	str	x6, [sp, #528]
    2bd0:	f9010fe7 	str	x7, [sp, #536]
/home/nbshenxm/optee-project/rpi3/optee_os/lib/libutee/trace_ext.c:37
    2bd4:	94001662 	bl	855c <trace_get_level>
    2bd8:	7100001f 	cmp	w0, #0x0
    2bdc:	5400038d 	b.le	2c4c <printf+0xc0>
/home/nbshenxm/optee-project/rpi3/optee_os/lib/libutee/trace_ext.c:40
    2be0:	910883e0 	add	x0, sp, #0x220
    2be4:	a90403e0 	stp	x0, x0, [sp, #64]
    2be8:	910783e0 	add	x0, sp, #0x1e0
    2bec:	f9002be0 	str	x0, [sp, #80]
    2bf0:	128006e0 	mov	w0, #0xffffffc8            	// #-56
    2bf4:	b9005be0 	str	w0, [sp, #88]
    2bf8:	12800fe0 	mov	w0, #0xffffff80            	// #-128
    2bfc:	b9005fe0 	str	w0, [sp, #92]
/home/nbshenxm/optee-project/rpi3/optee_os/lib/libutee/trace_ext.c:41
    2c00:	910183f4 	add	x20, sp, #0x60
    2c04:	a94407e0 	ldp	x0, x1, [sp, #64]
    2c08:	a90207e0 	stp	x0, x1, [sp, #32]
    2c0c:	aa1303e2 	mov	x2, x19
    2c10:	a94507e0 	ldp	x0, x1, [sp, #80]
    2c14:	910083e3 	add	x3, sp, #0x20
    2c18:	a90307e0 	stp	x0, x1, [sp, #48]
    2c1c:	aa1403e0 	mov	x0, x20
    2c20:	d2802001 	mov	x1, #0x100                 	// #256
    2c24:	940012ce 	bl	775c <vsnprintf>
    2c28:	2a0003f3 	mov	w19, w0
/home/nbshenxm/optee-project/rpi3/optee_os/lib/libutee/trace_ext.c:44
    2c2c:	37f80060 	tbnz	w0, #31, 2c38 <printf+0xac>
/home/nbshenxm/optee-project/rpi3/optee_os/lib/libutee/trace_ext.c:47
    2c30:	aa1403e0 	mov	x0, x20
    2c34:	97ffffca 	bl	2b5c <trace_ext_puts>
/home/nbshenxm/optee-project/rpi3/optee_os/lib/libutee/trace_ext.c:50
    2c38:	2a1303e0 	mov	w0, w19
    2c3c:	a9407bfd 	ldp	x29, x30, [sp]
    2c40:	a94153f3 	ldp	x19, x20, [sp, #16]
    2c44:	910883ff 	add	sp, sp, #0x220
    2c48:	d65f03c0 	ret
/home/nbshenxm/optee-project/rpi3/optee_os/lib/libutee/trace_ext.c:38
    2c4c:	52800013 	mov	w19, #0x0                   	// #0
    2c50:	17fffffa 	b	2c38 <printf+0xac>

0000000000002c54 <puts>:
puts():
/home/nbshenxm/optee-project/rpi3/optee_os/lib/libutee/trace_ext.c:53
    2c54:	a9be7bfd 	stp	x29, x30, [sp, #-32]!
    2c58:	910003fd 	mov	x29, sp
    2c5c:	f9000bf3 	str	x19, [sp, #16]
    2c60:	aa0003f3 	mov	x19, x0
/home/nbshenxm/optee-project/rpi3/optee_os/lib/libutee/trace_ext.c:54
    2c64:	9400163e 	bl	855c <trace_get_level>
    2c68:	7100001f 	cmp	w0, #0x0
    2c6c:	540000cd 	b.le	2c84 <puts+0x30>
/home/nbshenxm/optee-project/rpi3/optee_os/lib/libutee/trace_ext.c:55
    2c70:	aa1303e0 	mov	x0, x19
    2c74:	97ffffba 	bl	2b5c <trace_ext_puts>
/home/nbshenxm/optee-project/rpi3/optee_os/lib/libutee/trace_ext.c:56
    2c78:	b0000040 	adrp	x0, b000 <__func__.5126+0x50f>
    2c7c:	91010800 	add	x0, x0, #0x42
    2c80:	97ffffb7 	bl	2b5c <trace_ext_puts>
/home/nbshenxm/optee-project/rpi3/optee_os/lib/libutee/trace_ext.c:59
    2c84:	52800020 	mov	w0, #0x1                   	// #1
    2c88:	f9400bf3 	ldr	x19, [sp, #16]
    2c8c:	a8c27bfd 	ldp	x29, x30, [sp], #32
    2c90:	d65f03c0 	ret

0000000000002c94 <putchar>:
putchar():
/home/nbshenxm/optee-project/rpi3/optee_os/lib/libutee/trace_ext.c:62
    2c94:	a9bd7bfd 	stp	x29, x30, [sp, #-48]!
    2c98:	910003fd 	mov	x29, sp
    2c9c:	f9000bf3 	str	x19, [sp, #16]
    2ca0:	2a0003f3 	mov	w19, w0
/home/nbshenxm/optee-project/rpi3/optee_os/lib/libutee/trace_ext.c:63
